
code.dump:     file format binary


Disassembly of section .data:

0000000000000000 <.data>:
       0:	a9bf7bfd 	stp	x29, x30, [sp, #-16]!
       4:	910003fd 	mov	x29, sp
       8:	d100c3ff 	sub	sp, sp, #0x30
       c:	f81f83a0 	stur	x0, [x29, #-8]
      10:	b81f43a1 	stur	w1, [x29, #-12]
      14:	b81f03a2 	stur	w2, [x29, #-16]
      18:	b81ec3a3 	stur	w3, [x29, #-20]
      1c:	b81e83a4 	stur	w4, [x29, #-24]
      20:	b81e43a5 	stur	w5, [x29, #-28]
      24:	b81e03a6 	stur	w6, [x29, #-32]
      28:	b85f43a0 	ldur	w0, [x29, #-12]
      2c:	b85f03a1 	ldur	w1, [x29, #-16]
      30:	b85ec3a2 	ldur	w2, [x29, #-20]
      34:	b85e83a3 	ldur	w3, [x29, #-24]
      38:	b85e43a4 	ldur	w4, [x29, #-28]
      3c:	b85e03a5 	ldur	w5, [x29, #-32]
      40:	d297b591 	mov	x17, #0xbdac                	// #48556
      44:	f2a031b1 	movk	x17, #0x18d, lsl #16
      48:	f2c00ab1 	movk	x17, #0x55, lsl #32
      4c:	f2e00011 	movk	x17, #0x0, lsl #48
      50:	d63f0220 	blr	x17
      54:	d4200520 	brk	#0x29
      58:	9100c3ff 	add	sp, sp, #0x30
      5c:	a8c17bfd 	ldp	x29, x30, [sp], #16
      60:	d65f03c0 	ret
      64:	d503201f 	nop
      68:	d503201f 	nop
      6c:	d503201f 	nop
      70:	a9bf7bfd 	stp	x29, x30, [sp, #-16]!
      74:	910003fd 	mov	x29, sp
      78:	d100c3ff 	sub	sp, sp, #0x30
      7c:	52800001 	mov	w1, #0x0                   	// #0
      80:	72a00001 	movk	w1, #0x0, lsl #16
      84:	d4200500 	brk	#0x28
      88:	d4200ae0 	brk	#0x57
      8c:	f81f83a0 	stur	x0, [x29, #-8]
      90:	b81f43a1 	stur	w1, [x29, #-12]
      94:	b85f03a0 	ldur	w0, [x29, #-16]
      98:	f85e83a1 	ldur	x1, [x29, #-24]
      9c:	d2975b11 	mov	x17, #0xbad8                	// #47832
      a0:	f2a031b1 	movk	x17, #0x18d, lsl #16
      a4:	f2c00ab1 	movk	x17, #0x55, lsl #32
      a8:	f2e00011 	movk	x17, #0x0, lsl #48
      ac:	d63f0220 	blr	x17
      b0:	f81e03a0 	stur	x0, [x29, #-32]
      b4:	d2853900 	mov	x0, #0x29c8                	// #10696
      b8:	f2a000c0 	movk	x0, #0x6, lsl #16
      bc:	f2c00aa0 	movk	x0, #0x55, lsl #32
      c0:	f2e00000 	movk	x0, #0x0, lsl #48
      c4:	d287fa11 	mov	x17, #0x3fd0                	// #16336
      c8:	f2a031b1 	movk	x17, #0x18d, lsl #16
      cc:	f2c00ab1 	movk	x17, #0x55, lsl #32
      d0:	f2e00011 	movk	x17, #0x0, lsl #48
      d4:	d63f0220 	blr	x17
      d8:	f85f83a1 	ldur	x1, [x29, #-8]
      dc:	f811a020 	stur	x0, [x1, #-230]
      e0:	b85f43a2 	ldur	w2, [x29, #-12]
      e4:	b8010040 	stur	w0, [x2, #16]
      e8:	9100c3ff 	add	sp, sp, #0x30
      ec:	a8c17bfd 	ldp	x29, x30, [sp], #16
      f0:	d65f03c0 	ret
      f4:	d503201f 	nop
      f8:	d503201f 	nop
      fc:	d503201f 	nop
     100:	a9bf7bfd 	stp	x29, x30, [sp, #-16]!
     104:	910003fd 	mov	x29, sp
     108:	d10083ff 	sub	sp, sp, #0x20
     10c:	f81f83a0 	stur	x0, [x29, #-8]
     110:	f85f83a0 	ldur	x0, [x29, #-8]
     114:	97ffffd7 	bl	0x70
     118:	7100001f 	cmp	w0, #0x0
     11c:	54000381 	b.ne	0x18c  // b.any
     120:	f81e83a0 	stur	x0, [x29, #-24]
     124:	d298b091 	mov	x17, #0xc584                	// #50564
     128:	f2a031b1 	movk	x17, #0x18d, lsl #16
     12c:	f2c00ab1 	movk	x17, #0x55, lsl #32
     130:	f2e00011 	movk	x17, #0x0, lsl #48
     134:	d63f0220 	blr	x17
     138:	f85e83a0 	ldur	x0, [x29, #-24]
     13c:	f8408001 	ldur	x1, [x0, #8]
     140:	910083ff 	add	sp, sp, #0x20
     144:	a8c17bfd 	ldp	x29, x30, [sp], #16
     148:	d65f03c0 	ret
     14c:	d503201f 	nop
     150:	a9bf7bfd 	stp	x29, x30, [sp, #-16]!
     154:	910003fd 	mov	x29, sp
     158:	d10103ff 	sub	sp, sp, #0x40
     15c:	d2957901 	mov	x1, #0xabc8                	// #43976
     160:	f2a000c1 	movk	x1, #0x6, lsl #16
     164:	f2c00aa1 	movk	x1, #0x55, lsl #32
     168:	f2e00001 	movk	x1, #0x0, lsl #48
     16c:	f8400020 	ldur	x0, [x1]
     170:	f8438001 	ldur	x1, [x0, #56]
     174:	7100003f 	cmp	w1, #0x0
     178:	54000401 	b.ne	0x1f8  // b.any
     17c:	f81f03a0 	stur	x0, [x29, #-16]
     180:	f81f83a1 	stur	x1, [x29, #-8]
     184:	d298b091 	mov	x17, #0xc584                	// #50564
     188:	f2a031b1 	movk	x17, #0x18d, lsl #16
     18c:	f2c00ab1 	movk	x17, #0x55, lsl #32
     190:	f2e00011 	movk	x17, #0x0, lsl #48
     194:	d63f0220 	blr	x17
     198:	d2957a01 	mov	x1, #0xabd0                	// #43984
     19c:	f2a000c1 	movk	x1, #0x6, lsl #16
     1a0:	f2c00aa1 	movk	x1, #0x55, lsl #32
     1a4:	f2e00001 	movk	x1, #0x0, lsl #48
     1a8:	f8400020 	ldur	x0, [x1]
     1ac:	f81e83a0 	stur	x0, [x29, #-24]
     1b0:	d2874d00 	mov	x0, #0x3a68                	// #14952
     1b4:	f2a000c0 	movk	x0, #0x6, lsl #16
     1b8:	f2c00aa0 	movk	x0, #0x55, lsl #32
     1bc:	f2e00000 	movk	x0, #0x0, lsl #48
     1c0:	d2883511 	mov	x17, #0x41a8                	// #16808
     1c4:	f2a031b1 	movk	x17, #0x18d, lsl #16
     1c8:	f2c00ab1 	movk	x17, #0x55, lsl #32
     1cc:	f2e00011 	movk	x17, #0x0, lsl #48
     1d0:	d63f0220 	blr	x17
     1d4:	d2957b02 	mov	x2, #0xabd8                	// #43992
     1d8:	f2a000c2 	movk	x2, #0x6, lsl #16
     1dc:	f2c00aa2 	movk	x2, #0x55, lsl #32
     1e0:	f2e00002 	movk	x2, #0x0, lsl #48
     1e4:	f8400041 	ldur	x1, [x2]
     1e8:	d42004e0 	brk	#0x27
     1ec:	52800062 	mov	w2, #0x3                   	// #3
     1f0:	72a00002 	movk	w2, #0x0, lsl #16
     1f4:	d42004e0 	brk	#0x27
     1f8:	d2957c03 	mov	x3, #0xabe0                	// #44000
     1fc:	f2a000c3 	movk	x3, #0x6, lsl #16
     200:	f2c00aa3 	movk	x3, #0x55, lsl #32
     204:	f2e00003 	movk	x3, #0x0, lsl #48
     208:	f8400061 	ldur	x1, [x3]
     20c:	d42004e0 	brk	#0x27
     210:	d2957d03 	mov	x3, #0xabe8                	// #44008
     214:	f2a000c3 	movk	x3, #0x6, lsl #16
     218:	f2c00aa3 	movk	x3, #0x55, lsl #32
     21c:	f2e00003 	movk	x3, #0x0, lsl #48
     220:	f8400061 	ldur	x1, [x3]
     224:	d42004e0 	brk	#0x27
     228:	d4200820 	brk	#0x41
     22c:	d4200400 	brk	#0x20
     230:	910103ff 	add	sp, sp, #0x40
     234:	a8c17bfd 	ldp	x29, x30, [sp], #16
     238:	d65f03c0 	ret
     23c:	d503201f 	nop
     240:	a9bf7bfd 	stp	x29, x30, [sp, #-16]!
     244:	910003fd 	mov	x29, sp
     248:	d10143ff 	sub	sp, sp, #0x50
     24c:	f81f83a0 	stur	x0, [x29, #-8]
     250:	f81f03a1 	stur	x1, [x29, #-16]
     254:	d13fc3e0 	sub	x0, sp, #0xff0
     258:	d2852901 	mov	x1, #0x2948                	// #10568
     25c:	f2a000c1 	movk	x1, #0x6, lsl #16
     260:	f2c00aa1 	movk	x1, #0x55, lsl #32
     264:	f2e00001 	movk	x1, #0x0, lsl #48
     268:	d2852d02 	mov	x2, #0x2968                	// #10600
     26c:	f2a000c2 	movk	x2, #0x6, lsl #16
     270:	f2c00aa2 	movk	x2, #0x55, lsl #32
     274:	f2e00002 	movk	x2, #0x0, lsl #48
     278:	d2942991 	mov	x17, #0xa14c                	// #41292
     27c:	f2a031b1 	movk	x17, #0x18d, lsl #16
     280:	f2c00ab1 	movk	x17, #0x55, lsl #32
     284:	f2e00011 	movk	x17, #0x0, lsl #48
     288:	d63f0220 	blr	x17
     28c:	f85e83a0 	ldur	x0, [x29, #-24]
     290:	7100001f 	cmp	w0, #0x0
     294:	54000081 	b.ne	0x2a4  // b.any
     298:	110003e1 	mov	w1, wsp
     29c:	910143ff 	add	sp, sp, #0x50
     2a0:	a8c17bfd 	ldp	x29, x30, [sp], #16
     2a4:	d65f03c0 	ret
     2a8:	7100001f 	cmp	w0, #0x0
     2ac:	54000401 	b.ne	0x32c  // b.any
     2b0:	f81e83a0 	stur	x0, [x29, #-24]
     2b4:	381e73a1 	sturb	w1, [x29, #-25]
     2b8:	d298b091 	mov	x17, #0xc584                	// #50564
     2bc:	f2a031b1 	movk	x17, #0x18d, lsl #16
     2c0:	f2c00ab1 	movk	x17, #0x55, lsl #32
     2c4:	f2e00011 	movk	x17, #0x0, lsl #48
     2c8:	d63f0220 	blr	x17
     2cc:	f85e83a0 	ldur	x0, [x29, #-24]
     2d0:	f8408001 	ldur	x1, [x0, #8]
     2d4:	d4200ac0 	brk	#0x56
     2d8:	d42008c0 	brk	#0x46
     2dc:	14000030 	b	0x39c
     2e0:	d4200aa0 	brk	#0x55
     2e4:	d4200ac0 	brk	#0x56
     2e8:	d42008c0 	brk	#0x46
     2ec:	14000018 	b	0x34c
     2f0:	f81e83a0 	stur	x0, [x29, #-24]
     2f4:	f81d83a1 	stur	x1, [x29, #-40]
     2f8:	d13fe3e0 	sub	x0, sp, #0xff8
     2fc:	d2852901 	mov	x1, #0x2948                	// #10568
     300:	f2a000c1 	movk	x1, #0x6, lsl #16
     304:	f2c00aa1 	movk	x1, #0x55, lsl #32
     308:	f2e00001 	movk	x1, #0x0, lsl #48
     30c:	d2952111 	mov	x17, #0xa908                	// #43272
     310:	f2a031b1 	movk	x17, #0x18d, lsl #16
     314:	f2c00ab1 	movk	x17, #0x55, lsl #32
     318:	f2e00011 	movk	x17, #0x0, lsl #48
     31c:	d63f0220 	blr	x17
     320:	d42007c0 	brk	#0x3e
     324:	d4200780 	brk	#0x3c
     328:	fc5b83a0 	ldur	d0, [x29, #-72]
     32c:	fc5c03a1 	ldur	d1, [x29, #-64]
     330:	6b00003f 	cmp	w1, w0
     334:	54000040 	b.eq	0x33c  // b.none
     338:	110003e0 	mov	w0, wsp
     33c:	14000001 	b	0x340
     340:	110007e0 	add	w0, wsp, #0x1
     344:	910143ff 	add	sp, sp, #0x50
     348:	a8c17bfd 	ldp	x29, x30, [sp], #16
     34c:	d65f03c0 	ret
     350:	14000013 	b	0x39c
     354:	d4200aa0 	brk	#0x55
     358:	d4200ac0 	brk	#0x56
     35c:	d42008c0 	brk	#0x46
     360:	14000004 	b	0x370
     364:	110007e0 	add	w0, wsp, #0x1
     368:	910143ff 	add	sp, sp, #0x50
     36c:	a8c17bfd 	ldp	x29, x30, [sp], #16
     370:	d65f03c0 	ret
     374:	1400000a 	b	0x39c
     378:	aa1f03e1 	mov	x1, xzr
     37c:	f85f83a2 	ldur	x2, [x29, #-8]
     380:	6b02003f 	cmp	w1, w2
     384:	54000041 	b.ne	0x38c  // b.any
     388:	110003e0 	mov	w0, wsp
     38c:	14000001 	b	0x390
     390:	110007e0 	add	w0, wsp, #0x1
     394:	910143ff 	add	sp, sp, #0x50
     398:	a8c17bfd 	ldp	x29, x30, [sp], #16
     39c:	d65f03c0 	ret
     3a0:	381e73a0 	sturb	w0, [x29, #-25]
     3a4:	f81b03a1 	stur	x1, [x29, #-80]
     3a8:	f81f83a2 	stur	x2, [x29, #-8]
     3ac:	fc1b83a0 	stur	d0, [x29, #-72]
     3b0:	fc1c03a1 	stur	d1, [x29, #-64]
     3b4:	f85e83a0 	ldur	x0, [x29, #-24]
     3b8:	f85f83a1 	ldur	x1, [x29, #-8]
     3bc:	940000fd 	bl	0x7b0
     3c0:	910143ff 	add	sp, sp, #0x50
     3c4:	a8c17bfd 	ldp	x29, x30, [sp], #16
     3c8:	d65f03c0 	ret
     3cc:	d503201f 	nop
     3d0:	a9bf7bfd 	stp	x29, x30, [sp, #-16]!
     3d4:	910003fd 	mov	x29, sp
     3d8:	d100c3ff 	sub	sp, sp, #0x30
     3dc:	52800001 	mov	w1, #0x0                   	// #0
     3e0:	72a00001 	movk	w1, #0x0, lsl #16
     3e4:	d4200ae0 	brk	#0x57
     3e8:	f81f83a0 	stur	x0, [x29, #-8]
     3ec:	b81f43a1 	stur	w1, [x29, #-12]
     3f0:	f85f83a0 	ldur	x0, [x29, #-8]
     3f4:	f85e83a1 	ldur	x1, [x29, #-24]
     3f8:	d292cf91 	mov	x17, #0x967c                	// #38524
     3fc:	f2a031d1 	movk	x17, #0x18e, lsl #16
     400:	f2c00ab1 	movk	x17, #0x55, lsl #32
     404:	f2e00011 	movk	x17, #0x0, lsl #48
     408:	d63f0220 	blr	x17
     40c:	f81e03a0 	stur	x0, [x29, #-32]
     410:	d2853900 	mov	x0, #0x29c8                	// #10696
     414:	f2a000c0 	movk	x0, #0x6, lsl #16
     418:	f2c00aa0 	movk	x0, #0x55, lsl #32
     41c:	f2e00000 	movk	x0, #0x0, lsl #48
     420:	d287fa11 	mov	x17, #0x3fd0                	// #16336
     424:	f2a031b1 	movk	x17, #0x18d, lsl #16
     428:	f2c00ab1 	movk	x17, #0x55, lsl #32
     42c:	f2e00011 	movk	x17, #0x0, lsl #48
     430:	d63f0220 	blr	x17
     434:	f85f83a1 	ldur	x1, [x29, #-8]
     438:	f8102020 	stur	x0, [x1, #-254]
     43c:	b85f43a2 	ldur	w2, [x29, #-12]
     440:	b8010040 	stur	w0, [x2, #16]
     444:	9100c3ff 	add	sp, sp, #0x30
     448:	a8c17bfd 	ldp	x29, x30, [sp], #16
     44c:	d65f03c0 	ret
     450:	a9bf7bfd 	stp	x29, x30, [sp, #-16]!
     454:	910003fd 	mov	x29, sp
     458:	d101c3ff 	sub	sp, sp, #0x70
     45c:	d4200aa0 	brk	#0x55
     460:	d4200aa0 	brk	#0x55
     464:	d2853902 	mov	x2, #0x29c8                	// #10696
     468:	f2a000c2 	movk	x2, #0x6, lsl #16
     46c:	f2c00aa2 	movk	x2, #0x55, lsl #32
     470:	f2e00002 	movk	x2, #0x0, lsl #48
     474:	f85e83a3 	ldur	x3, [x29, #-24]
     478:	6b03005f 	cmp	w2, w3
     47c:	54000361 	b.ne	0x4e8  // b.any
     480:	f81f83a0 	stur	x0, [x29, #-8]
     484:	f81f03a1 	stur	x1, [x29, #-16]
     488:	f81d03a2 	stur	x2, [x29, #-48]
     48c:	f81e83a3 	stur	x3, [x29, #-24]
     490:	d13fe3e0 	sub	x0, sp, #0xff8
     494:	d2852901 	mov	x1, #0x2948                	// #10568
     498:	f2a000c1 	movk	x1, #0x6, lsl #16
     49c:	f2c00aa1 	movk	x1, #0x55, lsl #32
     4a0:	f2e00001 	movk	x1, #0x0, lsl #48
     4a4:	d2853902 	mov	x2, #0x29c8                	// #10696
     4a8:	f2a000c2 	movk	x2, #0x6, lsl #16
     4ac:	f2c00aa2 	movk	x2, #0x55, lsl #32
     4b0:	f2e00002 	movk	x2, #0x0, lsl #48
     4b4:	d2942991 	mov	x17, #0xa14c                	// #41292
     4b8:	f2a031b1 	movk	x17, #0x18d, lsl #16
     4bc:	f2c00ab1 	movk	x17, #0x55, lsl #32
     4c0:	f2e00011 	movk	x17, #0x0, lsl #48
     4c4:	d63f0220 	blr	x17
     4c8:	f85f03a0 	ldur	x0, [x29, #-16]
     4cc:	97ffffc1 	bl	0x3d0
     4d0:	f81c03a0 	stur	x0, [x29, #-64]
     4d4:	f85c83a0 	ldur	x0, [x29, #-56]
     4d8:	f85c03a1 	ldur	x1, [x29, #-64]
     4dc:	94000039 	bl	0x5c0
     4e0:	9101c3ff 	add	sp, sp, #0x70
     4e4:	a8c17bfd 	ldp	x29, x30, [sp], #16
     4e8:	d65f03c0 	ret
     4ec:	d2853901 	mov	x1, #0x29c8                	// #10696
     4f0:	f2a000c1 	movk	x1, #0x6, lsl #16
     4f4:	f2c00aa1 	movk	x1, #0x55, lsl #32
     4f8:	f2e00001 	movk	x1, #0x0, lsl #48
     4fc:	f85d83a2 	ldur	x2, [x29, #-40]
     500:	6b02003f 	cmp	w1, w2
     504:	54000341 	b.ne	0x56c  // b.any
     508:	f81c83a0 	stur	x0, [x29, #-56]
     50c:	f81d03a1 	stur	x1, [x29, #-48]
     510:	f81d83a2 	stur	x2, [x29, #-40]
     514:	f85f83a0 	ldur	x0, [x29, #-8]
     518:	97ffffae 	bl	0x3d0
     51c:	f81c83a0 	stur	x0, [x29, #-56]
     520:	d13fc3e0 	sub	x0, sp, #0xff0
     524:	d2852901 	mov	x1, #0x2948                	// #10568
     528:	f2a000c1 	movk	x1, #0x6, lsl #16
     52c:	f2c00aa1 	movk	x1, #0x55, lsl #32
     530:	f2e00001 	movk	x1, #0x0, lsl #48
     534:	d2853902 	mov	x2, #0x29c8                	// #10696
     538:	f2a000c2 	movk	x2, #0x6, lsl #16
     53c:	f2c00aa2 	movk	x2, #0x55, lsl #32
     540:	f2e00002 	movk	x2, #0x0, lsl #48
     544:	d2942991 	mov	x17, #0xa14c                	// #41292
     548:	f2a031b1 	movk	x17, #0x18d, lsl #16
     54c:	f2c00ab1 	movk	x17, #0x55, lsl #32
     550:	f2e00011 	movk	x17, #0x0, lsl #48
     554:	d63f0220 	blr	x17
     558:	f85c83a0 	ldur	x0, [x29, #-56]
     55c:	f85c03a1 	ldur	x1, [x29, #-64]
     560:	94000018 	bl	0x5c0
     564:	9101c3ff 	add	sp, sp, #0x70
     568:	a8c17bfd 	ldp	x29, x30, [sp], #16
     56c:	d65f03c0 	ret
     570:	d4200ac0 	brk	#0x56
     574:	d42008c0 	brk	#0x46
     578:	14000079 	b	0x75c
     57c:	d4200ac0 	brk	#0x56
     580:	d42008c0 	brk	#0x46
     584:	14000007 	b	0x5a0
     588:	d4200760 	brk	#0x3b
     58c:	9101c3ff 	add	sp, sp, #0x70
     590:	a8c17bfd 	ldp	x29, x30, [sp], #16
     594:	d65f03c0 	ret
     598:	9101c3ff 	add	sp, sp, #0x70
     59c:	a8c17bfd 	ldp	x29, x30, [sp], #16
     5a0:	d65f03c0 	ret
     5a4:	1400006e 	b	0x75c
     5a8:	f81c83a0 	stur	x0, [x29, #-56]
     5ac:	d13fe3e0 	sub	x0, sp, #0xff8
     5b0:	d2852901 	mov	x1, #0x2948                	// #10568
     5b4:	f2a000c1 	movk	x1, #0x6, lsl #16
     5b8:	f2c00aa1 	movk	x1, #0x55, lsl #32
     5bc:	f2e00001 	movk	x1, #0x0, lsl #48
     5c0:	d2851102 	mov	x2, #0x2888                	// #10376
     5c4:	f2a000c2 	movk	x2, #0x6, lsl #16
     5c8:	f2c00aa2 	movk	x2, #0x55, lsl #32
     5cc:	f2e00002 	movk	x2, #0x0, lsl #48
     5d0:	d293ee91 	mov	x17, #0x9f74                	// #40820
     5d4:	f2a031b1 	movk	x17, #0x18d, lsl #16
     5d8:	f2c00ab1 	movk	x17, #0x55, lsl #32
     5dc:	f2e00011 	movk	x17, #0x0, lsl #48
     5e0:	d63f0220 	blr	x17
     5e4:	d4200ac0 	brk	#0x56
     5e8:	d42008c0 	brk	#0x46
     5ec:	14000027 	b	0x688
     5f0:	d4200760 	brk	#0x3b
     5f4:	9101c3ff 	add	sp, sp, #0x70
     5f8:	a8c17bfd 	ldp	x29, x30, [sp], #16
     5fc:	d65f03c0 	ret
     600:	d13fc3e0 	sub	x0, sp, #0xff0
     604:	d2852901 	mov	x1, #0x2948                	// #10568
     608:	f2a000c1 	movk	x1, #0x6, lsl #16
     60c:	f2c00aa1 	movk	x1, #0x55, lsl #32
     610:	f2e00001 	movk	x1, #0x0, lsl #48
     614:	d2851102 	mov	x2, #0x2888                	// #10376
     618:	f2a000c2 	movk	x2, #0x6, lsl #16
     61c:	f2c00aa2 	movk	x2, #0x55, lsl #32
     620:	f2e00002 	movk	x2, #0x0, lsl #48
     624:	d293ee91 	mov	x17, #0x9f74                	// #40820
     628:	f2a031b1 	movk	x17, #0x18d, lsl #16
     62c:	f2c00ab1 	movk	x17, #0x55, lsl #32
     630:	f2e00011 	movk	x17, #0x0, lsl #48
     634:	d63f0220 	blr	x17
     638:	d42000e0 	brk	#0x7
     63c:	d4200760 	brk	#0x3b
     640:	9101c3ff 	add	sp, sp, #0x70
     644:	a8c17bfd 	ldp	x29, x30, [sp], #16
     648:	d65f03c0 	ret
     64c:	d4200780 	brk	#0x3c
     650:	d13fc3e0 	sub	x0, sp, #0xff0
     654:	d2852901 	mov	x1, #0x2948                	// #10568
     658:	f2a000c1 	movk	x1, #0x6, lsl #16
     65c:	f2c00aa1 	movk	x1, #0x55, lsl #32
     660:	f2e00001 	movk	x1, #0x0, lsl #48
     664:	d2952111 	mov	x17, #0xa908                	// #43272
     668:	f2a031b1 	movk	x17, #0x18d, lsl #16
     66c:	f2c00ab1 	movk	x17, #0x55, lsl #32
     670:	f2e00011 	movk	x17, #0x0, lsl #48
     674:	d63f0220 	blr	x17
     678:	d42000e0 	brk	#0x7
     67c:	d4200760 	brk	#0x3b
     680:	9101c3ff 	add	sp, sp, #0x70
     684:	a8c17bfd 	ldp	x29, x30, [sp], #16
     688:	d65f03c0 	ret
     68c:	14000034 	b	0x75c
     690:	d13fe3e0 	sub	x0, sp, #0xff8
     694:	d2852901 	mov	x1, #0x2948                	// #10568
     698:	f2a000c1 	movk	x1, #0x6, lsl #16
     69c:	f2c00aa1 	movk	x1, #0x55, lsl #32
     6a0:	f2e00001 	movk	x1, #0x0, lsl #48
     6a4:	d2952111 	mov	x17, #0xa908                	// #43272
     6a8:	f2a031b1 	movk	x17, #0x18d, lsl #16
     6ac:	f2c00ab1 	movk	x17, #0x55, lsl #32
     6b0:	f2e00011 	movk	x17, #0x0, lsl #48
     6b4:	d63f0220 	blr	x17
     6b8:	d4200ac0 	brk	#0x56
     6bc:	d42008c0 	brk	#0x46
     6c0:	14000027 	b	0x75c
     6c4:	d4200760 	brk	#0x3b
     6c8:	9101c3ff 	add	sp, sp, #0x70
     6cc:	a8c17bfd 	ldp	x29, x30, [sp], #16
     6d0:	d65f03c0 	ret
     6d4:	d13fc3e0 	sub	x0, sp, #0xff0
     6d8:	d2852901 	mov	x1, #0x2948                	// #10568
     6dc:	f2a000c1 	movk	x1, #0x6, lsl #16
     6e0:	f2c00aa1 	movk	x1, #0x55, lsl #32
     6e4:	f2e00001 	movk	x1, #0x0, lsl #48
     6e8:	d2851102 	mov	x2, #0x2888                	// #10376
     6ec:	f2a000c2 	movk	x2, #0x6, lsl #16
     6f0:	f2c00aa2 	movk	x2, #0x55, lsl #32
     6f4:	f2e00002 	movk	x2, #0x0, lsl #48
     6f8:	d293ee91 	mov	x17, #0x9f74                	// #40820
     6fc:	f2a031b1 	movk	x17, #0x18d, lsl #16
     700:	f2c00ab1 	movk	x17, #0x55, lsl #32
     704:	f2e00011 	movk	x17, #0x0, lsl #48
     708:	d63f0220 	blr	x17
     70c:	d4200780 	brk	#0x3c
     710:	d42000e0 	brk	#0x7
     714:	d4200760 	brk	#0x3b
     718:	9101c3ff 	add	sp, sp, #0x70
     71c:	a8c17bfd 	ldp	x29, x30, [sp], #16
     720:	d65f03c0 	ret
     724:	d13fc3e0 	sub	x0, sp, #0xff0
     728:	d2852901 	mov	x1, #0x2948                	// #10568
     72c:	f2a000c1 	movk	x1, #0x6, lsl #16
     730:	f2c00aa1 	movk	x1, #0x55, lsl #32
     734:	f2e00001 	movk	x1, #0x0, lsl #48
     738:	d2952111 	mov	x17, #0xa908                	// #43272
     73c:	f2a031b1 	movk	x17, #0x18d, lsl #16
     740:	f2c00ab1 	movk	x17, #0x55, lsl #32
     744:	f2e00011 	movk	x17, #0x0, lsl #48
     748:	d63f0220 	blr	x17
     74c:	d42000e0 	brk	#0x7
     750:	d4200760 	brk	#0x3b
     754:	9101c3ff 	add	sp, sp, #0x70
     758:	a8c17bfd 	ldp	x29, x30, [sp], #16
     75c:	d65f03c0 	ret
     760:	d2957e01 	mov	x1, #0xabf0                	// #44016
     764:	f2a000c1 	movk	x1, #0x6, lsl #16
     768:	f2c00aa1 	movk	x1, #0x55, lsl #32
     76c:	f2e00001 	movk	x1, #0x0, lsl #48
     770:	f8400020 	ldur	x0, [x1]
     774:	f81c83a0 	stur	x0, [x29, #-56]
     778:	f85f83a0 	ldur	x0, [x29, #-8]
     77c:	97ffff15 	bl	0x3d0
     780:	f81c03a0 	stur	x0, [x29, #-64]
     784:	f85c83a0 	ldur	x0, [x29, #-56]
     788:	f85c03a1 	ldur	x1, [x29, #-64]
     78c:	9400008d 	bl	0x9c0
     790:	d2957f02 	mov	x2, #0xabf8                	// #44024
     794:	f2a000c2 	movk	x2, #0x6, lsl #16
     798:	f2c00aa2 	movk	x2, #0x55, lsl #32
     79c:	f2e00002 	movk	x2, #0x0, lsl #48
     7a0:	f8400041 	ldur	x1, [x2]
     7a4:	f81c83a0 	stur	x0, [x29, #-56]
     7a8:	f81c03a1 	stur	x1, [x29, #-64]
     7ac:	f85c83a0 	ldur	x0, [x29, #-56]
     7b0:	f85c03a1 	ldur	x1, [x29, #-64]
     7b4:	94000083 	bl	0x9c0
     7b8:	d4200760 	brk	#0x3b
     7bc:	f81c83a0 	stur	x0, [x29, #-56]
     7c0:	f85e03a0 	ldur	x0, [x29, #-32]
     7c4:	97ffff03 	bl	0x3d0
     7c8:	f81c03a0 	stur	x0, [x29, #-64]
     7cc:	f85c83a0 	ldur	x0, [x29, #-56]
     7d0:	f85c03a1 	ldur	x1, [x29, #-64]
     7d4:	9400007b 	bl	0x9c0
     7d8:	d2958002 	mov	x2, #0xac00                	// #44032
     7dc:	f2a000c2 	movk	x2, #0x6, lsl #16
     7e0:	f2c00aa2 	movk	x2, #0x55, lsl #32
     7e4:	f2e00002 	movk	x2, #0x0, lsl #48
     7e8:	f8400041 	ldur	x1, [x2]
     7ec:	f81c83a0 	stur	x0, [x29, #-56]
     7f0:	f81c03a1 	stur	x1, [x29, #-64]
     7f4:	f85c83a0 	ldur	x0, [x29, #-56]
     7f8:	f85c03a1 	ldur	x1, [x29, #-64]
     7fc:	94000071 	bl	0x9c0
     800:	f81c83a0 	stur	x0, [x29, #-56]
     804:	f85f03a0 	ldur	x0, [x29, #-16]
     808:	97fffef2 	bl	0x3d0
     80c:	f81c03a0 	stur	x0, [x29, #-64]
     810:	f85c83a0 	ldur	x0, [x29, #-56]
     814:	f85c03a1 	ldur	x1, [x29, #-64]
     818:	9400006a 	bl	0x9c0
     81c:	d2957f02 	mov	x2, #0xabf8                	// #44024
     820:	f2a000c2 	movk	x2, #0x6, lsl #16
     824:	f2c00aa2 	movk	x2, #0x55, lsl #32
     828:	f2e00002 	movk	x2, #0x0, lsl #48
     82c:	f8400041 	ldur	x1, [x2]
     830:	f81c83a0 	stur	x0, [x29, #-56]
     834:	f81c03a1 	stur	x1, [x29, #-64]
     838:	f85c83a0 	ldur	x0, [x29, #-56]
     83c:	f85c03a1 	ldur	x1, [x29, #-64]
     840:	94000060 	bl	0x9c0
     844:	d4200760 	brk	#0x3b
     848:	f81c83a0 	stur	x0, [x29, #-56]
     84c:	f85e03a0 	ldur	x0, [x29, #-32]
     850:	97fffee0 	bl	0x3d0
     854:	f81c03a0 	stur	x0, [x29, #-64]
     858:	f85c83a0 	ldur	x0, [x29, #-56]
     85c:	f85c03a1 	ldur	x1, [x29, #-64]
     860:	94000058 	bl	0x9c0
     864:	d2958102 	mov	x2, #0xac08                	// #44040
     868:	f2a000c2 	movk	x2, #0x6, lsl #16
     86c:	f2c00aa2 	movk	x2, #0x55, lsl #32
     870:	f2e00002 	movk	x2, #0x0, lsl #48
     874:	f8400041 	ldur	x1, [x2]
     878:	f81c83a0 	stur	x0, [x29, #-56]
     87c:	f81c03a1 	stur	x1, [x29, #-64]
     880:	f85c83a0 	ldur	x0, [x29, #-56]
     884:	f85c03a1 	ldur	x1, [x29, #-64]
     888:	9400004e 	bl	0x9c0
     88c:	f81c83a0 	stur	x0, [x29, #-56]
     890:	f85c83a0 	ldur	x0, [x29, #-56]
     894:	940000b3 	bl	0xb60
     898:	d4200880 	brk	#0x44
     89c:	d503201f 	nop
     8a0:	a9bf7bfd 	stp	x29, x30, [sp, #-16]!
     8a4:	910003fd 	mov	x29, sp
     8a8:	d10103ff 	sub	sp, sp, #0x40
     8ac:	52800001 	mov	w1, #0x0                   	// #0
     8b0:	72a00001 	movk	w1, #0x0, lsl #16
     8b4:	6b00003f 	cmp	w1, w0
     8b8:	540009eb 	b.lt	0x9f4  // b.tstop
     8bc:	52800121 	mov	w1, #0x9                   	// #9
     8c0:	72a00001 	movk	w1, #0x0, lsl #16
     8c4:	6b00003f 	cmp	w1, w0
     8c8:	5400096a 	b.ge	0x9f4  // b.tcont
     8cc:	52800141 	mov	w1, #0xa                   	// #10
     8d0:	72a00001 	movk	w1, #0x0, lsl #16
     8d4:	6b00003f 	cmp	w1, w0
     8d8:	5400042b 	b.lt	0x95c  // b.tstop
     8dc:	52800161 	mov	w1, #0xb                   	// #11
     8e0:	72a00001 	movk	w1, #0x0, lsl #16
     8e4:	6b01001f 	cmp	w0, w1
     8e8:	540003ab 	b.lt	0x95c  // b.tstop
     8ec:	d2958203 	mov	x3, #0xac10                	// #44048
     8f0:	f2a000c3 	movk	x3, #0x6, lsl #16
     8f4:	f2c00aa3 	movk	x3, #0x55, lsl #32
     8f8:	f2e00003 	movk	x3, #0x0, lsl #48
     8fc:	f8400062 	ldur	x2, [x3]
     900:	b81f83a0 	stur	w0, [x29, #-8]
     904:	d4200ae0 	brk	#0x57
     908:	b81fc3a0 	stur	w0, [x29, #-4]
     90c:	b81f43a1 	stur	w1, [x29, #-12]
     910:	f81e03a2 	stur	x2, [x29, #-32]
     914:	b85f83a0 	ldur	w0, [x29, #-8]
     918:	f85d83a1 	ldur	x1, [x29, #-40]
     91c:	d292a211 	mov	x17, #0x9510                	// #38160
     920:	f2a031d1 	movk	x17, #0x18e, lsl #16
     924:	f2c00ab1 	movk	x17, #0x55, lsl #32
     928:	f2e00011 	movk	x17, #0x0, lsl #48
     92c:	d63f0220 	blr	x17
     930:	f81d03a0 	stur	x0, [x29, #-48]
     934:	f85d03a0 	ldur	x0, [x29, #-48]
     938:	b85f83a1 	ldur	w1, [x29, #-8]
     93c:	9400008d 	bl	0xb70
     940:	f81c83a0 	stur	x0, [x29, #-56]
     944:	f85e03a0 	ldur	x0, [x29, #-32]
     948:	f85c83a1 	ldur	x1, [x29, #-56]
     94c:	9400001d 	bl	0x9c0
     950:	f81e03a0 	stur	x0, [x29, #-32]
     954:	f85e03a0 	ldur	x0, [x29, #-32]
     958:	94000082 	bl	0xb60
     95c:	d4200880 	brk	#0x44
     960:	528000a1 	mov	w1, #0x5                   	// #5
     964:	72a00001 	movk	w1, #0x0, lsl #16
     968:	f81e83a0 	stur	x0, [x29, #-24]
     96c:	b81f83a1 	stur	w1, [x29, #-8]
     970:	b85f83a0 	ldur	w0, [x29, #-8]
     974:	d2905f91 	mov	x17, #0x82fc                	// #33532
     978:	f2a031b1 	movk	x17, #0x18d, lsl #16
     97c:	f2c00ab1 	movk	x17, #0x55, lsl #32
     980:	f2e00011 	movk	x17, #0x0, lsl #48
     984:	d63f0220 	blr	x17
     988:	52800001 	mov	w1, #0x0                   	// #0
     98c:	72a00001 	movk	w1, #0x0, lsl #16
     990:	d42009e0 	brk	#0x4f
     994:	52800061 	mov	w1, #0x3                   	// #3
     998:	72a00001 	movk	w1, #0x0, lsl #16
     99c:	52800002 	mov	w2, #0x0                   	// #0
     9a0:	72a00002 	movk	w2, #0x0, lsl #16
     9a4:	d42009e0 	brk	#0x4f
     9a8:	f81d03a0 	stur	x0, [x29, #-48]
     9ac:	b81f83a1 	stur	w1, [x29, #-8]
     9b0:	b81f43a2 	stur	w2, [x29, #-12]
     9b4:	d2853900 	mov	x0, #0x29c8                	// #10696
     9b8:	f2a000c0 	movk	x0, #0x6, lsl #16
     9bc:	f2c00aa0 	movk	x0, #0x55, lsl #32
     9c0:	f2e00000 	movk	x0, #0x0, lsl #48
     9c4:	d287fa11 	mov	x17, #0x3fd0                	// #16336
     9c8:	f2a031b1 	movk	x17, #0x18d, lsl #16
     9cc:	f2c00ab1 	movk	x17, #0x55, lsl #32
     9d0:	f2e00011 	movk	x17, #0x0, lsl #48
     9d4:	d63f0220 	blr	x17
     9d8:	b85fc3a1 	ldur	w1, [x29, #-4]
     9dc:	b811a020 	stur	w0, [x1, #-230]
     9e0:	528000e2 	mov	w2, #0x7                   	// #7
     9e4:	72a00002 	movk	w2, #0x0, lsl #16
     9e8:	b8010040 	stur	w0, [x2, #16]
     9ec:	910103ff 	add	sp, sp, #0x40
     9f0:	a8c17bfd 	ldp	x29, x30, [sp], #16
     9f4:	d65f03c0 	ret
     9f8:	528001a3 	mov	w3, #0xd                   	// #13
     9fc:	72a00003 	movk	w3, #0x0, lsl #16
     a00:	6b01007f 	cmp	w3, w1
     a04:	540007aa 	b.ge	0xaf8  // b.tcont
     a08:	52800102 	mov	w2, #0x8                   	// #8
     a0c:	72a00002 	movk	w2, #0x0, lsl #16
     a10:	f81e03a0 	stur	x0, [x29, #-32]
     a14:	b81fc3a1 	stur	w1, [x29, #-4]
     a18:	b81f83a2 	stur	w2, [x29, #-8]
     a1c:	b81f43a3 	stur	w3, [x29, #-12]
     a20:	b85f83a0 	ldur	w0, [x29, #-8]
     a24:	d2905f91 	mov	x17, #0x82fc                	// #33532
     a28:	f2a031b1 	movk	x17, #0x18d, lsl #16
     a2c:	f2c00ab1 	movk	x17, #0x55, lsl #32
     a30:	f2e00011 	movk	x17, #0x0, lsl #48
     a34:	d63f0220 	blr	x17
     a38:	52800121 	mov	w1, #0x9                   	// #9
     a3c:	72a00001 	movk	w1, #0x0, lsl #16
     a40:	d4200100 	brk	#0x8
     a44:	b85f83a2 	ldur	w2, [x29, #-8]
     a48:	b81fc3a2 	stur	w2, [x29, #-4]
     a4c:	52800002 	mov	w2, #0x0                   	// #0
     a50:	72a00002 	movk	w2, #0x0, lsl #16
     a54:	528000c3 	mov	w3, #0x6                   	// #6
     a58:	72a00003 	movk	w3, #0x0, lsl #16
     a5c:	d42001e0 	brk	#0xf
     a60:	52800143 	mov	w3, #0xa                   	// #10
     a64:	72a00003 	movk	w3, #0x0, lsl #16
     a68:	d42000e0 	brk	#0x7
     a6c:	d42009e0 	brk	#0x4f
     a70:	52800062 	mov	w2, #0x3                   	// #3
     a74:	72a00002 	movk	w2, #0x0, lsl #16
     a78:	528001c3 	mov	w3, #0xe                   	// #14
     a7c:	72a00003 	movk	w3, #0x0, lsl #16
     a80:	d4200220 	brk	#0x11
     a84:	528001e3 	mov	w3, #0xf                   	// #15
     a88:	72a00003 	movk	w3, #0x0, lsl #16
     a8c:	d42000e0 	brk	#0x7
     a90:	d42009e0 	brk	#0x4f
     a94:	528000a2 	mov	w2, #0x5                   	// #5
     a98:	72a00002 	movk	w2, #0x0, lsl #16
     a9c:	52800001 	mov	w1, #0x0                   	// #0
     aa0:	72a00001 	movk	w1, #0x0, lsl #16
     aa4:	d42009e0 	brk	#0x4f
     aa8:	f81d03a0 	stur	x0, [x29, #-48]
     aac:	b81f43a1 	stur	w1, [x29, #-12]
     ab0:	b81f83a2 	stur	w2, [x29, #-8]
     ab4:	b81c43a3 	stur	w3, [x29, #-60]
     ab8:	d2853900 	mov	x0, #0x29c8                	// #10696
     abc:	f2a000c0 	movk	x0, #0x6, lsl #16
     ac0:	f2c00aa0 	movk	x0, #0x55, lsl #32
     ac4:	f2e00000 	movk	x0, #0x0, lsl #48
     ac8:	d287fa11 	mov	x17, #0x3fd0                	// #16336
     acc:	f2a031b1 	movk	x17, #0x18d, lsl #16
     ad0:	f2c00ab1 	movk	x17, #0x55, lsl #32
     ad4:	f2e00011 	movk	x17, #0x0, lsl #48
     ad8:	d63f0220 	blr	x17
     adc:	b85fc3a1 	ldur	w1, [x29, #-4]
     ae0:	b811a020 	stur	w0, [x1, #-230]
     ae4:	52800062 	mov	w2, #0x3                   	// #3
     ae8:	72a00002 	movk	w2, #0x0, lsl #16
     aec:	b8010040 	stur	w0, [x2, #16]
     af0:	910103ff 	add	sp, sp, #0x40
     af4:	a8c17bfd 	ldp	x29, x30, [sp], #16
     af8:	d65f03c0 	ret
     afc:	d2958203 	mov	x3, #0xac10                	// #44048
     b00:	f2a000c3 	movk	x3, #0x6, lsl #16
     b04:	f2c00aa3 	movk	x3, #0x55, lsl #32
     b08:	f2e00003 	movk	x3, #0x0, lsl #48
     b0c:	f8400060 	ldur	x0, [x3]
     b10:	2a0103e2 	mov	w2, w1
     b14:	d4200ae0 	brk	#0x57
     b18:	f81e03a0 	stur	x0, [x29, #-32]
     b1c:	b81fc3a1 	stur	w1, [x29, #-4]
     b20:	b81f83a2 	stur	w2, [x29, #-8]
     b24:	b85f83a0 	ldur	w0, [x29, #-8]
     b28:	f85d83a1 	ldur	x1, [x29, #-40]
     b2c:	d292a211 	mov	x17, #0x9510                	// #38160
     b30:	f2a031d1 	movk	x17, #0x18e, lsl #16
     b34:	f2c00ab1 	movk	x17, #0x55, lsl #32
     b38:	f2e00011 	movk	x17, #0x0, lsl #48
     b3c:	d63f0220 	blr	x17
     b40:	f81d03a0 	stur	x0, [x29, #-48]
     b44:	f85d03a0 	ldur	x0, [x29, #-48]
     b48:	b85f83a1 	ldur	w1, [x29, #-8]
     b4c:	94000009 	bl	0xb70
     b50:	f81c83a0 	stur	x0, [x29, #-56]
     b54:	f85e03a0 	ldur	x0, [x29, #-32]
     b58:	f85c83a1 	ldur	x1, [x29, #-56]
     b5c:	94000099 	bl	0xdc0
     b60:	f81e03a0 	stur	x0, [x29, #-32]
     b64:	f85e03a0 	ldur	x0, [x29, #-32]
     b68:	940000fe 	bl	0xf60
     b6c:	d4200880 	brk	#0x44
     b70:	a9bf7bfd 	stp	x29, x30, [sp, #-16]!
     b74:	910003fd 	mov	x29, sp
     b78:	d10083ff 	sub	sp, sp, #0x20
     b7c:	f81f83a0 	stur	x0, [x29, #-8]
     b80:	b81f43a1 	stur	w1, [x29, #-12]
     b84:	d2853900 	mov	x0, #0x29c8                	// #10696
     b88:	f2a000c0 	movk	x0, #0x6, lsl #16
     b8c:	f2c00aa0 	movk	x0, #0x55, lsl #32
     b90:	f2e00000 	movk	x0, #0x0, lsl #48
     b94:	d287fa11 	mov	x17, #0x3fd0                	// #16336
     b98:	f2a031b1 	movk	x17, #0x18d, lsl #16
     b9c:	f2c00ab1 	movk	x17, #0x55, lsl #32
     ba0:	f2e00011 	movk	x17, #0x0, lsl #48
     ba4:	d63f0220 	blr	x17
     ba8:	f85f83a1 	ldur	x1, [x29, #-8]
     bac:	f8008020 	stur	x0, [x1, #8]
     bb0:	b85f43a2 	ldur	w2, [x29, #-12]
     bb4:	b8010040 	stur	w0, [x2, #16]
     bb8:	910083ff 	add	sp, sp, #0x20
     bbc:	a8c17bfd 	ldp	x29, x30, [sp], #16
     bc0:	d65f03c0 	ret
     bc4:	d503201f 	nop
     bc8:	d503201f 	nop
     bcc:	d503201f 	nop
     bd0:	a9bf7bfd 	stp	x29, x30, [sp, #-16]!
     bd4:	910003fd 	mov	x29, sp
     bd8:	d10083ff 	sub	sp, sp, #0x20
     bdc:	7100001f 	cmp	w0, #0x0
     be0:	54000381 	b.ne	0xc50  // b.any
     be4:	f81f83a0 	stur	x0, [x29, #-8]
     be8:	d298b091 	mov	x17, #0xc584                	// #50564
     bec:	f2a031b1 	movk	x17, #0x18d, lsl #16
     bf0:	f2c00ab1 	movk	x17, #0x55, lsl #32
     bf4:	f2e00011 	movk	x17, #0x0, lsl #48
     bf8:	d63f0220 	blr	x17
     bfc:	d4200540 	brk	#0x2a
     c00:	f85f03a0 	ldur	x0, [x29, #-16]
     c04:	7100001f 	cmp	w0, #0x0
     c08:	54000381 	b.ne	0xc78  // b.any
     c0c:	f81f03a0 	stur	x0, [x29, #-16]
     c10:	d298b091 	mov	x17, #0xc584                	// #50564
     c14:	f2a031b1 	movk	x17, #0x18d, lsl #16
     c18:	f2c00ab1 	movk	x17, #0x55, lsl #32
     c1c:	f2e00011 	movk	x17, #0x0, lsl #48
     c20:	d63f0220 	blr	x17
     c24:	d4200400 	brk	#0x20
     c28:	d13fc3e0 	sub	x0, sp, #0xff0
     c2c:	d2852901 	mov	x1, #0x2948                	// #10568
     c30:	f2a000c1 	movk	x1, #0x6, lsl #16
     c34:	f2c00aa1 	movk	x1, #0x55, lsl #32
     c38:	f2e00001 	movk	x1, #0x0, lsl #48
     c3c:	d2853902 	mov	x2, #0x29c8                	// #10696
     c40:	f2a000c2 	movk	x2, #0x6, lsl #16
     c44:	f2c00aa2 	movk	x2, #0x55, lsl #32
     c48:	f2e00002 	movk	x2, #0x0, lsl #48
     c4c:	d2942991 	mov	x17, #0xa14c                	// #41292
     c50:	f2a031b1 	movk	x17, #0x18d, lsl #16
     c54:	f2c00ab1 	movk	x17, #0x55, lsl #32
     c58:	f2e00011 	movk	x17, #0x0, lsl #48
     c5c:	d63f0220 	blr	x17
     c60:	f85e83a0 	ldur	x0, [x29, #-24]
     c64:	7100001f 	cmp	w0, #0x0
     c68:	54000381 	b.ne	0xcd8  // b.any
     c6c:	f81e83a0 	stur	x0, [x29, #-24]
     c70:	d298b091 	mov	x17, #0xc584                	// #50564
     c74:	f2a031b1 	movk	x17, #0x18d, lsl #16
     c78:	f2c00ab1 	movk	x17, #0x55, lsl #32
     c7c:	f2e00011 	movk	x17, #0x0, lsl #48
     c80:	d63f0220 	blr	x17
     c84:	f85e83a0 	ldur	x0, [x29, #-24]
     c88:	f8408001 	ldur	x1, [x0, #8]
     c8c:	910083ff 	add	sp, sp, #0x20
     c90:	a8c17bfd 	ldp	x29, x30, [sp], #16
     c94:	d65f03c0 	ret
     c98:	d503201f 	nop
     c9c:	d503201f 	nop
     ca0:	a9bf7bfd 	stp	x29, x30, [sp, #-16]!
     ca4:	910003fd 	mov	x29, sp
     ca8:	d10083ff 	sub	sp, sp, #0x20
     cac:	f81f83a0 	stur	x0, [x29, #-8]
     cb0:	d2853900 	mov	x0, #0x29c8                	// #10696
     cb4:	f2a000c0 	movk	x0, #0x6, lsl #16
     cb8:	f2c00aa0 	movk	x0, #0x55, lsl #32
     cbc:	f2e00000 	movk	x0, #0x0, lsl #48
     cc0:	d287fa11 	mov	x17, #0x3fd0                	// #16336
     cc4:	f2a031b1 	movk	x17, #0x18d, lsl #16
     cc8:	f2c00ab1 	movk	x17, #0x55, lsl #32
     ccc:	f2e00011 	movk	x17, #0x0, lsl #48
     cd0:	d63f0220 	blr	x17
     cd4:	f85f83a1 	ldur	x1, [x29, #-8]
     cd8:	f8008020 	stur	x0, [x1, #8]
     cdc:	52800002 	mov	w2, #0x0                   	// #0
     ce0:	72a00002 	movk	w2, #0x0, lsl #16
     ce4:	f81f03a0 	stur	x0, [x29, #-16]
     ce8:	f81f83a1 	stur	x1, [x29, #-8]
     cec:	b81ec3a2 	stur	w2, [x29, #-20]
     cf0:	f85f83a0 	ldur	x0, [x29, #-8]
     cf4:	b85ec3a1 	ldur	w1, [x29, #-20]
     cf8:	d292e811 	mov	x17, #0x9740                	// #38720
     cfc:	f2a031d1 	movk	x17, #0x18e, lsl #16
     d00:	f2c00ab1 	movk	x17, #0x55, lsl #32
     d04:	f2e00011 	movk	x17, #0x0, lsl #48
     d08:	d63f0220 	blr	x17
     d0c:	f85f03a1 	ldur	x1, [x29, #-16]
     d10:	f8002021 	stur	x1, [x1, #2]
     d14:	910083ff 	add	sp, sp, #0x20
     d18:	a8c17bfd 	ldp	x29, x30, [sp], #16
     d1c:	d65f03c0 	ret
     d20:	a9bf7bfd 	stp	x29, x30, [sp, #-16]!
     d24:	910003fd 	mov	x29, sp
     d28:	d10103ff 	sub	sp, sp, #0x40
     d2c:	52800001 	mov	w1, #0x0                   	// #0
     d30:	72a00001 	movk	w1, #0x0, lsl #16
     d34:	d4200ae0 	brk	#0x57
     d38:	52800002 	mov	w2, #0x0                   	// #0
     d3c:	72a00002 	movk	w2, #0x0, lsl #16
     d40:	f81f83a0 	stur	x0, [x29, #-8]
     d44:	b81f43a1 	stur	w1, [x29, #-12]
     d48:	b81dc3a2 	stur	w2, [x29, #-36]
     d4c:	f85f83a0 	ldur	x0, [x29, #-8]
     d50:	b85dc3a1 	ldur	w1, [x29, #-36]
     d54:	f85e83a2 	ldur	x2, [x29, #-24]
     d58:	d2936891 	mov	x17, #0x9b44                	// #39748
     d5c:	f2a031d1 	movk	x17, #0x18e, lsl #16
     d60:	f2c00ab1 	movk	x17, #0x55, lsl #32
     d64:	f2e00011 	movk	x17, #0x0, lsl #48
     d68:	d63f0220 	blr	x17
     d6c:	f81e03a0 	stur	x0, [x29, #-32]
     d70:	d2853900 	mov	x0, #0x29c8                	// #10696
     d74:	f2a000c0 	movk	x0, #0x6, lsl #16
     d78:	f2c00aa0 	movk	x0, #0x55, lsl #32
     d7c:	f2e00000 	movk	x0, #0x0, lsl #48
     d80:	d287fa11 	mov	x17, #0x3fd0                	// #16336
     d84:	f2a031b1 	movk	x17, #0x18d, lsl #16
     d88:	f2c00ab1 	movk	x17, #0x55, lsl #32
     d8c:	f2e00011 	movk	x17, #0x0, lsl #48
     d90:	d63f0220 	blr	x17
     d94:	f85f83a1 	ldur	x1, [x29, #-8]
     d98:	f8102020 	stur	x0, [x1, #-254]
     d9c:	528000e2 	mov	w2, #0x7                   	// #7
     da0:	72a00002 	movk	w2, #0x0, lsl #16
     da4:	d42001e0 	brk	#0xf
     da8:	b85f43a3 	ldur	w3, [x29, #-12]
     dac:	b811a060 	stur	w0, [x3, #-230]
     db0:	910103ff 	add	sp, sp, #0x40
     db4:	a8c17bfd 	ldp	x29, x30, [sp], #16
     db8:	d65f03c0 	ret
     dbc:	d503201f 	nop
     dc0:	a9bf7bfd 	stp	x29, x30, [sp, #-16]!
     dc4:	910003fd 	mov	x29, sp
     dc8:	d10103ff 	sub	sp, sp, #0x40
     dcc:	7100001f 	cmp	w0, #0x0
     dd0:	540000c1 	b.ne	0xde8  // b.any
     dd4:	d2958303 	mov	x3, #0xac18                	// #44056
     dd8:	f2a000c3 	movk	x3, #0x6, lsl #16
     ddc:	f2c00aa3 	movk	x3, #0x55, lsl #32
     de0:	f2e00003 	movk	x3, #0x0, lsl #48
     de4:	f8400062 	ldur	x2, [x3]
     de8:	aa0203e0 	mov	x0, x2
     dec:	7100003f 	cmp	w1, #0x0
     df0:	540000c1 	b.ne	0xe08  // b.any
     df4:	d2958303 	mov	x3, #0xac18                	// #44056
     df8:	f2a000c3 	movk	x3, #0x6, lsl #16
     dfc:	f2c00aa3 	movk	x3, #0x55, lsl #32
     e00:	f2e00003 	movk	x3, #0x0, lsl #48
     e04:	f8400062 	ldur	x2, [x3]
     e08:	aa0203e1 	mov	x1, x2
     e0c:	7100001f 	cmp	w0, #0x0
     e10:	54000481 	b.ne	0xea0  // b.any
     e14:	f81f83a0 	stur	x0, [x29, #-8]
     e18:	f81f03a1 	stur	x1, [x29, #-16]
     e1c:	f81e83a2 	stur	x2, [x29, #-24]
     e20:	d298b091 	mov	x17, #0xc584                	// #50564
     e24:	f2a031b1 	movk	x17, #0x18d, lsl #16
     e28:	f2c00ab1 	movk	x17, #0x55, lsl #32
     e2c:	f2e00011 	movk	x17, #0x0, lsl #48
     e30:	d63f0220 	blr	x17
     e34:	f85f83a0 	ldur	x0, [x29, #-8]
     e38:	f8410001 	ldur	x1, [x0, #16]
     e3c:	528000e2 	mov	w2, #0x7                   	// #7
     e40:	72a00002 	movk	w2, #0x0, lsl #16
     e44:	d42001c0 	brk	#0xe
     e48:	f85f03a3 	ldur	x3, [x29, #-16]
     e4c:	7100007f 	cmp	w3, #0x0
     e50:	54000501 	b.ne	0xef0  // b.any
     e54:	f81f83a0 	stur	x0, [x29, #-8]
     e58:	b81e43a1 	stur	w1, [x29, #-28]
     e5c:	b81e03a2 	stur	w2, [x29, #-32]
     e60:	f81f03a3 	stur	x3, [x29, #-16]
     e64:	d298b091 	mov	x17, #0xc584                	// #50564
     e68:	f2a031b1 	movk	x17, #0x18d, lsl #16
     e6c:	f2c00ab1 	movk	x17, #0x55, lsl #32
     e70:	f2e00011 	movk	x17, #0x0, lsl #48
     e74:	d63f0220 	blr	x17
     e78:	f85f03a0 	ldur	x0, [x29, #-16]
     e7c:	f8410001 	ldur	x1, [x0, #16]
     e80:	528000e2 	mov	w2, #0x7                   	// #7
     e84:	72a00002 	movk	w2, #0x0, lsl #16
     e88:	d42001c0 	brk	#0xe
     e8c:	d42000e0 	brk	#0x7
     e90:	52800063 	mov	w3, #0x3                   	// #3
     e94:	72a00003 	movk	w3, #0x0, lsl #16
     e98:	d42000e0 	brk	#0x7
     e9c:	f81f03a0 	stur	x0, [x29, #-16]
     ea0:	b81e03a1 	stur	w1, [x29, #-32]
     ea4:	b81dc3a2 	stur	w2, [x29, #-36]
     ea8:	b81cc3a3 	stur	w3, [x29, #-52]
     eac:	b85d83a0 	ldur	w0, [x29, #-40]
     eb0:	d2905f91 	mov	x17, #0x82fc                	// #33532
     eb4:	f2a031b1 	movk	x17, #0x18d, lsl #16
     eb8:	f2c00ab1 	movk	x17, #0x55, lsl #32
     ebc:	f2e00011 	movk	x17, #0x0, lsl #48
     ec0:	d63f0220 	blr	x17
     ec4:	52800001 	mov	w1, #0x0                   	// #0
     ec8:	72a00001 	movk	w1, #0x0, lsl #16
     ecc:	f85f83a2 	ldur	x2, [x29, #-8]
     ed0:	f8408043 	ldur	x3, [x2, #8]
     ed4:	52800004 	mov	w4, #0x0                   	// #0
     ed8:	72a00004 	movk	w4, #0x0, lsl #16
     edc:	f81d03a0 	stur	x0, [x29, #-48]
     ee0:	b81d83a1 	stur	w1, [x29, #-40]
     ee4:	f81f83a2 	stur	x2, [x29, #-8]
     ee8:	f81c03a3 	stur	x3, [x29, #-64]
     eec:	b81cc3a4 	stur	w4, [x29, #-52]
     ef0:	f85d03a0 	ldur	x0, [x29, #-48]
     ef4:	b85d83a1 	ldur	w1, [x29, #-40]
     ef8:	f85c03a2 	ldur	x2, [x29, #-64]
     efc:	b85cc3a3 	ldur	w3, [x29, #-52]
     f00:	b85e43a4 	ldur	w4, [x29, #-28]
     f04:	d2906d91 	mov	x17, #0x836c                	// #33644
     f08:	f2a031b1 	movk	x17, #0x18d, lsl #16
     f0c:	f2c00ab1 	movk	x17, #0x55, lsl #32
     f10:	f2e00011 	movk	x17, #0x0, lsl #48
     f14:	d63f0220 	blr	x17
     f18:	f85f03a0 	ldur	x0, [x29, #-16]
     f1c:	f8408001 	ldur	x1, [x0, #8]
     f20:	52800002 	mov	w2, #0x0                   	// #0
     f24:	72a00002 	movk	w2, #0x0, lsl #16
     f28:	f81f03a0 	stur	x0, [x29, #-16]
     f2c:	f81c03a1 	stur	x1, [x29, #-64]
     f30:	b81cc3a2 	stur	w2, [x29, #-52]
     f34:	f85d03a0 	ldur	x0, [x29, #-48]
     f38:	b85e43a1 	ldur	w1, [x29, #-28]
     f3c:	f85c03a2 	ldur	x2, [x29, #-64]
     f40:	b85cc3a3 	ldur	w3, [x29, #-52]
     f44:	b85e03a4 	ldur	w4, [x29, #-32]
     f48:	d2906d91 	mov	x17, #0x836c                	// #33644
     f4c:	f2a031b1 	movk	x17, #0x18d, lsl #16
     f50:	f2c00ab1 	movk	x17, #0x55, lsl #32
     f54:	f2e00011 	movk	x17, #0x0, lsl #48
     f58:	d63f0220 	blr	x17
     f5c:	52800000 	mov	w0, #0x0                   	// #0
     f60:	72a00000 	movk	w0, #0x0, lsl #16
     f64:	d42009e0 	brk	#0x4f
     f68:	b81cc3a0 	stur	w0, [x29, #-52]
     f6c:	d2853900 	mov	x0, #0x29c8                	// #10696
     f70:	f2a000c0 	movk	x0, #0x6, lsl #16
     f74:	f2c00aa0 	movk	x0, #0x55, lsl #32
     f78:	f2e00000 	movk	x0, #0x0, lsl #48
     f7c:	d287fa11 	mov	x17, #0x3fd0                	// #16336
     f80:	f2a031b1 	movk	x17, #0x18d, lsl #16
     f84:	f2c00ab1 	movk	x17, #0x55, lsl #32
     f88:	f2e00011 	movk	x17, #0x0, lsl #48
     f8c:	d63f0220 	blr	x17
     f90:	f85f83a1 	ldur	x1, [x29, #-8]
     f94:	f8147020 	stur	x0, [x1, #-185]
     f98:	528000e2 	mov	w2, #0x7                   	// #7
     f9c:	72a00002 	movk	w2, #0x0, lsl #16
     fa0:	d42001e0 	brk	#0xf
     fa4:	f85f03a3 	ldur	x3, [x29, #-16]
     fa8:	f8002060 	stur	x0, [x3, #2]
     fac:	910103ff 	add	sp, sp, #0x40
     fb0:	a8c17bfd 	ldp	x29, x30, [sp], #16
     fb4:	d65f03c0 	ret
     fb8:	d503201f 	nop
     fbc:	d503201f 	nop
     fc0:	a9bf7bfd 	stp	x29, x30, [sp, #-16]!
     fc4:	910003fd 	mov	x29, sp
     fc8:	d10083ff 	sub	sp, sp, #0x20
     fcc:	7100003f 	cmp	w1, #0x0
     fd0:	54000401 	b.ne	0x1050  // b.any
     fd4:	f81f83a0 	stur	x0, [x29, #-8]
     fd8:	f81f03a1 	stur	x1, [x29, #-16]
     fdc:	d298b091 	mov	x17, #0xc584                	// #50564
     fe0:	f2a031b1 	movk	x17, #0x18d, lsl #16
     fe4:	f2c00ab1 	movk	x17, #0x55, lsl #32
     fe8:	f2e00011 	movk	x17, #0x0, lsl #48
     fec:	d63f0220 	blr	x17
     ff0:	f85f03a0 	ldur	x0, [x29, #-16]
     ff4:	f8408001 	ldur	x1, [x0, #8]
     ff8:	d4200520 	brk	#0x29
     ffc:	f8410002 	ldur	x2, [x0, #16]
    1000:	d4200520 	brk	#0x29
    1004:	910083ff 	add	sp, sp, #0x20
    1008:	a8c17bfd 	ldp	x29, x30, [sp], #16
    100c:	d65f03c0 	ret
    1010:	a9bf7bfd 	stp	x29, x30, [sp, #-16]!
    1014:	910003fd 	mov	x29, sp
    1018:	d10083ff 	sub	sp, sp, #0x20
    101c:	d4200500 	brk	#0x28
    1020:	52800001 	mov	w1, #0x0                   	// #0
    1024:	72a00001 	movk	w1, #0x0, lsl #16
    1028:	d4200500 	brk	#0x28
    102c:	f81f83a0 	stur	x0, [x29, #-8]
    1030:	b81ec3a1 	stur	w1, [x29, #-20]
    1034:	f85f03a0 	ldur	x0, [x29, #-16]
    1038:	b85ec3a1 	ldur	w1, [x29, #-20]
    103c:	b85e83a2 	ldur	w2, [x29, #-24]
    1040:	d2937a11 	mov	x17, #0x9bd0                	// #39888
    1044:	f2a031d1 	movk	x17, #0x18e, lsl #16
    1048:	f2c00ab1 	movk	x17, #0x55, lsl #32
    104c:	f2e00011 	movk	x17, #0x0, lsl #48
    1050:	d63f0220 	blr	x17
    1054:	d4200500 	brk	#0x28
    1058:	f81f03a0 	stur	x0, [x29, #-16]
    105c:	d2853900 	mov	x0, #0x29c8                	// #10696
    1060:	f2a000c0 	movk	x0, #0x6, lsl #16
    1064:	f2c00aa0 	movk	x0, #0x55, lsl #32
    1068:	f2e00000 	movk	x0, #0x0, lsl #48
    106c:	d287fa11 	mov	x17, #0x3fd0                	// #16336
    1070:	f2a031b1 	movk	x17, #0x18d, lsl #16
    1074:	f2c00ab1 	movk	x17, #0x55, lsl #32
    1078:	f2e00011 	movk	x17, #0x0, lsl #48
    107c:	d63f0220 	blr	x17
    1080:	f85f83a1 	ldur	x1, [x29, #-8]
    1084:	f8010020 	stur	x0, [x1, #16]
    1088:	f85f03a2 	ldur	x2, [x29, #-16]
    108c:	f8002040 	stur	x0, [x2, #2]
    1090:	910083ff 	add	sp, sp, #0x20
    1094:	a8c17bfd 	ldp	x29, x30, [sp], #16
    1098:	d65f03c0 	ret
    109c:	d503201f 	nop
    10a0:	a9bf7bfd 	stp	x29, x30, [sp, #-16]!
    10a4:	910003fd 	mov	x29, sp
    10a8:	d10083ff 	sub	sp, sp, #0x20
    10ac:	d4200500 	brk	#0x28
    10b0:	52800001 	mov	w1, #0x0                   	// #0
    10b4:	72a00001 	movk	w1, #0x0, lsl #16
    10b8:	d4200500 	brk	#0x28
    10bc:	f81f83a0 	stur	x0, [x29, #-8]
    10c0:	b81ec3a1 	stur	w1, [x29, #-20]
    10c4:	f85f03a0 	ldur	x0, [x29, #-16]
    10c8:	b85ec3a1 	ldur	w1, [x29, #-20]
    10cc:	b85e83a2 	ldur	w2, [x29, #-24]
    10d0:	d2939e11 	mov	x17, #0x9cf0                	// #40176
    10d4:	f2a031d1 	movk	x17, #0x18e, lsl #16
    10d8:	f2c00ab1 	movk	x17, #0x55, lsl #32
    10dc:	f2e00011 	movk	x17, #0x0, lsl #48
    10e0:	d63f0220 	blr	x17
    10e4:	d4200500 	brk	#0x28
    10e8:	f81f03a0 	stur	x0, [x29, #-16]
    10ec:	d2853900 	mov	x0, #0x29c8                	// #10696
    10f0:	f2a000c0 	movk	x0, #0x6, lsl #16
    10f4:	f2c00aa0 	movk	x0, #0x55, lsl #32
    10f8:	f2e00000 	movk	x0, #0x0, lsl #48
    10fc:	d287fa11 	mov	x17, #0x3fd0                	// #16336
    1100:	f2a031b1 	movk	x17, #0x18d, lsl #16
    1104:	f2c00ab1 	movk	x17, #0x55, lsl #32
    1108:	f2e00011 	movk	x17, #0x0, lsl #48
    110c:	d63f0220 	blr	x17
    1110:	f85f83a1 	ldur	x1, [x29, #-8]
    1114:	f8010020 	stur	x0, [x1, #16]
    1118:	f85f03a2 	ldur	x2, [x29, #-16]
    111c:	f8002040 	stur	x0, [x2, #2]
    1120:	910083ff 	add	sp, sp, #0x20
    1124:	a8c17bfd 	ldp	x29, x30, [sp], #16
    1128:	d65f03c0 	ret
    112c:	d503201f 	nop
    1130:	a9bf7bfd 	stp	x29, x30, [sp, #-16]!
    1134:	910003fd 	mov	x29, sp
    1138:	d100c3ff 	sub	sp, sp, #0x30
    113c:	d4200500 	brk	#0x28
    1140:	b85ec3a2 	ldur	w2, [x29, #-20]
    1144:	6b01005f 	cmp	w2, w1
    1148:	54000103 	b.cc	0x1168  // b.lo, b.ul, b.last
    114c:	d2958404 	mov	x4, #0xac20                	// #44064
    1150:	f2a000c4 	movk	x4, #0x6, lsl #16
    1154:	f2c00aa4 	movk	x4, #0x55, lsl #32
    1158:	f2e00004 	movk	x4, #0x0, lsl #48
    115c:	f8400083 	ldur	x3, [x4]
    1160:	9100c3ff 	add	sp, sp, #0x30
    1164:	a8c17bfd 	ldp	x29, x30, [sp], #16
    1168:	d65f03c0 	ret
    116c:	528000a4 	mov	w4, #0x5                   	// #5
    1170:	72a00004 	movk	w4, #0x0, lsl #16
    1174:	f81f83a0 	stur	x0, [x29, #-8]
    1178:	b81f43a1 	stur	w1, [x29, #-12]
    117c:	b81ec3a2 	stur	w2, [x29, #-20]
    1180:	f81e03a3 	stur	x3, [x29, #-32]
    1184:	b81f03a4 	stur	w4, [x29, #-16]
    1188:	b85f03a0 	ldur	w0, [x29, #-16]
    118c:	d2905f91 	mov	x17, #0x82fc                	// #33532
    1190:	f2a031b1 	movk	x17, #0x18d, lsl #16
    1194:	f2c00ab1 	movk	x17, #0x55, lsl #32
    1198:	f2e00011 	movk	x17, #0x0, lsl #48
    119c:	d63f0220 	blr	x17
    11a0:	d4200500 	brk	#0x28
    11a4:	528000e1 	mov	w1, #0x7                   	// #7
    11a8:	72a00001 	movk	w1, #0x0, lsl #16
    11ac:	d42001c0 	brk	#0xe
    11b0:	d4200960 	brk	#0x4b
    11b4:	52800001 	mov	w1, #0x0                   	// #0
    11b8:	72a00001 	movk	w1, #0x0, lsl #16
    11bc:	d42009e0 	brk	#0x4f
    11c0:	52800062 	mov	w2, #0x3                   	// #3
    11c4:	72a00002 	movk	w2, #0x0, lsl #16
    11c8:	52800001 	mov	w1, #0x0                   	// #0
    11cc:	72a00001 	movk	w1, #0x0, lsl #16
    11d0:	d42009e0 	brk	#0x4f
    11d4:	f81d83a0 	stur	x0, [x29, #-40]
    11d8:	b81ec3a1 	stur	w1, [x29, #-20]
    11dc:	b81f03a2 	stur	w2, [x29, #-16]
    11e0:	d2853900 	mov	x0, #0x29c8                	// #10696
    11e4:	f2a000c0 	movk	x0, #0x6, lsl #16
    11e8:	f2c00aa0 	movk	x0, #0x55, lsl #32
    11ec:	f2e00000 	movk	x0, #0x0, lsl #48
    11f0:	d287fa11 	mov	x17, #0x3fd0                	// #16336
    11f4:	f2a031b1 	movk	x17, #0x18d, lsl #16
    11f8:	f2c00ab1 	movk	x17, #0x55, lsl #32
    11fc:	f2e00011 	movk	x17, #0x0, lsl #48
    1200:	d63f0220 	blr	x17
    1204:	f85f83a1 	ldur	x1, [x29, #-8]
    1208:	f8002020 	stur	x0, [x1, #2]
    120c:	528000e2 	mov	w2, #0x7                   	// #7
    1210:	72a00002 	movk	w2, #0x0, lsl #16
    1214:	b85f43a3 	ldur	w3, [x29, #-12]
    1218:	b8002060 	stur	w0, [x3, #2]
    121c:	9100c3ff 	add	sp, sp, #0x30
    1220:	a8c17bfd 	ldp	x29, x30, [sp], #16
    1224:	d65f03c0 	ret
    1228:	d503201f 	nop
    122c:	d503201f 	nop
    1230:	a9bf7bfd 	stp	x29, x30, [sp, #-16]!
    1234:	910003fd 	mov	x29, sp
    1238:	d100c3ff 	sub	sp, sp, #0x30
    123c:	d4200500 	brk	#0x28
    1240:	b85ec3a2 	ldur	w2, [x29, #-20]
    1244:	6b01005f 	cmp	w2, w1
    1248:	54000083 	b.cc	0x1258  // b.lo, b.ul, b.last
    124c:	aa1f03e3 	mov	x3, xzr
    1250:	9100c3ff 	add	sp, sp, #0x30
    1254:	a8c17bfd 	ldp	x29, x30, [sp], #16
    1258:	d65f03c0 	ret
    125c:	d4200500 	brk	#0x28
    1260:	528000e2 	mov	w2, #0x7                   	// #7
    1264:	72a00002 	movk	w2, #0x0, lsl #16
    1268:	d42001c0 	brk	#0xe
    126c:	d4200960 	brk	#0x4b
    1270:	d4200760 	brk	#0x3b
    1274:	9100c3ff 	add	sp, sp, #0x30
    1278:	a8c17bfd 	ldp	x29, x30, [sp], #16
    127c:	d65f03c0 	ret
    1280:	a9bf7bfd 	stp	x29, x30, [sp, #-16]!
    1284:	910003fd 	mov	x29, sp
    1288:	d10103ff 	sub	sp, sp, #0x40
    128c:	52800005 	mov	w5, #0x0                   	// #0
    1290:	72a00005 	movk	w5, #0x0, lsl #16
    1294:	110007e6 	add	w6, wsp, #0x1
    1298:	710000df 	cmp	w6, #0x0
    129c:	54000520 	b.eq	0x1340  // b.none
    12a0:	d4200500 	brk	#0x28
    12a4:	d4200100 	brk	#0x8
    12a8:	52800007 	mov	w7, #0x0                   	// #0
    12ac:	72a00007 	movk	w7, #0x0, lsl #16
    12b0:	f81f83a0 	stur	x0, [x29, #-8]
    12b4:	b81f43a1 	stur	w1, [x29, #-12]
    12b8:	b81f03a2 	stur	w2, [x29, #-16]
    12bc:	f81e83a3 	stur	x3, [x29, #-24]
    12c0:	b81e43a4 	stur	w4, [x29, #-28]
    12c4:	b81e03a5 	stur	w5, [x29, #-32]
    12c8:	381df3a6 	sturb	w6, [x29, #-33]
    12cc:	b81c83a7 	stur	w7, [x29, #-56]
    12d0:	f85d03a0 	ldur	x0, [x29, #-48]
    12d4:	b85f43a1 	ldur	w1, [x29, #-12]
    12d8:	b85cc3a2 	ldur	w2, [x29, #-52]
    12dc:	f85e83a3 	ldur	x3, [x29, #-24]
    12e0:	b85c83a4 	ldur	w4, [x29, #-56]
    12e4:	b85e43a5 	ldur	w5, [x29, #-28]
    12e8:	d2909391 	mov	x17, #0x849c                	// #33948
    12ec:	f2a031b1 	movk	x17, #0x18d, lsl #16
    12f0:	f2c00ab1 	movk	x17, #0x55, lsl #32
    12f4:	f2e00011 	movk	x17, #0x0, lsl #48
    12f8:	d63f0220 	blr	x17
    12fc:	b81e03a0 	stur	w0, [x29, #-32]
    1300:	52800001 	mov	w1, #0x0                   	// #0
    1304:	72a00001 	movk	w1, #0x0, lsl #16
    1308:	6b00003f 	cmp	w1, w0
    130c:	540000eb 	b.lt	0x1328  // b.tstop
    1310:	528000e1 	mov	w1, #0x7                   	// #7
    1314:	72a00001 	movk	w1, #0x0, lsl #16
    1318:	d4200220 	brk	#0x11
    131c:	52800001 	mov	w1, #0x0                   	// #0
    1320:	72a00001 	movk	w1, #0x0, lsl #16
    1324:	6b00003f 	cmp	w1, w0
    1328:	54000021 	b.ne	0x132c  // b.any
    132c:	14000005 	b	0x1340
    1330:	528000e1 	mov	w1, #0x7                   	// #7
    1334:	72a00001 	movk	w1, #0x0, lsl #16
    1338:	d42000e0 	brk	#0x7
    133c:	b81f43a0 	stur	w0, [x29, #-12]
    1340:	17ffffd4 	b	0x1290
    1344:	910103ff 	add	sp, sp, #0x40
    1348:	a8c17bfd 	ldp	x29, x30, [sp], #16
    134c:	d65f03c0 	ret
    1350:	a9bf7bfd 	stp	x29, x30, [sp, #-16]!
    1354:	910003fd 	mov	x29, sp
    1358:	d10183ff 	sub	sp, sp, #0x60
    135c:	52800003 	mov	w3, #0x0                   	// #0
    1360:	72a00003 	movk	w3, #0x0, lsl #16
    1364:	7100005f 	cmp	w2, #0x0
    1368:	54000a80 	b.eq	0x14b8  // b.none
    136c:	f81f83a0 	stur	x0, [x29, #-8]
    1370:	f81f03a1 	stur	x1, [x29, #-16]
    1374:	f81e83a2 	stur	x2, [x29, #-24]
    1378:	b81e43a3 	stur	w3, [x29, #-28]
    137c:	d13fa3e0 	sub	x0, sp, #0xfe8
    1380:	d2876101 	mov	x1, #0x3b08                	// #15112
    1384:	f2a000c1 	movk	x1, #0x6, lsl #16
    1388:	f2c00aa1 	movk	x1, #0x55, lsl #32
    138c:	f2e00001 	movk	x1, #0x0, lsl #48
    1390:	d2851102 	mov	x2, #0x2888                	// #10376
    1394:	f2a000c2 	movk	x2, #0x6, lsl #16
    1398:	f2c00aa2 	movk	x2, #0x55, lsl #32
    139c:	f2e00002 	movk	x2, #0x0, lsl #48
    13a0:	d293ee91 	mov	x17, #0x9f74                	// #40820
    13a4:	f2a031b1 	movk	x17, #0x18d, lsl #16
    13a8:	f2c00ab1 	movk	x17, #0x55, lsl #32
    13ac:	f2e00011 	movk	x17, #0x0, lsl #48
    13b0:	d63f0220 	blr	x17
    13b4:	52800000 	mov	w0, #0x0                   	// #0
    13b8:	72a00000 	movk	w0, #0x0, lsl #16
    13bc:	b85e03a1 	ldur	w1, [x29, #-32]
    13c0:	6b00003f 	cmp	w1, w0
    13c4:	540007aa 	b.ge	0x14b8  // b.tcont
    13c8:	b81dc3a0 	stur	w0, [x29, #-36]
    13cc:	b81e03a1 	stur	w1, [x29, #-32]
    13d0:	d13fa3e0 	sub	x0, sp, #0xfe8
    13d4:	d2876101 	mov	x1, #0x3b08                	// #15112
    13d8:	f2a000c1 	movk	x1, #0x6, lsl #16
    13dc:	f2c00aa1 	movk	x1, #0x55, lsl #32
    13e0:	f2e00001 	movk	x1, #0x0, lsl #48
    13e4:	d2851102 	mov	x2, #0x2888                	// #10376
    13e8:	f2a000c2 	movk	x2, #0x6, lsl #16
    13ec:	f2c00aa2 	movk	x2, #0x55, lsl #32
    13f0:	f2e00002 	movk	x2, #0x0, lsl #48
    13f4:	d293ee91 	mov	x17, #0x9f74                	// #40820
    13f8:	f2a031b1 	movk	x17, #0x18d, lsl #16
    13fc:	f2c00ab1 	movk	x17, #0x55, lsl #32
    1400:	f2e00011 	movk	x17, #0x0, lsl #48
    1404:	d63f0220 	blr	x17
    1408:	d4200500 	brk	#0x28
    140c:	b85e03a0 	ldur	w0, [x29, #-32]
    1410:	b85dc3a1 	ldur	w1, [x29, #-36]
    1414:	6b00003f 	cmp	w1, w0
    1418:	5400022b 	b.lt	0x145c  // b.tstop
    141c:	d2958403 	mov	x3, #0xac20                	// #44064
    1420:	f2a000c3 	movk	x3, #0x6, lsl #16
    1424:	f2c00aa3 	movk	x3, #0x55, lsl #32
    1428:	f2e00003 	movk	x3, #0x0, lsl #48
    142c:	f8400062 	ldur	x2, [x3]
    1430:	f85f03a3 	ldur	x3, [x29, #-16]
    1434:	6b03005f 	cmp	w2, w3
    1438:	54000081 	b.ne	0x1448  // b.any
    143c:	d4200500 	brk	#0x28
    1440:	910183ff 	add	sp, sp, #0x60
    1444:	a8c17bfd 	ldp	x29, x30, [sp], #16
    1448:	d65f03c0 	ret
    144c:	52800200 	mov	w0, #0x10                  	// #16
    1450:	72a00000 	movk	w0, #0x0, lsl #16
    1454:	910183ff 	add	sp, sp, #0x60
    1458:	a8c17bfd 	ldp	x29, x30, [sp], #16
    145c:	d65f03c0 	ret
    1460:	b81e03a0 	stur	w0, [x29, #-32]
    1464:	b81dc3a1 	stur	w1, [x29, #-36]
    1468:	f81d03a2 	stur	x2, [x29, #-48]
    146c:	f81f03a3 	stur	x3, [x29, #-16]
    1470:	d13fa3e0 	sub	x0, sp, #0xfe8
    1474:	d2876101 	mov	x1, #0x3b08                	// #15112
    1478:	f2a000c1 	movk	x1, #0x6, lsl #16
    147c:	f2c00aa1 	movk	x1, #0x55, lsl #32
    1480:	f2e00001 	movk	x1, #0x0, lsl #48
    1484:	d2851102 	mov	x2, #0x2888                	// #10376
    1488:	f2a000c2 	movk	x2, #0x6, lsl #16
    148c:	f2c00aa2 	movk	x2, #0x55, lsl #32
    1490:	f2e00002 	movk	x2, #0x0, lsl #48
    1494:	d293ee91 	mov	x17, #0x9f74                	// #40820
    1498:	f2a031b1 	movk	x17, #0x18d, lsl #16
    149c:	f2c00ab1 	movk	x17, #0x55, lsl #32
    14a0:	f2e00011 	movk	x17, #0x0, lsl #48
    14a4:	d63f0220 	blr	x17
    14a8:	528000e0 	mov	w0, #0x7                   	// #7
    14ac:	72a00000 	movk	w0, #0x0, lsl #16
    14b0:	d42001c0 	brk	#0xe
    14b4:	b85e03a1 	ldur	w1, [x29, #-32]
    14b8:	b81e43a1 	stur	w1, [x29, #-28]
    14bc:	b85e43a2 	ldur	w2, [x29, #-28]
    14c0:	2a0203e1 	mov	w1, w2
    14c4:	d4200500 	brk	#0x28
    14c8:	528000e3 	mov	w3, #0x7                   	// #7
    14cc:	72a00003 	movk	w3, #0x0, lsl #16
    14d0:	d42001c0 	brk	#0xe
    14d4:	f85f03a4 	ldur	x4, [x29, #-16]
    14d8:	7100009f 	cmp	w4, #0x0
    14dc:	54000581 	b.ne	0x158c  // b.any
    14e0:	b81dc3a0 	stur	w0, [x29, #-36]
    14e4:	b81e03a1 	stur	w1, [x29, #-32]
    14e8:	b81e43a2 	stur	w2, [x29, #-28]
    14ec:	b81cc3a3 	stur	w3, [x29, #-52]
    14f0:	f81f03a4 	stur	x4, [x29, #-16]
    14f4:	d298b091 	mov	x17, #0xc584                	// #50564
    14f8:	f2a031b1 	movk	x17, #0x18d, lsl #16
    14fc:	f2c00ab1 	movk	x17, #0x55, lsl #32
    1500:	f2e00011 	movk	x17, #0x0, lsl #48
    1504:	d63f0220 	blr	x17
    1508:	f85f03a0 	ldur	x0, [x29, #-16]
    150c:	f8408001 	ldur	x1, [x0, #8]
    1510:	f8410002 	ldur	x2, [x0, #16]
    1514:	528000e3 	mov	w3, #0x7                   	// #7
    1518:	72a00003 	movk	w3, #0x0, lsl #16
    151c:	d42001c0 	brk	#0xe
    1520:	52800003 	mov	w3, #0x0                   	// #0
    1524:	72a00003 	movk	w3, #0x0, lsl #16
    1528:	110007e4 	add	w4, wsp, #0x1
    152c:	7100009f 	cmp	w4, #0x0
    1530:	540004e0 	b.eq	0x15cc  // b.none
    1534:	d4200500 	brk	#0x28
    1538:	d4200100 	brk	#0x8
    153c:	52800005 	mov	w5, #0x0                   	// #0
    1540:	72a00005 	movk	w5, #0x0, lsl #16
    1544:	f81f03a0 	stur	x0, [x29, #-16]
    1548:	f81c03a1 	stur	x1, [x29, #-64]
    154c:	b81cc3a2 	stur	w2, [x29, #-52]
    1550:	b81bc3a3 	stur	w3, [x29, #-68]
    1554:	381bb3a4 	sturb	w4, [x29, #-69]
    1558:	b81a03a5 	stur	w5, [x29, #-96]
    155c:	f85a83a0 	ldur	x0, [x29, #-88]
    1560:	b85e03a1 	ldur	w1, [x29, #-32]
    1564:	b85a43a2 	ldur	w2, [x29, #-92]
    1568:	f85c03a3 	ldur	x3, [x29, #-64]
    156c:	b85a03a4 	ldur	w4, [x29, #-96]
    1570:	b85cc3a5 	ldur	w5, [x29, #-52]
    1574:	d2909391 	mov	x17, #0x849c                	// #33948
    1578:	f2a031b1 	movk	x17, #0x18d, lsl #16
    157c:	f2c00ab1 	movk	x17, #0x55, lsl #32
    1580:	f2e00011 	movk	x17, #0x0, lsl #48
    1584:	d63f0220 	blr	x17
    1588:	b81bc3a0 	stur	w0, [x29, #-68]
    158c:	52800001 	mov	w1, #0x0                   	// #0
    1590:	72a00001 	movk	w1, #0x0, lsl #16
    1594:	6b00003f 	cmp	w1, w0
    1598:	540000eb 	b.lt	0x15b4  // b.tstop
    159c:	528000e1 	mov	w1, #0x7                   	// #7
    15a0:	72a00001 	movk	w1, #0x0, lsl #16
    15a4:	d4200220 	brk	#0x11
    15a8:	52800001 	mov	w1, #0x0                   	// #0
    15ac:	72a00001 	movk	w1, #0x0, lsl #16
    15b0:	6b00003f 	cmp	w1, w0
    15b4:	54000021 	b.ne	0x15b8  // b.any
    15b8:	14000005 	b	0x15cc
    15bc:	528000e1 	mov	w1, #0x7                   	// #7
    15c0:	72a00001 	movk	w1, #0x0, lsl #16
    15c4:	d42000e0 	brk	#0x7
    15c8:	b81e03a0 	stur	w0, [x29, #-32]
    15cc:	17ffffd6 	b	0x1524
    15d0:	b85bc3a2 	ldur	w2, [x29, #-68]
    15d4:	2a0203e0 	mov	w0, w2
    15d8:	52800003 	mov	w3, #0x0                   	// #0
    15dc:	72a00003 	movk	w3, #0x0, lsl #16
    15e0:	6b03005f 	cmp	w2, w3
    15e4:	5400008a 	b.ge	0x15f4  // b.tcont
    15e8:	528000e3 	mov	w3, #0x7                   	// #7
    15ec:	72a00003 	movk	w3, #0x0, lsl #16
    15f0:	d42001e0 	brk	#0xf
    15f4:	2a0103e0 	mov	w0, w1
    15f8:	910183ff 	add	sp, sp, #0x60
    15fc:	a8c17bfd 	ldp	x29, x30, [sp], #16
    1600:	d65f03c0 	ret
    1604:	d503201f 	nop
    1608:	d503201f 	nop
    160c:	d503201f 	nop
    1610:	a9bf7bfd 	stp	x29, x30, [sp, #-16]!
    1614:	910003fd 	mov	x29, sp
    1618:	d10103ff 	sub	sp, sp, #0x40
    161c:	d4200500 	brk	#0x28
    1620:	7100005f 	cmp	w2, #0x0
    1624:	54000560 	b.eq	0x16d0  // b.none
    1628:	f81f83a0 	stur	x0, [x29, #-8]
    162c:	f81f03a1 	stur	x1, [x29, #-16]
    1630:	f81e83a2 	stur	x2, [x29, #-24]
    1634:	d13fa3e0 	sub	x0, sp, #0xfe8
    1638:	d2876101 	mov	x1, #0x3b08                	// #15112
    163c:	f2a000c1 	movk	x1, #0x6, lsl #16
    1640:	f2c00aa1 	movk	x1, #0x55, lsl #32
    1644:	f2e00001 	movk	x1, #0x0, lsl #48
    1648:	d2851102 	mov	x2, #0x2888                	// #10376
    164c:	f2a000c2 	movk	x2, #0x6, lsl #16
    1650:	f2c00aa2 	movk	x2, #0x55, lsl #32
    1654:	f2e00002 	movk	x2, #0x0, lsl #48
    1658:	d293ee91 	mov	x17, #0x9f74                	// #40820
    165c:	f2a031b1 	movk	x17, #0x18d, lsl #16
    1660:	f2c00ab1 	movk	x17, #0x55, lsl #32
    1664:	f2e00011 	movk	x17, #0x0, lsl #48
    1668:	d63f0220 	blr	x17
    166c:	f85f03a0 	ldur	x0, [x29, #-16]
    1670:	7100001f 	cmp	w0, #0x0
    1674:	54000381 	b.ne	0x16e4  // b.any
    1678:	f81f03a0 	stur	x0, [x29, #-16]
    167c:	d298b091 	mov	x17, #0xc584                	// #50564
    1680:	f2a031b1 	movk	x17, #0x18d, lsl #16
    1684:	f2c00ab1 	movk	x17, #0x55, lsl #32
    1688:	f2e00011 	movk	x17, #0x0, lsl #48
    168c:	d63f0220 	blr	x17
    1690:	f85f03a0 	ldur	x0, [x29, #-16]
    1694:	f8410001 	ldur	x1, [x0, #16]
    1698:	d42000e0 	brk	#0x7
    169c:	b85e03a2 	ldur	w2, [x29, #-32]
    16a0:	b81e43a2 	stur	w2, [x29, #-28]
    16a4:	52800001 	mov	w1, #0x0                   	// #0
    16a8:	72a00001 	movk	w1, #0x0, lsl #16
    16ac:	6b02003f 	cmp	w1, w2
    16b0:	5400006a 	b.ge	0x16bc  // b.tcont
    16b4:	52800002 	mov	w2, #0x0                   	// #0
    16b8:	72a00002 	movk	w2, #0x0, lsl #16
    16bc:	b81e43a2 	stur	w2, [x29, #-28]
    16c0:	d4200500 	brk	#0x28
    16c4:	6b01005f 	cmp	w2, w1
    16c8:	5400004a 	b.ge	0x16d0  // b.tcont
    16cc:	d4200500 	brk	#0x28
    16d0:	b81e43a2 	stur	w2, [x29, #-28]
    16d4:	7100001f 	cmp	w0, #0x0
    16d8:	54000481 	b.ne	0x1768  // b.any
    16dc:	f81f03a0 	stur	x0, [x29, #-16]
    16e0:	b81dc3a1 	stur	w1, [x29, #-36]
    16e4:	b81e03a2 	stur	w2, [x29, #-32]
    16e8:	d298b091 	mov	x17, #0xc584                	// #50564
    16ec:	f2a031b1 	movk	x17, #0x18d, lsl #16
    16f0:	f2c00ab1 	movk	x17, #0x55, lsl #32
    16f4:	f2e00011 	movk	x17, #0x0, lsl #48
    16f8:	d63f0220 	blr	x17
    16fc:	f85f03a0 	ldur	x0, [x29, #-16]
    1700:	f8410001 	ldur	x1, [x0, #16]
    1704:	d4200100 	brk	#0x8
    1708:	f8410001 	ldur	x1, [x0, #16]
    170c:	528000e2 	mov	w2, #0x7                   	// #7
    1710:	72a00002 	movk	w2, #0x0, lsl #16
    1714:	d42001c0 	brk	#0xe
    1718:	52800003 	mov	w3, #0x0                   	// #0
    171c:	72a00003 	movk	w3, #0x0, lsl #16
    1720:	b85e03a4 	ldur	w4, [x29, #-32]
    1724:	6b04007f 	cmp	w3, w4
    1728:	5400056b 	b.lt	0x17d4  // b.tstop
    172c:	d4200500 	brk	#0x28
    1730:	528000e3 	mov	w3, #0x7                   	// #7
    1734:	72a00003 	movk	w3, #0x0, lsl #16
    1738:	d42001c0 	brk	#0xe
    173c:	7100001f 	cmp	w0, #0x0
    1740:	54000581 	b.ne	0x17f0  // b.any
    1744:	f81f03a0 	stur	x0, [x29, #-16]
    1748:	b81dc3a1 	stur	w1, [x29, #-36]
    174c:	b81d83a2 	stur	w2, [x29, #-40]
    1750:	b81d43a3 	stur	w3, [x29, #-44]
    1754:	b81e03a4 	stur	w4, [x29, #-32]
    1758:	d298b091 	mov	x17, #0xc584                	// #50564
    175c:	f2a031b1 	movk	x17, #0x18d, lsl #16
    1760:	f2c00ab1 	movk	x17, #0x55, lsl #32
    1764:	f2e00011 	movk	x17, #0x0, lsl #48
    1768:	d63f0220 	blr	x17
    176c:	f85f03a0 	ldur	x0, [x29, #-16]
    1770:	f8408001 	ldur	x1, [x0, #8]
    1774:	52800002 	mov	w2, #0x0                   	// #0
    1778:	72a00002 	movk	w2, #0x0, lsl #16
    177c:	f81f03a0 	stur	x0, [x29, #-16]
    1780:	f81c03a1 	stur	x1, [x29, #-64]
    1784:	b81d43a2 	stur	w2, [x29, #-44]
    1788:	f85c83a0 	ldur	x0, [x29, #-56]
    178c:	b85d83a1 	ldur	w1, [x29, #-40]
    1790:	f85c03a2 	ldur	x2, [x29, #-64]
    1794:	b85d43a3 	ldur	w3, [x29, #-44]
    1798:	b85dc3a4 	ldur	w4, [x29, #-36]
    179c:	d2907711 	mov	x17, #0x83b8                	// #33720
    17a0:	f2a031b1 	movk	x17, #0x18d, lsl #16
    17a4:	f2c00ab1 	movk	x17, #0x55, lsl #32
    17a8:	f2e00011 	movk	x17, #0x0, lsl #48
    17ac:	d63f0220 	blr	x17
    17b0:	52800001 	mov	w1, #0x0                   	// #0
    17b4:	72a00001 	movk	w1, #0x0, lsl #16
    17b8:	6b00003f 	cmp	w1, w0
    17bc:	54000061 	b.ne	0x17c8  // b.any
    17c0:	910103ff 	add	sp, sp, #0x40
    17c4:	a8c17bfd 	ldp	x29, x30, [sp], #16
    17c8:	d65f03c0 	ret
    17cc:	f85f83a2 	ldur	x2, [x29, #-8]
    17d0:	51000443 	sub	w3, w2, #0x1
    17d4:	17ffffd0 	b	0x1714
    17d8:	52800200 	mov	w0, #0x10                  	// #16
    17dc:	72a00000 	movk	w0, #0x0, lsl #16
    17e0:	910103ff 	add	sp, sp, #0x40
    17e4:	a8c17bfd 	ldp	x29, x30, [sp], #16
    17e8:	d65f03c0 	ret
    17ec:	d503201f 	nop
    17f0:	a9bf7bfd 	stp	x29, x30, [sp, #-16]!
    17f4:	910003fd 	mov	x29, sp
    17f8:	d10203ff 	sub	sp, sp, #0x80
    17fc:	d2853902 	mov	x2, #0x29c8                	// #10696
    1800:	f2a000c2 	movk	x2, #0x6, lsl #16
    1804:	f2c00aa2 	movk	x2, #0x55, lsl #32
    1808:	f2e00002 	movk	x2, #0x0, lsl #48
    180c:	52800003 	mov	w3, #0x0                   	// #0
    1810:	72a00003 	movk	w3, #0x0, lsl #16
    1814:	f81f83a0 	stur	x0, [x29, #-8]
    1818:	f81f03a1 	stur	x1, [x29, #-16]
    181c:	f81d83a2 	stur	x2, [x29, #-40]
    1820:	b81d43a3 	stur	w3, [x29, #-44]
    1824:	f85d83a0 	ldur	x0, [x29, #-40]
    1828:	b85d43a1 	ldur	w1, [x29, #-44]
    182c:	d28db011 	mov	x17, #0x6d80                	// #28032
    1830:	f2a031b1 	movk	x17, #0x18d, lsl #16
    1834:	f2c00ab1 	movk	x17, #0x55, lsl #32
    1838:	f2e00011 	movk	x17, #0x0, lsl #48
    183c:	d63f0220 	blr	x17
    1840:	f81e03a0 	stur	x0, [x29, #-32]
    1844:	f85e03a0 	ldur	x0, [x29, #-32]
    1848:	9400008e 	bl	0x1a80
    184c:	d4200500 	brk	#0x28
    1850:	52800001 	mov	w1, #0x0                   	// #0
    1854:	72a00001 	movk	w1, #0x0, lsl #16
    1858:	b85d43a2 	ldur	w2, [x29, #-44]
    185c:	6b02003f 	cmp	w1, w2
    1860:	540002c1 	b.ne	0x18b8  // b.any
    1864:	7100001f 	cmp	w0, #0x0
    1868:	54000481 	b.ne	0x18f8  // b.any
    186c:	f81e83a0 	stur	x0, [x29, #-24]
    1870:	b81d03a1 	stur	w1, [x29, #-48]
    1874:	b81d43a2 	stur	w2, [x29, #-44]
    1878:	d298b091 	mov	x17, #0xc584                	// #50564
    187c:	f2a031b1 	movk	x17, #0x18d, lsl #16
    1880:	f2c00ab1 	movk	x17, #0x55, lsl #32
    1884:	f2e00011 	movk	x17, #0x0, lsl #48
    1888:	d63f0220 	blr	x17
    188c:	d2958401 	mov	x1, #0xac20                	// #44064
    1890:	f2a000c1 	movk	x1, #0x6, lsl #16
    1894:	f2c00aa1 	movk	x1, #0x55, lsl #32
    1898:	f2e00001 	movk	x1, #0x0, lsl #48
    189c:	f8400020 	ldur	x0, [x1]
    18a0:	f81c83a0 	stur	x0, [x29, #-56]
    18a4:	f85e83a0 	ldur	x0, [x29, #-24]
    18a8:	f85c83a1 	ldur	x1, [x29, #-56]
    18ac:	94000065 	bl	0x1a40
    18b0:	910203ff 	add	sp, sp, #0x80
    18b4:	a8c17bfd 	ldp	x29, x30, [sp], #16
    18b8:	d65f03c0 	ret
    18bc:	f85f03a1 	ldur	x1, [x29, #-16]
    18c0:	7100003f 	cmp	w1, #0x0
    18c4:	54000401 	b.ne	0x1944  // b.any
    18c8:	b81d43a0 	stur	w0, [x29, #-44]
    18cc:	f81f03a1 	stur	x1, [x29, #-16]
    18d0:	d298b091 	mov	x17, #0xc584                	// #50564
    18d4:	f2a031b1 	movk	x17, #0x18d, lsl #16
    18d8:	f2c00ab1 	movk	x17, #0x55, lsl #32
    18dc:	f2e00011 	movk	x17, #0x0, lsl #48
    18e0:	d63f0220 	blr	x17
    18e4:	f85f03a0 	ldur	x0, [x29, #-16]
    18e8:	f8410001 	ldur	x1, [x0, #16]
    18ec:	52800002 	mov	w2, #0x0                   	// #0
    18f0:	72a00002 	movk	w2, #0x0, lsl #16
    18f4:	6b01005f 	cmp	w2, w1
    18f8:	540004a1 	b.ne	0x198c  // b.any
    18fc:	52800001 	mov	w1, #0x0                   	// #0
    1900:	72a00001 	movk	w1, #0x0, lsl #16
    1904:	d4200500 	brk	#0x28
    1908:	6b01005f 	cmp	w2, w1
    190c:	540003aa 	b.ge	0x1980  // b.tcont
    1910:	b81c43a1 	stur	w1, [x29, #-60]
    1914:	f85f83a3 	ldur	x3, [x29, #-8]
    1918:	11000461 	add	w1, w3, #0x1
    191c:	f85e83a4 	ldur	x4, [x29, #-24]
    1920:	7100009f 	cmp	w4, #0x0
    1924:	54000581 	b.ne	0x19d4  // b.any
    1928:	f81f03a0 	stur	x0, [x29, #-16]
    192c:	b81d43a1 	stur	w1, [x29, #-44]
    1930:	b81d03a2 	stur	w2, [x29, #-48]
    1934:	f81f83a3 	stur	x3, [x29, #-8]
    1938:	f81e83a4 	stur	x4, [x29, #-24]
    193c:	d298b091 	mov	x17, #0xc584                	// #50564
    1940:	f2a031b1 	movk	x17, #0x18d, lsl #16
    1944:	f2c00ab1 	movk	x17, #0x55, lsl #32
    1948:	f2e00011 	movk	x17, #0x0, lsl #48
    194c:	d63f0220 	blr	x17
    1950:	528000e0 	mov	w0, #0x7                   	// #7
    1954:	72a00000 	movk	w0, #0x0, lsl #16
    1958:	d4200760 	brk	#0x3b
    195c:	b81bc3a0 	stur	w0, [x29, #-68]
    1960:	f85f83a0 	ldur	x0, [x29, #-8]
    1964:	b85c43a1 	ldur	w1, [x29, #-60]
    1968:	f85b03a2 	ldur	x2, [x29, #-80]
    196c:	94000091 	bl	0x1bb0
    1970:	f81c83a0 	stur	x0, [x29, #-56]
    1974:	f85e83a0 	ldur	x0, [x29, #-24]
    1978:	f85c83a1 	ldur	x1, [x29, #-56]
    197c:	94000031 	bl	0x1a40
    1980:	17ffffe1 	b	0x1904
    1984:	910203ff 	add	sp, sp, #0x80
    1988:	a8c17bfd 	ldp	x29, x30, [sp], #16
    198c:	d65f03c0 	ret
    1990:	52800001 	mov	w1, #0x0                   	// #0
    1994:	72a00001 	movk	w1, #0x0, lsl #16
    1998:	f85f03a2 	ldur	x2, [x29, #-16]
    199c:	f8410043 	ldur	x3, [x2, #16]
    19a0:	110007e4 	add	w4, wsp, #0x1
    19a4:	7100009f 	cmp	w4, #0x0
    19a8:	54000fc0 	b.eq	0x1ba0  // b.none
    19ac:	528000e0 	mov	w0, #0x7                   	// #7
    19b0:	72a00000 	movk	w0, #0x0, lsl #16
    19b4:	d42001c0 	brk	#0xe
    19b8:	d4200500 	brk	#0x28
    19bc:	528000e5 	mov	w5, #0x7                   	// #7
    19c0:	72a00005 	movk	w5, #0x0, lsl #16
    19c4:	d42001c0 	brk	#0xe
    19c8:	7100005f 	cmp	w2, #0x0
    19cc:	54000601 	b.ne	0x1a8c  // b.any
    19d0:	b81c03a0 	stur	w0, [x29, #-64]
    19d4:	b81d43a1 	stur	w1, [x29, #-44]
    19d8:	f81f03a2 	stur	x2, [x29, #-16]
    19dc:	b81d03a3 	stur	w3, [x29, #-48]
    19e0:	381af3a4 	sturb	w4, [x29, #-81]
    19e4:	b81bc3a5 	stur	w5, [x29, #-68]
    19e8:	d298b091 	mov	x17, #0xc584                	// #50564
    19ec:	f2a031b1 	movk	x17, #0x18d, lsl #16
    19f0:	f2c00ab1 	movk	x17, #0x55, lsl #32
    19f4:	f2e00011 	movk	x17, #0x0, lsl #48
    19f8:	d63f0220 	blr	x17
    19fc:	f85f03a0 	ldur	x0, [x29, #-16]
    1a00:	f8408001 	ldur	x1, [x0, #8]
    1a04:	528000e2 	mov	w2, #0x7                   	// #7
    1a08:	72a00002 	movk	w2, #0x0, lsl #16
    1a0c:	d42001c0 	brk	#0xe
    1a10:	52800002 	mov	w2, #0x0                   	// #0
    1a14:	72a00002 	movk	w2, #0x0, lsl #16
    1a18:	110007e3 	add	w3, wsp, #0x1
    1a1c:	7100007f 	cmp	w3, #0x0
    1a20:	540004c0 	b.eq	0x1ab8  // b.none
    1a24:	d4200500 	brk	#0x28
    1a28:	d4200100 	brk	#0x8
    1a2c:	52800004 	mov	w4, #0x0                   	// #0
    1a30:	72a00004 	movk	w4, #0x0, lsl #16
    1a34:	f81f03a0 	stur	x0, [x29, #-16]
    1a38:	f81a03a1 	stur	x1, [x29, #-96]
    1a3c:	b819c3a2 	stur	w2, [x29, #-100]
    1a40:	381af3a3 	sturb	w3, [x29, #-81]
    1a44:	b81883a4 	stur	w4, [x29, #-120]
    1a48:	f85903a0 	ldur	x0, [x29, #-112]
    1a4c:	b85c43a1 	ldur	w1, [x29, #-60]
    1a50:	b858c3a2 	ldur	w2, [x29, #-116]
    1a54:	f85a03a3 	ldur	x3, [x29, #-96]
    1a58:	b85883a4 	ldur	w4, [x29, #-120]
    1a5c:	b85bc3a5 	ldur	w5, [x29, #-68]
    1a60:	d2909391 	mov	x17, #0x849c                	// #33948
    1a64:	f2a031b1 	movk	x17, #0x18d, lsl #16
    1a68:	f2c00ab1 	movk	x17, #0x55, lsl #32
    1a6c:	f2e00011 	movk	x17, #0x0, lsl #48
    1a70:	d63f0220 	blr	x17
    1a74:	b819c3a0 	stur	w0, [x29, #-100]
    1a78:	52800001 	mov	w1, #0x0                   	// #0
    1a7c:	72a00001 	movk	w1, #0x0, lsl #16
    1a80:	6b00003f 	cmp	w1, w0
    1a84:	540000eb 	b.lt	0x1aa0  // b.tstop
    1a88:	528000e1 	mov	w1, #0x7                   	// #7
    1a8c:	72a00001 	movk	w1, #0x0, lsl #16
    1a90:	d4200220 	brk	#0x11
    1a94:	52800001 	mov	w1, #0x0                   	// #0
    1a98:	72a00001 	movk	w1, #0x0, lsl #16
    1a9c:	6b00003f 	cmp	w1, w0
    1aa0:	54000021 	b.ne	0x1aa4  // b.any
    1aa4:	14000005 	b	0x1ab8
    1aa8:	528000e1 	mov	w1, #0x7                   	// #7
    1aac:	72a00001 	movk	w1, #0x0, lsl #16
    1ab0:	d42000e0 	brk	#0x7
    1ab4:	b81c43a0 	stur	w0, [x29, #-60]
    1ab8:	17ffffd7 	b	0x1a14
    1abc:	52800002 	mov	w2, #0x0                   	// #0
    1ac0:	72a00002 	movk	w2, #0x0, lsl #16
    1ac4:	b859c3a3 	ldur	w3, [x29, #-100]
    1ac8:	6b03005f 	cmp	w2, w3
    1acc:	5400032a 	b.ge	0x1b30  // b.tcont
    1ad0:	f85e83a4 	ldur	x4, [x29, #-24]
    1ad4:	7100009f 	cmp	w4, #0x0
    1ad8:	54000581 	b.ne	0x1b88  // b.any
    1adc:	b81983a0 	stur	w0, [x29, #-104]
    1ae0:	b818c3a1 	stur	w1, [x29, #-116]
    1ae4:	b81883a2 	stur	w2, [x29, #-120]
    1ae8:	b819c3a3 	stur	w3, [x29, #-100]
    1aec:	f81e83a4 	stur	x4, [x29, #-24]
    1af0:	d298b091 	mov	x17, #0xc584                	// #50564
    1af4:	f2a031b1 	movk	x17, #0x18d, lsl #16
    1af8:	f2c00ab1 	movk	x17, #0x55, lsl #32
    1afc:	f2e00011 	movk	x17, #0x0, lsl #48
    1b00:	d63f0220 	blr	x17
    1b04:	d4200500 	brk	#0x28
    1b08:	d4200100 	brk	#0x8
    1b0c:	d4200760 	brk	#0x3b
    1b10:	f85f83a0 	ldur	x0, [x29, #-8]
    1b14:	b85d43a1 	ldur	w1, [x29, #-44]
    1b18:	f85b03a2 	ldur	x2, [x29, #-80]
    1b1c:	94000025 	bl	0x1bb0
    1b20:	f81c83a0 	stur	x0, [x29, #-56]
    1b24:	f85e83a0 	ldur	x0, [x29, #-24]
    1b28:	f85c83a1 	ldur	x1, [x29, #-56]
    1b2c:	940000c5 	bl	0x1e40
    1b30:	1400001c 	b	0x1ba0
    1b34:	528000e1 	mov	w1, #0x7                   	// #7
    1b38:	72a00001 	movk	w1, #0x0, lsl #16
    1b3c:	d42001e0 	brk	#0xf
    1b40:	b81983a0 	stur	w0, [x29, #-104]
    1b44:	f85e83a2 	ldur	x2, [x29, #-24]
    1b48:	7100005f 	cmp	w2, #0x0
    1b4c:	54000481 	b.ne	0x1bdc  // b.any
    1b50:	b818c3a0 	stur	w0, [x29, #-116]
    1b54:	b81883a1 	stur	w1, [x29, #-120]
    1b58:	f81e83a2 	stur	x2, [x29, #-24]
    1b5c:	d298b091 	mov	x17, #0xc584                	// #50564
    1b60:	f2a031b1 	movk	x17, #0x18d, lsl #16
    1b64:	f2c00ab1 	movk	x17, #0x55, lsl #32
    1b68:	f2e00011 	movk	x17, #0x0, lsl #48
    1b6c:	d63f0220 	blr	x17
    1b70:	d4200100 	brk	#0x8
    1b74:	d4200760 	brk	#0x3b
    1b78:	f85f83a0 	ldur	x0, [x29, #-8]
    1b7c:	b85d43a1 	ldur	w1, [x29, #-44]
    1b80:	f85b03a2 	ldur	x2, [x29, #-80]
    1b84:	9400000b 	bl	0x1bb0
    1b88:	f81c83a0 	stur	x0, [x29, #-56]
    1b8c:	f85e83a0 	ldur	x0, [x29, #-24]
    1b90:	f85c83a1 	ldur	x1, [x29, #-56]
    1b94:	940000ab 	bl	0x1e40
    1b98:	d42000e0 	brk	#0x7
    1b9c:	b81d43a0 	stur	w0, [x29, #-44]
    1ba0:	17ffff7f 	b	0x199c
    1ba4:	910203ff 	add	sp, sp, #0x80
    1ba8:	a8c17bfd 	ldp	x29, x30, [sp], #16
    1bac:	d65f03c0 	ret
    1bb0:	a9bf7bfd 	stp	x29, x30, [sp, #-16]!
    1bb4:	910003fd 	mov	x29, sp
    1bb8:	d10143ff 	sub	sp, sp, #0x50
    1bbc:	d4200500 	brk	#0x28
    1bc0:	7100005f 	cmp	w2, #0x0
    1bc4:	54000061 	b.ne	0x1bd0  // b.any
    1bc8:	b85e43a3 	ldur	w3, [x29, #-28]
    1bcc:	b81e03a3 	stur	w3, [x29, #-32]
    1bd0:	14000012 	b	0x1c18
    1bd4:	f81f83a0 	stur	x0, [x29, #-8]
    1bd8:	b81f43a1 	stur	w1, [x29, #-12]
    1bdc:	f81e83a2 	stur	x2, [x29, #-24]
    1be0:	b81e43a3 	stur	w3, [x29, #-28]
    1be4:	d13fa3e0 	sub	x0, sp, #0xfe8
    1be8:	d2876101 	mov	x1, #0x3b08                	// #15112
    1bec:	f2a000c1 	movk	x1, #0x6, lsl #16
    1bf0:	f2c00aa1 	movk	x1, #0x55, lsl #32
    1bf4:	f2e00001 	movk	x1, #0x0, lsl #48
    1bf8:	d2851102 	mov	x2, #0x2888                	// #10376
    1bfc:	f2a000c2 	movk	x2, #0x6, lsl #16
    1c00:	f2c00aa2 	movk	x2, #0x55, lsl #32
    1c04:	f2e00002 	movk	x2, #0x0, lsl #48
    1c08:	d293ee91 	mov	x17, #0x9f74                	// #40820
    1c0c:	f2a031b1 	movk	x17, #0x18d, lsl #16
    1c10:	f2c00ab1 	movk	x17, #0x55, lsl #32
    1c14:	f2e00011 	movk	x17, #0x0, lsl #48
    1c18:	d63f0220 	blr	x17
    1c1c:	52800000 	mov	w0, #0x0                   	// #0
    1c20:	72a00000 	movk	w0, #0x0, lsl #16
    1c24:	b85e03a1 	ldur	w1, [x29, #-32]
    1c28:	6b01001f 	cmp	w0, w1
    1c2c:	54000101 	b.ne	0x1c4c  // b.any
    1c30:	d2958403 	mov	x3, #0xac20                	// #44064
    1c34:	f2a000c3 	movk	x3, #0x6, lsl #16
    1c38:	f2c00aa3 	movk	x3, #0x55, lsl #32
    1c3c:	f2e00003 	movk	x3, #0x0, lsl #48
    1c40:	f8400062 	ldur	x2, [x3]
    1c44:	910143ff 	add	sp, sp, #0x50
    1c48:	a8c17bfd 	ldp	x29, x30, [sp], #16
    1c4c:	d65f03c0 	ret
    1c50:	52800000 	mov	w0, #0x0                   	// #0
    1c54:	72a00000 	movk	w0, #0x0, lsl #16
    1c58:	b85f43a3 	ldur	w3, [x29, #-12]
    1c5c:	6b03001f 	cmp	w0, w3
    1c60:	54000180 	b.eq	0x1c90  // b.none
    1c64:	52800000 	mov	w0, #0x0                   	// #0
    1c68:	72a00000 	movk	w0, #0x0, lsl #16
    1c6c:	6b01001f 	cmp	w0, w1
    1c70:	5400010a 	b.ge	0x1c90  // b.tcont
    1c74:	d2958404 	mov	x4, #0xac20                	// #44064
    1c78:	f2a000c4 	movk	x4, #0x6, lsl #16
    1c7c:	f2c00aa4 	movk	x4, #0x55, lsl #32
    1c80:	f2e00004 	movk	x4, #0x0, lsl #48
    1c84:	f8400082 	ldur	x2, [x4]
    1c88:	910143ff 	add	sp, sp, #0x50
    1c8c:	a8c17bfd 	ldp	x29, x30, [sp], #16
    1c90:	d65f03c0 	ret
    1c94:	52800000 	mov	w0, #0x0                   	// #0
    1c98:	72a00000 	movk	w0, #0x0, lsl #16
    1c9c:	6b03001f 	cmp	w0, w3
    1ca0:	5400016a 	b.ge	0x1ccc  // b.tcont
    1ca4:	d42000e0 	brk	#0x7
    1ca8:	b85dc3a4 	ldur	w4, [x29, #-36]
    1cac:	2a0403e3 	mov	w3, w4
    1cb0:	52800000 	mov	w0, #0x0                   	// #0
    1cb4:	72a00000 	movk	w0, #0x0, lsl #16
    1cb8:	6b04001f 	cmp	w0, w4
    1cbc:	5400006a 	b.ge	0x1cc8  // b.tcont
    1cc0:	52800004 	mov	w4, #0x0                   	// #0
    1cc4:	72a00004 	movk	w4, #0x0, lsl #16
    1cc8:	2a0403e3 	mov	w3, w4
    1ccc:	14000013 	b	0x1d18
    1cd0:	52800000 	mov	w0, #0x0                   	// #0
    1cd4:	72a00000 	movk	w0, #0x0, lsl #16
    1cd8:	6b01001f 	cmp	w0, w1
    1cdc:	540001ea 	b.ge	0x1d18  // b.tcont
    1ce0:	d42000e0 	brk	#0x7
    1ce4:	d4200100 	brk	#0x8
    1ce8:	2a0403e1 	mov	w1, w4
    1cec:	52800000 	mov	w0, #0x0                   	// #0
    1cf0:	72a00000 	movk	w0, #0x0, lsl #16
    1cf4:	6b04001f 	cmp	w0, w4
    1cf8:	5400010a 	b.ge	0x1d18  // b.tcont
    1cfc:	d2958405 	mov	x5, #0xac20                	// #44064
    1d00:	f2a000c5 	movk	x5, #0x6, lsl #16
    1d04:	f2c00aa5 	movk	x5, #0x55, lsl #32
    1d08:	f2e00005 	movk	x5, #0x0, lsl #48
    1d0c:	f84000a2 	ldur	x2, [x5]
    1d10:	910143ff 	add	sp, sp, #0x50
    1d14:	a8c17bfd 	ldp	x29, x30, [sp], #16
    1d18:	d65f03c0 	ret
    1d1c:	d42000e0 	brk	#0x7
    1d20:	b85e43a5 	ldur	w5, [x29, #-28]
    1d24:	6b05009f 	cmp	w4, w5
    1d28:	54000048 	b.hi	0x1d30  // b.pmore
    1d2c:	d4200100 	brk	#0x8
    1d30:	2a0403e1 	mov	w1, w4
    1d34:	52800000 	mov	w0, #0x0                   	// #0
    1d38:	72a00000 	movk	w0, #0x0, lsl #16
    1d3c:	6b03001f 	cmp	w0, w3
    1d40:	5400008b 	b.lt	0x1d50  // b.tstop
    1d44:	52800000 	mov	w0, #0x0                   	// #0
    1d48:	72a00000 	movk	w0, #0x0, lsl #16
    1d4c:	6b00003f 	cmp	w1, w0
    1d50:	5400010b 	b.lt	0x1d70  // b.tstop
    1d54:	d2958406 	mov	x6, #0xac20                	// #44064
    1d58:	f2a000c6 	movk	x6, #0x6, lsl #16
    1d5c:	f2c00aa6 	movk	x6, #0x55, lsl #32
    1d60:	f2e00006 	movk	x6, #0x0, lsl #48
    1d64:	f84000c2 	ldur	x2, [x6]
    1d68:	910143ff 	add	sp, sp, #0x50
    1d6c:	a8c17bfd 	ldp	x29, x30, [sp], #16
    1d70:	d65f03c0 	ret
    1d74:	528000e0 	mov	w0, #0x7                   	// #7
    1d78:	72a00000 	movk	w0, #0x0, lsl #16
    1d7c:	d42000e0 	brk	#0x7
    1d80:	528000e0 	mov	w0, #0x7                   	// #7
    1d84:	72a00000 	movk	w0, #0x0, lsl #16
    1d88:	d42001c0 	brk	#0xe
    1d8c:	b81d83a0 	stur	w0, [x29, #-40]
    1d90:	b81e03a1 	stur	w1, [x29, #-32]
    1d94:	f81d03a2 	stur	x2, [x29, #-48]
    1d98:	b81f43a3 	stur	w3, [x29, #-12]
    1d9c:	b81dc3a4 	stur	w4, [x29, #-36]
    1da0:	b81e43a5 	stur	w5, [x29, #-28]
    1da4:	b85dc3a0 	ldur	w0, [x29, #-36]
    1da8:	d2905f91 	mov	x17, #0x82fc                	// #33532
    1dac:	f2a031b1 	movk	x17, #0x18d, lsl #16
    1db0:	f2c00ab1 	movk	x17, #0x55, lsl #32
    1db4:	f2e00011 	movk	x17, #0x0, lsl #48
    1db8:	d63f0220 	blr	x17
    1dbc:	52800001 	mov	w1, #0x0                   	// #0
    1dc0:	72a00001 	movk	w1, #0x0, lsl #16
    1dc4:	d4200500 	brk	#0x28
    1dc8:	528000e2 	mov	w2, #0x7                   	// #7
    1dcc:	72a00002 	movk	w2, #0x0, lsl #16
    1dd0:	d42001c0 	brk	#0xe
    1dd4:	528000e3 	mov	w3, #0x7                   	// #7
    1dd8:	72a00003 	movk	w3, #0x0, lsl #16
    1ddc:	d42001c0 	brk	#0xe
    1de0:	f81c83a0 	stur	x0, [x29, #-56]
    1de4:	b81dc3a1 	stur	w1, [x29, #-36]
    1de8:	b81bc3a2 	stur	w2, [x29, #-68]
    1dec:	b81b83a3 	stur	w3, [x29, #-72]
    1df0:	f85c83a0 	ldur	x0, [x29, #-56]
    1df4:	b85dc3a1 	ldur	w1, [x29, #-36]
    1df8:	f85c03a2 	ldur	x2, [x29, #-64]
    1dfc:	b85d83a3 	ldur	w3, [x29, #-40]
    1e00:	b85bc3a4 	ldur	w4, [x29, #-68]
    1e04:	d2906d91 	mov	x17, #0x836c                	// #33644
    1e08:	f2a031b1 	movk	x17, #0x18d, lsl #16
    1e0c:	f2c00ab1 	movk	x17, #0x55, lsl #32
    1e10:	f2e00011 	movk	x17, #0x0, lsl #48
    1e14:	d63f0220 	blr	x17
    1e18:	528000e0 	mov	w0, #0x7                   	// #7
    1e1c:	72a00000 	movk	w0, #0x0, lsl #16
    1e20:	d42001c0 	brk	#0xe
    1e24:	52800000 	mov	w0, #0x0                   	// #0
    1e28:	72a00000 	movk	w0, #0x0, lsl #16
    1e2c:	d42009e0 	brk	#0x4f
    1e30:	b81d83a0 	stur	w0, [x29, #-40]
    1e34:	d2853900 	mov	x0, #0x29c8                	// #10696
    1e38:	f2a000c0 	movk	x0, #0x6, lsl #16
    1e3c:	f2c00aa0 	movk	x0, #0x55, lsl #32
    1e40:	f2e00000 	movk	x0, #0x0, lsl #48
    1e44:	d287fa11 	mov	x17, #0x3fd0                	// #16336
    1e48:	f2a031b1 	movk	x17, #0x18d, lsl #16
    1e4c:	f2c00ab1 	movk	x17, #0x55, lsl #32
    1e50:	f2e00011 	movk	x17, #0x0, lsl #48
    1e54:	d63f0220 	blr	x17
    1e58:	f85f83a1 	ldur	x1, [x29, #-8]
    1e5c:	f8003020 	stur	x0, [x1, #3]
    1e60:	b85f43a2 	ldur	w2, [x29, #-12]
    1e64:	b8002040 	stur	w0, [x2, #2]
    1e68:	910143ff 	add	sp, sp, #0x50
    1e6c:	a8c17bfd 	ldp	x29, x30, [sp], #16
    1e70:	d65f03c0 	ret
    1e74:	d503201f 	nop
    1e78:	d503201f 	nop
    1e7c:	d503201f 	nop
    1e80:	a9bf7bfd 	stp	x29, x30, [sp, #-16]!
    1e84:	910003fd 	mov	x29, sp
    1e88:	d10103ff 	sub	sp, sp, #0x40
    1e8c:	7100005f 	cmp	w2, #0x0
    1e90:	54000081 	b.ne	0x1ea0  // b.any
    1e94:	d4200500 	brk	#0x28
    1e98:	b85d83a3 	ldur	w3, [x29, #-40]
    1e9c:	b81dc3a3 	stur	w3, [x29, #-36]
    1ea0:	14000021 	b	0x1f24
    1ea4:	f81f83a0 	stur	x0, [x29, #-8]
    1ea8:	b81f43a1 	stur	w1, [x29, #-12]
    1eac:	f81e83a2 	stur	x2, [x29, #-24]
    1eb0:	b81d83a3 	stur	w3, [x29, #-40]
    1eb4:	d13fa3e0 	sub	x0, sp, #0xfe8
    1eb8:	d2876101 	mov	x1, #0x3b08                	// #15112
    1ebc:	f2a000c1 	movk	x1, #0x6, lsl #16
    1ec0:	f2c00aa1 	movk	x1, #0x55, lsl #32
    1ec4:	f2e00001 	movk	x1, #0x0, lsl #48
    1ec8:	d2851102 	mov	x2, #0x2888                	// #10376
    1ecc:	f2a000c2 	movk	x2, #0x6, lsl #16
    1ed0:	f2c00aa2 	movk	x2, #0x55, lsl #32
    1ed4:	f2e00002 	movk	x2, #0x0, lsl #48
    1ed8:	d293ee91 	mov	x17, #0x9f74                	// #40820
    1edc:	f2a031b1 	movk	x17, #0x18d, lsl #16
    1ee0:	f2c00ab1 	movk	x17, #0x55, lsl #32
    1ee4:	f2e00011 	movk	x17, #0x0, lsl #48
    1ee8:	d63f0220 	blr	x17
    1eec:	b85d83a0 	ldur	w0, [x29, #-40]
    1ef0:	b81dc3a0 	stur	w0, [x29, #-36]
    1ef4:	52800001 	mov	w1, #0x0                   	// #0
    1ef8:	72a00001 	movk	w1, #0x0, lsl #16
    1efc:	6b00003f 	cmp	w1, w0
    1f00:	5400008a 	b.ge	0x1f10  // b.tcont
    1f04:	52800000 	mov	w0, #0x0                   	// #0
    1f08:	72a00000 	movk	w0, #0x0, lsl #16
    1f0c:	b81dc3a0 	stur	w0, [x29, #-36]
    1f10:	14000005 	b	0x1f24
    1f14:	d4200500 	brk	#0x28
    1f18:	6b01001f 	cmp	w0, w1
    1f1c:	5400004a 	b.ge	0x1f24  // b.tcont
    1f20:	d4200500 	brk	#0x28
    1f24:	b81dc3a0 	stur	w0, [x29, #-36]
    1f28:	52800001 	mov	w1, #0x0                   	// #0
    1f2c:	72a00001 	movk	w1, #0x0, lsl #16
    1f30:	b85f43a2 	ldur	w2, [x29, #-12]
    1f34:	6b02003f 	cmp	w1, w2
    1f38:	5400008a 	b.ge	0x1f48  // b.tcont
    1f3c:	52800000 	mov	w0, #0x0                   	// #0
    1f40:	72a00000 	movk	w0, #0x0, lsl #16
    1f44:	2a0003e2 	mov	w2, w0
    1f48:	14000005 	b	0x1f5c
    1f4c:	d4200500 	brk	#0x28
    1f50:	6b01005f 	cmp	w2, w1
    1f54:	5400004a 	b.ge	0x1f5c  // b.tcont
    1f58:	d4200500 	brk	#0x28
    1f5c:	2a0003e2 	mov	w2, w0
    1f60:	b85dc3a3 	ldur	w3, [x29, #-36]
    1f64:	6b03005f 	cmp	w2, w3
    1f68:	5400006a 	b.ge	0x1f74  // b.tcont
    1f6c:	2a0203e0 	mov	w0, w2
    1f70:	2a0303e2 	mov	w2, w3
    1f74:	2a0003e3 	mov	w3, w0
    1f78:	d4200100 	brk	#0x8
    1f7c:	d4200760 	brk	#0x3b
    1f80:	b81d83a0 	stur	w0, [x29, #-40]
    1f84:	b81d43a1 	stur	w1, [x29, #-44]
    1f88:	b81f43a2 	stur	w2, [x29, #-12]
    1f8c:	b81dc3a3 	stur	w3, [x29, #-36]
    1f90:	f85f83a0 	ldur	x0, [x29, #-8]
    1f94:	b85f43a1 	ldur	w1, [x29, #-12]
    1f98:	f85e03a2 	ldur	x2, [x29, #-32]
    1f9c:	97ffff05 	bl	0x1bb0
    1fa0:	910103ff 	add	sp, sp, #0x40
    1fa4:	a8c17bfd 	ldp	x29, x30, [sp], #16
    1fa8:	d65f03c0 	ret
    1fac:	d503201f 	nop
    1fb0:	a9bf7bfd 	stp	x29, x30, [sp, #-16]!
    1fb4:	910003fd 	mov	x29, sp
    1fb8:	d10043ff 	sub	sp, sp, #0x10
    1fbc:	910043ff 	add	sp, sp, #0x10
    1fc0:	a8c17bfd 	ldp	x29, x30, [sp], #16
    1fc4:	d65f03c0 	ret
    1fc8:	d503201f 	nop
    1fcc:	d503201f 	nop
    1fd0:	a9bf7bfd 	stp	x29, x30, [sp, #-16]!
    1fd4:	910003fd 	mov	x29, sp
    1fd8:	d10083ff 	sub	sp, sp, #0x20
    1fdc:	d4200500 	brk	#0x28
    1fe0:	52800001 	mov	w1, #0x0                   	// #0
    1fe4:	72a00001 	movk	w1, #0x0, lsl #16
    1fe8:	aa1f03e2 	mov	x2, xzr
    1fec:	f81f83a0 	stur	x0, [x29, #-8]
    1ff0:	b81ec3a1 	stur	w1, [x29, #-20]
    1ff4:	f81e03a2 	stur	x2, [x29, #-32]
    1ff8:	f85f03a0 	ldur	x0, [x29, #-16]
    1ffc:	b85ec3a1 	ldur	w1, [x29, #-20]
    2000:	f85e03a2 	ldur	x2, [x29, #-32]
    2004:	d293c211 	mov	x17, #0x9e10                	// #40464
    2008:	f2a031d1 	movk	x17, #0x18e, lsl #16
    200c:	f2c00ab1 	movk	x17, #0x55, lsl #32
    2010:	f2e00011 	movk	x17, #0x0, lsl #48
    2014:	d63f0220 	blr	x17
    2018:	910083ff 	add	sp, sp, #0x20
    201c:	a8c17bfd 	ldp	x29, x30, [sp], #16
    2020:	d65f03c0 	ret
    2024:	d503201f 	nop
    2028:	d503201f 	nop
    202c:	d503201f 	nop
    2030:	a9bf7bfd 	stp	x29, x30, [sp, #-16]!
    2034:	910003fd 	mov	x29, sp
    2038:	d10043ff 	sub	sp, sp, #0x10
    203c:	d4200500 	brk	#0x28
    2040:	910043ff 	add	sp, sp, #0x10
    2044:	a8c17bfd 	ldp	x29, x30, [sp], #16
    2048:	d65f03c0 	ret
    204c:	d503201f 	nop
    2050:	a9bf7bfd 	stp	x29, x30, [sp, #-16]!
    2054:	910003fd 	mov	x29, sp
    2058:	d10103ff 	sub	sp, sp, #0x40
    205c:	d2957403 	mov	x3, #0xaba0                	// #43936
    2060:	f2a000c3 	movk	x3, #0x6, lsl #16
    2064:	f2c00aa3 	movk	x3, #0x55, lsl #32
    2068:	f2e00003 	movk	x3, #0x0, lsl #48
    206c:	f8400062 	ldur	x2, [x3]
    2070:	f81f83a0 	stur	x0, [x29, #-8]
    2074:	f81f03a1 	stur	x1, [x29, #-16]
    2078:	f81e83a2 	stur	x2, [x29, #-24]
    207c:	f85e83a0 	ldur	x0, [x29, #-24]
    2080:	f85f03a1 	ldur	x1, [x29, #-16]
    2084:	940000cb 	bl	0x23b0
    2088:	7100001f 	cmp	w0, #0x0
    208c:	54000040 	b.eq	0x2094  // b.none
    2090:	d4200800 	brk	#0x40
    2094:	14000001 	b	0x2098
    2098:	aa1f03e1 	mov	x1, xzr
    209c:	7100003f 	cmp	w1, #0x0
    20a0:	54000181 	b.ne	0x20d0  // b.any
    20a4:	381df3a0 	sturb	w0, [x29, #-33]
    20a8:	f81e03a1 	stur	x1, [x29, #-32]
    20ac:	f85f83a0 	ldur	x0, [x29, #-8]
    20b0:	f85f03a1 	ldur	x1, [x29, #-16]
    20b4:	d2955811 	mov	x17, #0xaac0                	// #43712
    20b8:	f2a031b1 	movk	x17, #0x18d, lsl #16
    20bc:	f2c00ab1 	movk	x17, #0x55, lsl #32
    20c0:	f2e00011 	movk	x17, #0x0, lsl #48
    20c4:	d63f0220 	blr	x17
    20c8:	910103ff 	add	sp, sp, #0x40
    20cc:	a8c17bfd 	ldp	x29, x30, [sp], #16
    20d0:	d65f03c0 	ret
    20d4:	d4200500 	brk	#0x28
    20d8:	f85e03a1 	ldur	x1, [x29, #-32]
    20dc:	7100003f 	cmp	w1, #0x0
    20e0:	54000401 	b.ne	0x2160  // b.any
    20e4:	b81d83a0 	stur	w0, [x29, #-40]
    20e8:	f81e03a1 	stur	x1, [x29, #-32]
    20ec:	d298b091 	mov	x17, #0xc584                	// #50564
    20f0:	f2a031b1 	movk	x17, #0x18d, lsl #16
    20f4:	f2c00ab1 	movk	x17, #0x55, lsl #32
    20f8:	f2e00011 	movk	x17, #0x0, lsl #48
    20fc:	d63f0220 	blr	x17
    2100:	f85e03a0 	ldur	x0, [x29, #-32]
    2104:	f8408001 	ldur	x1, [x0, #8]
    2108:	d4200500 	brk	#0x28
    210c:	f8410002 	ldur	x2, [x0, #16]
    2110:	b85d83a3 	ldur	w3, [x29, #-40]
    2114:	6b03005f 	cmp	w2, w3
    2118:	5400004a 	b.ge	0x2120  // b.tcont
    211c:	d4200500 	brk	#0x28
    2120:	14000001 	b	0x2124
    2124:	f8410003 	ldur	x3, [x0, #16]
    2128:	f81e03a0 	stur	x0, [x29, #-32]
    212c:	f81c83a1 	stur	x1, [x29, #-56]
    2130:	b81c43a2 	stur	w2, [x29, #-60]
    2134:	b81d83a3 	stur	w3, [x29, #-40]
    2138:	f85d03a0 	ldur	x0, [x29, #-48]
    213c:	f85c83a1 	ldur	x1, [x29, #-56]
    2140:	b85d83a2 	ldur	w2, [x29, #-40]
    2144:	d2908091 	mov	x17, #0x8404                	// #33796
    2148:	f2a031b1 	movk	x17, #0x18d, lsl #16
    214c:	f2c00ab1 	movk	x17, #0x55, lsl #32
    2150:	f2e00011 	movk	x17, #0x0, lsl #48
    2154:	d63f0220 	blr	x17
    2158:	52800001 	mov	w1, #0x0                   	// #0
    215c:	72a00001 	movk	w1, #0x0, lsl #16
    2160:	6b00003f 	cmp	w1, w0
    2164:	540000e1 	b.ne	0x2180  // b.any
    2168:	d4200500 	brk	#0x28
    216c:	f85e03a2 	ldur	x2, [x29, #-32]
    2170:	f8410041 	ldur	x1, [x2, #16]
    2174:	d4200100 	brk	#0x8
    2178:	910103ff 	add	sp, sp, #0x40
    217c:	a8c17bfd 	ldp	x29, x30, [sp], #16
    2180:	d65f03c0 	ret
    2184:	910103ff 	add	sp, sp, #0x40
    2188:	a8c17bfd 	ldp	x29, x30, [sp], #16
    218c:	d65f03c0 	ret
    2190:	a9bf7bfd 	stp	x29, x30, [sp, #-16]!
    2194:	910003fd 	mov	x29, sp
    2198:	d10083ff 	sub	sp, sp, #0x20
    219c:	52800001 	mov	w1, #0x0                   	// #0
    21a0:	72a00001 	movk	w1, #0x0, lsl #16
    21a4:	d4200520 	brk	#0x29
    21a8:	52800221 	mov	w1, #0x11                  	// #17
    21ac:	72a00001 	movk	w1, #0x0, lsl #16
    21b0:	d4200520 	brk	#0x29
    21b4:	d4200500 	brk	#0x28
    21b8:	f81f83a0 	stur	x0, [x29, #-8]
    21bc:	b81f43a1 	stur	w1, [x29, #-12]
    21c0:	b85f43a0 	ldur	w0, [x29, #-12]
    21c4:	d2905f91 	mov	x17, #0x82fc                	// #33532
    21c8:	f2a031b1 	movk	x17, #0x18d, lsl #16
    21cc:	f2c00ab1 	movk	x17, #0x55, lsl #32
    21d0:	f2e00011 	movk	x17, #0x0, lsl #48
    21d4:	d63f0220 	blr	x17
    21d8:	d4200520 	brk	#0x29
    21dc:	910083ff 	add	sp, sp, #0x20
    21e0:	a8c17bfd 	ldp	x29, x30, [sp], #16
    21e4:	d65f03c0 	ret
    21e8:	d503201f 	nop
    21ec:	d503201f 	nop
    21f0:	a9bf7bfd 	stp	x29, x30, [sp, #-16]!
    21f4:	910003fd 	mov	x29, sp
    21f8:	d101c3ff 	sub	sp, sp, #0x70
    21fc:	52800002 	mov	w2, #0x0                   	// #0
    2200:	72a00002 	movk	w2, #0x0, lsl #16
    2204:	d2957404 	mov	x4, #0xaba0                	// #43936
    2208:	f2a000c4 	movk	x4, #0x6, lsl #16
    220c:	f2c00aa4 	movk	x4, #0x55, lsl #32
    2210:	f2e00004 	movk	x4, #0x0, lsl #48
    2214:	f8400083 	ldur	x3, [x4]
    2218:	f81f83a0 	stur	x0, [x29, #-8]
    221c:	f81f03a1 	stur	x1, [x29, #-16]
    2220:	b81ec3a2 	stur	w2, [x29, #-20]
    2224:	f81e03a3 	stur	x3, [x29, #-32]
    2228:	f85e03a0 	ldur	x0, [x29, #-32]
    222c:	f85f03a1 	ldur	x1, [x29, #-16]
    2230:	94000060 	bl	0x23b0
    2234:	7100001f 	cmp	w0, #0x0
    2238:	54000040 	b.eq	0x2240  // b.none
    223c:	d4200800 	brk	#0x40
    2240:	14000001 	b	0x2244
    2244:	aa1f03e1 	mov	x1, xzr
    2248:	7100003f 	cmp	w1, #0x0
    224c:	54000b20 	b.eq	0x23b0  // b.none
    2250:	7100003f 	cmp	w1, #0x0
    2254:	54000401 	b.ne	0x22d4  // b.any
    2258:	381d73a0 	sturb	w0, [x29, #-41]
    225c:	f81d83a1 	stur	x1, [x29, #-40]
    2260:	d298b091 	mov	x17, #0xc584                	// #50564
    2264:	f2a031b1 	movk	x17, #0x18d, lsl #16
    2268:	f2c00ab1 	movk	x17, #0x55, lsl #32
    226c:	f2e00011 	movk	x17, #0x0, lsl #48
    2270:	d63f0220 	blr	x17
    2274:	f85d83a0 	ldur	x0, [x29, #-40]
    2278:	f8408001 	ldur	x1, [x0, #8]
    227c:	f8410002 	ldur	x2, [x0, #16]
    2280:	528000e3 	mov	w3, #0x7                   	// #7
    2284:	72a00003 	movk	w3, #0x0, lsl #16
    2288:	d42001c0 	brk	#0xe
    228c:	d4200500 	brk	#0x28
    2290:	d42000e0 	brk	#0x7
    2294:	d4200500 	brk	#0x28
    2298:	b85bc3a4 	ldur	w4, [x29, #-68]
    229c:	6b04007f 	cmp	w3, w4
    22a0:	540005aa 	b.ge	0x2354  // b.tcont
    22a4:	d4200500 	brk	#0x28
    22a8:	d42000e0 	brk	#0x7
    22ac:	d4200500 	brk	#0x28
    22b0:	52800245 	mov	w5, #0x12                  	// #18
    22b4:	72a00005 	movk	w5, #0x0, lsl #16
    22b8:	d4200120 	brk	#0x9
    22bc:	528000e5 	mov	w5, #0x7                   	// #7
    22c0:	72a00005 	movk	w5, #0x0, lsl #16
    22c4:	d42001e0 	brk	#0xf
    22c8:	6b04007f 	cmp	w3, w4
    22cc:	5400002a 	b.ge	0x22d0  // b.tcont
    22d0:	2a0303e4 	mov	w4, w3
    22d4:	f81d83a0 	stur	x0, [x29, #-40]
    22d8:	f81c83a1 	stur	x1, [x29, #-56]
    22dc:	b81c43a2 	stur	w2, [x29, #-60]
    22e0:	b81c03a3 	stur	w3, [x29, #-64]
    22e4:	b81bc3a4 	stur	w4, [x29, #-68]
    22e8:	b81b83a5 	stur	w5, [x29, #-72]
    22ec:	b85bc3a0 	ldur	w0, [x29, #-68]
    22f0:	d2905f91 	mov	x17, #0x82fc                	// #33532
    22f4:	f2a031b1 	movk	x17, #0x18d, lsl #16
    22f8:	f2c00ab1 	movk	x17, #0x55, lsl #32
    22fc:	f2e00011 	movk	x17, #0x0, lsl #48
    2300:	d63f0220 	blr	x17
    2304:	52800001 	mov	w1, #0x0                   	// #0
    2308:	72a00001 	movk	w1, #0x0, lsl #16
    230c:	d4200500 	brk	#0x28
    2310:	52800002 	mov	w2, #0x0                   	// #0
    2314:	72a00002 	movk	w2, #0x0, lsl #16
    2318:	d4200500 	brk	#0x28
    231c:	f81a83a0 	stur	x0, [x29, #-88]
    2320:	b81b83a1 	stur	w1, [x29, #-72]
    2324:	b81b43a2 	stur	w2, [x29, #-76]
    2328:	f85a83a0 	ldur	x0, [x29, #-88]
    232c:	b85b83a1 	ldur	w1, [x29, #-72]
    2330:	f85a03a2 	ldur	x2, [x29, #-96]
    2334:	b85b43a3 	ldur	w3, [x29, #-76]
    2338:	b859c3a4 	ldur	w4, [x29, #-100]
    233c:	d2906d91 	mov	x17, #0x836c                	// #33644
    2340:	f2a031b1 	movk	x17, #0x18d, lsl #16
    2344:	f2c00ab1 	movk	x17, #0x55, lsl #32
    2348:	f2e00011 	movk	x17, #0x0, lsl #48
    234c:	d63f0220 	blr	x17
    2350:	d4200520 	brk	#0x29
    2354:	d4200520 	brk	#0x29
    2358:	d4200500 	brk	#0x28
    235c:	d4200500 	brk	#0x28
    2360:	52800000 	mov	w0, #0x0                   	// #0
    2364:	72a00000 	movk	w0, #0x0, lsl #16
    2368:	b81bc3a0 	stur	w0, [x29, #-68]
    236c:	f85a83a0 	ldur	x0, [x29, #-88]
    2370:	b85c03a1 	ldur	w1, [x29, #-64]
    2374:	f85c83a2 	ldur	x2, [x29, #-56]
    2378:	b85bc3a3 	ldur	w3, [x29, #-68]
    237c:	b85c43a4 	ldur	w4, [x29, #-60]
    2380:	d2906d91 	mov	x17, #0x836c                	// #33644
    2384:	f2a031b1 	movk	x17, #0x18d, lsl #16
    2388:	f2c00ab1 	movk	x17, #0x55, lsl #32
    238c:	f2e00011 	movk	x17, #0x0, lsl #48
    2390:	d63f0220 	blr	x17
    2394:	f85f83a0 	ldur	x0, [x29, #-8]
    2398:	f8414001 	ldur	x1, [x0, #20]
    239c:	d42000e0 	brk	#0x7
    23a0:	b85ec3a2 	ldur	w2, [x29, #-20]
    23a4:	b8001040 	stur	w0, [x2, #1]
    23a8:	9101c3ff 	add	sp, sp, #0x70
    23ac:	a8c17bfd 	ldp	x29, x30, [sp], #16
    23b0:	d65f03c0 	ret
    23b4:	d4200ae0 	brk	#0x57
    23b8:	f81f83a0 	stur	x0, [x29, #-8]
    23bc:	b81c03a1 	stur	w1, [x29, #-64]
    23c0:	b81ec3a2 	stur	w2, [x29, #-20]
    23c4:	f85f03a0 	ldur	x0, [x29, #-16]
    23c8:	f85903a1 	ldur	x1, [x29, #-112]
    23cc:	d292cf91 	mov	x17, #0x967c                	// #38524
    23d0:	f2a031d1 	movk	x17, #0x18e, lsl #16
    23d4:	f2c00ab1 	movk	x17, #0x55, lsl #32
    23d8:	f2e00011 	movk	x17, #0x0, lsl #48
    23dc:	d63f0220 	blr	x17
    23e0:	528000e1 	mov	w1, #0x7                   	// #7
    23e4:	72a00001 	movk	w1, #0x0, lsl #16
    23e8:	d42001c0 	brk	#0xe
    23ec:	d4200500 	brk	#0x28
    23f0:	d42000e0 	brk	#0x7
    23f4:	d4200500 	brk	#0x28
    23f8:	b85bc3a2 	ldur	w2, [x29, #-68]
    23fc:	6b02003f 	cmp	w1, w2
    2400:	5400056a 	b.ge	0x24ac  // b.tcont
    2404:	d4200500 	brk	#0x28
    2408:	d42000e0 	brk	#0x7
    240c:	d4200500 	brk	#0x28
    2410:	52800243 	mov	w3, #0x12                  	// #18
    2414:	72a00003 	movk	w3, #0x0, lsl #16
    2418:	d4200120 	brk	#0x9
    241c:	528000e3 	mov	w3, #0x7                   	// #7
    2420:	72a00003 	movk	w3, #0x0, lsl #16
    2424:	d42001e0 	brk	#0xf
    2428:	6b02003f 	cmp	w1, w2
    242c:	5400002a 	b.ge	0x2430  // b.tcont
    2430:	2a0103e2 	mov	w2, w1
    2434:	f81c83a0 	stur	x0, [x29, #-56]
    2438:	b81c03a1 	stur	w1, [x29, #-64]
    243c:	b81bc3a2 	stur	w2, [x29, #-68]
    2440:	b81b83a3 	stur	w3, [x29, #-72]
    2444:	b85bc3a0 	ldur	w0, [x29, #-68]
    2448:	d2905f91 	mov	x17, #0x82fc                	// #33532
    244c:	f2a031b1 	movk	x17, #0x18d, lsl #16
    2450:	f2c00ab1 	movk	x17, #0x55, lsl #32
    2454:	f2e00011 	movk	x17, #0x0, lsl #48
    2458:	d63f0220 	blr	x17
    245c:	52800001 	mov	w1, #0x0                   	// #0
    2460:	72a00001 	movk	w1, #0x0, lsl #16
    2464:	d4200500 	brk	#0x28
    2468:	52800002 	mov	w2, #0x0                   	// #0
    246c:	72a00002 	movk	w2, #0x0, lsl #16
    2470:	d4200500 	brk	#0x28
    2474:	f81a83a0 	stur	x0, [x29, #-88]
    2478:	b81b83a1 	stur	w1, [x29, #-72]
    247c:	b81b43a2 	stur	w2, [x29, #-76]
    2480:	f85a83a0 	ldur	x0, [x29, #-88]
    2484:	b85b83a1 	ldur	w1, [x29, #-72]
    2488:	f85a03a2 	ldur	x2, [x29, #-96]
    248c:	b85b43a3 	ldur	w3, [x29, #-76]
    2490:	b859c3a4 	ldur	w4, [x29, #-100]
    2494:	d2906d91 	mov	x17, #0x836c                	// #33644
    2498:	f2a031b1 	movk	x17, #0x18d, lsl #16
    249c:	f2c00ab1 	movk	x17, #0x55, lsl #32
    24a0:	f2e00011 	movk	x17, #0x0, lsl #48
    24a4:	d63f0220 	blr	x17
    24a8:	d4200520 	brk	#0x29
    24ac:	d4200520 	brk	#0x29
    24b0:	d4200500 	brk	#0x28
    24b4:	d4200500 	brk	#0x28
    24b8:	52800000 	mov	w0, #0x0                   	// #0
    24bc:	72a00000 	movk	w0, #0x0, lsl #16
    24c0:	b81bc3a0 	stur	w0, [x29, #-68]
    24c4:	f85a83a0 	ldur	x0, [x29, #-88]
    24c8:	b85c03a1 	ldur	w1, [x29, #-64]
    24cc:	f85c83a2 	ldur	x2, [x29, #-56]
    24d0:	b85bc3a3 	ldur	w3, [x29, #-68]
    24d4:	b85c43a4 	ldur	w4, [x29, #-60]
    24d8:	d2906d91 	mov	x17, #0x836c                	// #33644
    24dc:	f2a031b1 	movk	x17, #0x18d, lsl #16
    24e0:	f2c00ab1 	movk	x17, #0x55, lsl #32
    24e4:	f2e00011 	movk	x17, #0x0, lsl #48
    24e8:	d63f0220 	blr	x17
    24ec:	f85f83a0 	ldur	x0, [x29, #-8]
    24f0:	f8414001 	ldur	x1, [x0, #20]
    24f4:	d42000e0 	brk	#0x7
    24f8:	b85ec3a2 	ldur	w2, [x29, #-20]
    24fc:	b8001040 	stur	w0, [x2, #1]
    2500:	9101c3ff 	add	sp, sp, #0x70
    2504:	a8c17bfd 	ldp	x29, x30, [sp], #16
    2508:	d65f03c0 	ret
    250c:	d503201f 	nop
    2510:	a9bf7bfd 	stp	x29, x30, [sp, #-16]!
    2514:	910003fd 	mov	x29, sp
    2518:	d10183ff 	sub	sp, sp, #0x60
    251c:	52800002 	mov	w2, #0x0                   	// #0
    2520:	72a00002 	movk	w2, #0x0, lsl #16
    2524:	6b01005f 	cmp	w2, w1
    2528:	54000ceb 	b.lt	0x26c4  // b.tstop
    252c:	52800122 	mov	w2, #0x9                   	// #9
    2530:	72a00002 	movk	w2, #0x0, lsl #16
    2534:	6b01005f 	cmp	w2, w1
    2538:	54000c6a 	b.ge	0x26c4  // b.tcont
    253c:	52800142 	mov	w2, #0xa                   	// #10
    2540:	72a00002 	movk	w2, #0x0, lsl #16
    2544:	6b01005f 	cmp	w2, w1
    2548:	5400044b 	b.lt	0x25d0  // b.tstop
    254c:	52800162 	mov	w2, #0xb                   	// #11
    2550:	72a00002 	movk	w2, #0x0, lsl #16
    2554:	6b02003f 	cmp	w1, w2
    2558:	540003cb 	b.lt	0x25d0  // b.tstop
    255c:	d2958204 	mov	x4, #0xac10                	// #44048
    2560:	f2a000c4 	movk	x4, #0x6, lsl #16
    2564:	f2c00aa4 	movk	x4, #0x55, lsl #32
    2568:	f2e00004 	movk	x4, #0x0, lsl #48
    256c:	f8400083 	ldur	x3, [x4]
    2570:	b81f03a1 	stur	w1, [x29, #-16]
    2574:	d4200ae0 	brk	#0x57
    2578:	f81f83a0 	stur	x0, [x29, #-8]
    257c:	b81f43a1 	stur	w1, [x29, #-12]
    2580:	b81ec3a2 	stur	w2, [x29, #-20]
    2584:	f81d83a3 	stur	x3, [x29, #-40]
    2588:	b85f03a0 	ldur	w0, [x29, #-16]
    258c:	f85d03a1 	ldur	x1, [x29, #-48]
    2590:	d292a211 	mov	x17, #0x9510                	// #38160
    2594:	f2a031d1 	movk	x17, #0x18e, lsl #16
    2598:	f2c00ab1 	movk	x17, #0x55, lsl #32
    259c:	f2e00011 	movk	x17, #0x0, lsl #48
    25a0:	d63f0220 	blr	x17
    25a4:	f81c83a0 	stur	x0, [x29, #-56]
    25a8:	f85c83a0 	ldur	x0, [x29, #-56]
    25ac:	b85f03a1 	ldur	w1, [x29, #-16]
    25b0:	97fff970 	bl	0xb70
    25b4:	f81c03a0 	stur	x0, [x29, #-64]
    25b8:	f85d83a0 	ldur	x0, [x29, #-40]
    25bc:	f85c03a1 	ldur	x1, [x29, #-64]
    25c0:	97fffa00 	bl	0xdc0
    25c4:	f81d83a0 	stur	x0, [x29, #-40]
    25c8:	f85d83a0 	ldur	x0, [x29, #-40]
    25cc:	94000065 	bl	0x2760
    25d0:	d4200880 	brk	#0x44
    25d4:	d4200500 	brk	#0x28
    25d8:	52800061 	mov	w1, #0x3                   	// #3
    25dc:	72a00001 	movk	w1, #0x0, lsl #16
    25e0:	d42000e0 	brk	#0x7
    25e4:	d4200500 	brk	#0x28
    25e8:	b85f03a2 	ldur	w2, [x29, #-16]
    25ec:	6b01005f 	cmp	w2, w1
    25f0:	5400058a 	b.ge	0x26a0  // b.tcont
    25f4:	d4200500 	brk	#0x28
    25f8:	52800241 	mov	w1, #0x12                  	// #18
    25fc:	72a00001 	movk	w1, #0x0, lsl #16
    2600:	d4200120 	brk	#0x9
    2604:	528000e1 	mov	w1, #0x7                   	// #7
    2608:	72a00001 	movk	w1, #0x0, lsl #16
    260c:	d42001e0 	brk	#0xf
    2610:	52800001 	mov	w1, #0x0                   	// #0
    2614:	72a00001 	movk	w1, #0x0, lsl #16
    2618:	6b02003f 	cmp	w1, w2
    261c:	5400006a 	b.ge	0x2628  // b.tcont
    2620:	52800001 	mov	w1, #0x0                   	// #0
    2624:	72a00001 	movk	w1, #0x0, lsl #16
    2628:	2a0103e2 	mov	w2, w1
    262c:	f81e03a0 	stur	x0, [x29, #-32]
    2630:	b81ec3a1 	stur	w1, [x29, #-20]
    2634:	b81f03a2 	stur	w2, [x29, #-16]
    2638:	b85f03a0 	ldur	w0, [x29, #-16]
    263c:	d2905f91 	mov	x17, #0x82fc                	// #33532
    2640:	f2a031b1 	movk	x17, #0x18d, lsl #16
    2644:	f2c00ab1 	movk	x17, #0x55, lsl #32
    2648:	f2e00011 	movk	x17, #0x0, lsl #48
    264c:	d63f0220 	blr	x17
    2650:	52800001 	mov	w1, #0x0                   	// #0
    2654:	72a00001 	movk	w1, #0x0, lsl #16
    2658:	d4200500 	brk	#0x28
    265c:	52800002 	mov	w2, #0x0                   	// #0
    2660:	72a00002 	movk	w2, #0x0, lsl #16
    2664:	d4200500 	brk	#0x28
    2668:	f81c83a0 	stur	x0, [x29, #-56]
    266c:	b81ec3a1 	stur	w1, [x29, #-20]
    2670:	b81bc3a2 	stur	w2, [x29, #-68]
    2674:	f85c83a0 	ldur	x0, [x29, #-56]
    2678:	b85ec3a1 	ldur	w1, [x29, #-20]
    267c:	f85b03a2 	ldur	x2, [x29, #-80]
    2680:	b85bc3a3 	ldur	w3, [x29, #-68]
    2684:	b85ac3a4 	ldur	w4, [x29, #-84]
    2688:	d2906d91 	mov	x17, #0x836c                	// #33644
    268c:	f2a031b1 	movk	x17, #0x18d, lsl #16
    2690:	f2c00ab1 	movk	x17, #0x55, lsl #32
    2694:	f2e00011 	movk	x17, #0x0, lsl #48
    2698:	d63f0220 	blr	x17
    269c:	d4200520 	brk	#0x29
    26a0:	d4200520 	brk	#0x29
    26a4:	d4200500 	brk	#0x28
    26a8:	d4200500 	brk	#0x28
    26ac:	d42009e0 	brk	#0x4f
    26b0:	f85f83a0 	ldur	x0, [x29, #-8]
    26b4:	f8414001 	ldur	x1, [x0, #20]
    26b8:	52800062 	mov	w2, #0x3                   	// #3
    26bc:	72a00002 	movk	w2, #0x0, lsl #16
    26c0:	d42000e0 	brk	#0x7
    26c4:	1400007a 	b	0x28ac
    26c8:	528001a2 	mov	w2, #0xd                   	// #13
    26cc:	72a00002 	movk	w2, #0x0, lsl #16
    26d0:	b85f43a4 	ldur	w4, [x29, #-12]
    26d4:	6b04005f 	cmp	w2, w4
    26d8:	54000a8a 	b.ge	0x2828  // b.tcont
    26dc:	d4200500 	brk	#0x28
    26e0:	528000a2 	mov	w2, #0x5                   	// #5
    26e4:	72a00002 	movk	w2, #0x0, lsl #16
    26e8:	d42000e0 	brk	#0x7
    26ec:	d4200500 	brk	#0x28
    26f0:	6b02003f 	cmp	w1, w2
    26f4:	540005aa 	b.ge	0x27a8  // b.tcont
    26f8:	d4200500 	brk	#0x28
    26fc:	52800242 	mov	w2, #0x12                  	// #18
    2700:	72a00002 	movk	w2, #0x0, lsl #16
    2704:	d4200120 	brk	#0x9
    2708:	528000e2 	mov	w2, #0x7                   	// #7
    270c:	72a00002 	movk	w2, #0x0, lsl #16
    2710:	d42001e0 	brk	#0xf
    2714:	52800002 	mov	w2, #0x0                   	// #0
    2718:	72a00002 	movk	w2, #0x0, lsl #16
    271c:	6b01005f 	cmp	w2, w1
    2720:	5400006a 	b.ge	0x272c  // b.tcont
    2724:	52800002 	mov	w2, #0x0                   	// #0
    2728:	72a00002 	movk	w2, #0x0, lsl #16
    272c:	2a0203e1 	mov	w1, w2
    2730:	f81f83a0 	stur	x0, [x29, #-8]
    2734:	b81f03a1 	stur	w1, [x29, #-16]
    2738:	b81ec3a2 	stur	w2, [x29, #-20]
    273c:	b81f43a4 	stur	w4, [x29, #-12]
    2740:	b85f03a0 	ldur	w0, [x29, #-16]
    2744:	d2905f91 	mov	x17, #0x82fc                	// #33532
    2748:	f2a031b1 	movk	x17, #0x18d, lsl #16
    274c:	f2c00ab1 	movk	x17, #0x55, lsl #32
    2750:	f2e00011 	movk	x17, #0x0, lsl #48
    2754:	d63f0220 	blr	x17
    2758:	52800001 	mov	w1, #0x0                   	// #0
    275c:	72a00001 	movk	w1, #0x0, lsl #16
    2760:	d4200500 	brk	#0x28
    2764:	52800002 	mov	w2, #0x0                   	// #0
    2768:	72a00002 	movk	w2, #0x0, lsl #16
    276c:	d4200500 	brk	#0x28
    2770:	f81c83a0 	stur	x0, [x29, #-56]
    2774:	b81ec3a1 	stur	w1, [x29, #-20]
    2778:	b81bc3a2 	stur	w2, [x29, #-68]
    277c:	f85c83a0 	ldur	x0, [x29, #-56]
    2780:	b85ec3a1 	ldur	w1, [x29, #-20]
    2784:	f85b03a2 	ldur	x2, [x29, #-80]
    2788:	b85bc3a3 	ldur	w3, [x29, #-68]
    278c:	b85ac3a4 	ldur	w4, [x29, #-84]
    2790:	d2906d91 	mov	x17, #0x836c                	// #33644
    2794:	f2a031b1 	movk	x17, #0x18d, lsl #16
    2798:	f2c00ab1 	movk	x17, #0x55, lsl #32
    279c:	f2e00011 	movk	x17, #0x0, lsl #48
    27a0:	d63f0220 	blr	x17
    27a4:	d4200520 	brk	#0x29
    27a8:	d4200520 	brk	#0x29
    27ac:	52800120 	mov	w0, #0x9                   	// #9
    27b0:	72a00000 	movk	w0, #0x0, lsl #16
    27b4:	d4200100 	brk	#0x8
    27b8:	b85f03a1 	ldur	w1, [x29, #-16]
    27bc:	b81f43a1 	stur	w1, [x29, #-12]
    27c0:	d4200500 	brk	#0x28
    27c4:	d4200500 	brk	#0x28
    27c8:	528000c2 	mov	w2, #0x6                   	// #6
    27cc:	72a00002 	movk	w2, #0x0, lsl #16
    27d0:	d42001e0 	brk	#0xf
    27d4:	52800142 	mov	w2, #0xa                   	// #10
    27d8:	72a00002 	movk	w2, #0x0, lsl #16
    27dc:	d42000e0 	brk	#0x7
    27e0:	d42009e0 	brk	#0x4f
    27e4:	d4200500 	brk	#0x28
    27e8:	d4200500 	brk	#0x28
    27ec:	52800060 	mov	w0, #0x3                   	// #3
    27f0:	72a00000 	movk	w0, #0x0, lsl #16
    27f4:	d42000e0 	brk	#0x7
    27f8:	528001c2 	mov	w2, #0xe                   	// #14
    27fc:	72a00002 	movk	w2, #0x0, lsl #16
    2800:	d4200220 	brk	#0x11
    2804:	528001e2 	mov	w2, #0xf                   	// #15
    2808:	72a00002 	movk	w2, #0x0, lsl #16
    280c:	d42000e0 	brk	#0x7
    2810:	d42009e0 	brk	#0x4f
    2814:	f85f83a3 	ldur	x3, [x29, #-8]
    2818:	f8414061 	ldur	x1, [x3, #20]
    281c:	528000a0 	mov	w0, #0x5                   	// #5
    2820:	72a00000 	movk	w0, #0x0, lsl #16
    2824:	d42000e0 	brk	#0x7
    2828:	14000021 	b	0x28ac
    282c:	d2958206 	mov	x6, #0xac10                	// #44048
    2830:	f2a000c6 	movk	x6, #0x6, lsl #16
    2834:	f2c00aa6 	movk	x6, #0x55, lsl #32
    2838:	f2e00006 	movk	x6, #0x0, lsl #48
    283c:	f84000c5 	ldur	x5, [x6]
    2840:	b85f43a6 	ldur	w6, [x29, #-12]
    2844:	2a0603e1 	mov	w1, w6
    2848:	d4200ae0 	brk	#0x57
    284c:	b81ec3a0 	stur	w0, [x29, #-20]
    2850:	b81f03a1 	stur	w1, [x29, #-16]
    2854:	b81ac3a2 	stur	w2, [x29, #-84]
    2858:	f81f83a3 	stur	x3, [x29, #-8]
    285c:	f81d83a5 	stur	x5, [x29, #-40]
    2860:	b81f43a6 	stur	w6, [x29, #-12]
    2864:	b85f03a0 	ldur	w0, [x29, #-16]
    2868:	f85d03a1 	ldur	x1, [x29, #-48]
    286c:	d292a211 	mov	x17, #0x9510                	// #38160
    2870:	f2a031d1 	movk	x17, #0x18e, lsl #16
    2874:	f2c00ab1 	movk	x17, #0x55, lsl #32
    2878:	f2e00011 	movk	x17, #0x0, lsl #48
    287c:	d63f0220 	blr	x17
    2880:	f81c83a0 	stur	x0, [x29, #-56]
    2884:	f85c83a0 	ldur	x0, [x29, #-56]
    2888:	b85f03a1 	ldur	w1, [x29, #-16]
    288c:	97fff8b9 	bl	0xb70
    2890:	f81c03a0 	stur	x0, [x29, #-64]
    2894:	f85d83a0 	ldur	x0, [x29, #-40]
    2898:	f85c03a1 	ldur	x1, [x29, #-64]
    289c:	97fff949 	bl	0xdc0
    28a0:	f81d83a0 	stur	x0, [x29, #-40]
    28a4:	f85d83a0 	ldur	x0, [x29, #-40]
    28a8:	940000ae 	bl	0x2b60
    28ac:	d4200880 	brk	#0x44
    28b0:	910183ff 	add	sp, sp, #0x60
    28b4:	a8c17bfd 	ldp	x29, x30, [sp], #16
    28b8:	d65f03c0 	ret
    28bc:	d503201f 	nop
    28c0:	a9bf7bfd 	stp	x29, x30, [sp, #-16]!
    28c4:	910003fd 	mov	x29, sp
    28c8:	d10103ff 	sub	sp, sp, #0x40
    28cc:	d4200500 	brk	#0x28
    28d0:	52800061 	mov	w1, #0x3                   	// #3
    28d4:	72a00001 	movk	w1, #0x0, lsl #16
    28d8:	d42000e0 	brk	#0x7
    28dc:	d4200500 	brk	#0x28
    28e0:	b85f43a2 	ldur	w2, [x29, #-12]
    28e4:	6b01005f 	cmp	w2, w1
    28e8:	5400058a 	b.ge	0x2998  // b.tcont
    28ec:	d4200500 	brk	#0x28
    28f0:	52800241 	mov	w1, #0x12                  	// #18
    28f4:	72a00001 	movk	w1, #0x0, lsl #16
    28f8:	d4200120 	brk	#0x9
    28fc:	528000e1 	mov	w1, #0x7                   	// #7
    2900:	72a00001 	movk	w1, #0x0, lsl #16
    2904:	d42001e0 	brk	#0xf
    2908:	52800001 	mov	w1, #0x0                   	// #0
    290c:	72a00001 	movk	w1, #0x0, lsl #16
    2910:	6b02003f 	cmp	w1, w2
    2914:	5400006a 	b.ge	0x2920  // b.tcont
    2918:	52800001 	mov	w1, #0x0                   	// #0
    291c:	72a00001 	movk	w1, #0x0, lsl #16
    2920:	2a0103e2 	mov	w2, w1
    2924:	f81f83a0 	stur	x0, [x29, #-8]
    2928:	b81f03a1 	stur	w1, [x29, #-16]
    292c:	b81f43a2 	stur	w2, [x29, #-12]
    2930:	b85f43a0 	ldur	w0, [x29, #-12]
    2934:	d2905f91 	mov	x17, #0x82fc                	// #33532
    2938:	f2a031b1 	movk	x17, #0x18d, lsl #16
    293c:	f2c00ab1 	movk	x17, #0x55, lsl #32
    2940:	f2e00011 	movk	x17, #0x0, lsl #48
    2944:	d63f0220 	blr	x17
    2948:	52800001 	mov	w1, #0x0                   	// #0
    294c:	72a00001 	movk	w1, #0x0, lsl #16
    2950:	d4200500 	brk	#0x28
    2954:	52800002 	mov	w2, #0x0                   	// #0
    2958:	72a00002 	movk	w2, #0x0, lsl #16
    295c:	d4200500 	brk	#0x28
    2960:	f81e03a0 	stur	x0, [x29, #-32]
    2964:	b81f03a1 	stur	w1, [x29, #-16]
    2968:	b81ec3a2 	stur	w2, [x29, #-20]
    296c:	f85e03a0 	ldur	x0, [x29, #-32]
    2970:	b85f03a1 	ldur	w1, [x29, #-16]
    2974:	f85d83a2 	ldur	x2, [x29, #-40]
    2978:	b85ec3a3 	ldur	w3, [x29, #-20]
    297c:	b85d43a4 	ldur	w4, [x29, #-44]
    2980:	d2906d91 	mov	x17, #0x836c                	// #33644
    2984:	f2a031b1 	movk	x17, #0x18d, lsl #16
    2988:	f2c00ab1 	movk	x17, #0x55, lsl #32
    298c:	f2e00011 	movk	x17, #0x0, lsl #48
    2990:	d63f0220 	blr	x17
    2994:	d4200520 	brk	#0x29
    2998:	d4200520 	brk	#0x29
    299c:	d4200500 	brk	#0x28
    29a0:	d4200500 	brk	#0x28
    29a4:	52800000 	mov	w0, #0x0                   	// #0
    29a8:	72a00000 	movk	w0, #0x0, lsl #16
    29ac:	d42009e0 	brk	#0x4f
    29b0:	d4200500 	brk	#0x28
    29b4:	d4200500 	brk	#0x28
    29b8:	528000e1 	mov	w1, #0x7                   	// #7
    29bc:	72a00001 	movk	w1, #0x0, lsl #16
    29c0:	d42001e0 	brk	#0xf
    29c4:	b81ec3a0 	stur	w0, [x29, #-20]
    29c8:	b81f03a1 	stur	w1, [x29, #-16]
    29cc:	d2853900 	mov	x0, #0x29c8                	// #10696
    29d0:	f2a000c0 	movk	x0, #0x6, lsl #16
    29d4:	f2c00aa0 	movk	x0, #0x55, lsl #32
    29d8:	f2e00000 	movk	x0, #0x0, lsl #48
    29dc:	d287fa11 	mov	x17, #0x3fd0                	// #16336
    29e0:	f2a031b1 	movk	x17, #0x18d, lsl #16
    29e4:	f2c00ab1 	movk	x17, #0x55, lsl #32
    29e8:	f2e00011 	movk	x17, #0x0, lsl #48
    29ec:	d63f0220 	blr	x17
    29f0:	f85f83a1 	ldur	x1, [x29, #-8]
    29f4:	f8055020 	stur	x0, [x1, #85]
    29f8:	910103ff 	add	sp, sp, #0x40
    29fc:	a8c17bfd 	ldp	x29, x30, [sp], #16
    2a00:	d65f03c0 	ret
    2a04:	d503201f 	nop
    2a08:	d503201f 	nop
    2a0c:	d503201f 	nop
    2a10:	a9bf7bfd 	stp	x29, x30, [sp, #-16]!
    2a14:	910003fd 	mov	x29, sp
    2a18:	d10083ff 	sub	sp, sp, #0x20
    2a1c:	f81f83a0 	stur	x0, [x29, #-8]
    2a20:	f85f83a0 	ldur	x0, [x29, #-8]
    2a24:	97ffffa7 	bl	0x28c0
    2a28:	7100001f 	cmp	w0, #0x0
    2a2c:	54000381 	b.ne	0x2a9c  // b.any
    2a30:	f81e83a0 	stur	x0, [x29, #-24]
    2a34:	d298b091 	mov	x17, #0xc584                	// #50564
    2a38:	f2a031b1 	movk	x17, #0x18d, lsl #16
    2a3c:	f2c00ab1 	movk	x17, #0x55, lsl #32
    2a40:	f2e00011 	movk	x17, #0x0, lsl #48
    2a44:	d63f0220 	blr	x17
    2a48:	f85e83a0 	ldur	x0, [x29, #-24]
    2a4c:	f8408001 	ldur	x1, [x0, #8]
    2a50:	910083ff 	add	sp, sp, #0x20
    2a54:	a8c17bfd 	ldp	x29, x30, [sp], #16
    2a58:	d65f03c0 	ret
    2a5c:	d503201f 	nop
    2a60:	a9bf7bfd 	stp	x29, x30, [sp, #-16]!
    2a64:	910003fd 	mov	x29, sp
    2a68:	d10043ff 	sub	sp, sp, #0x10
    2a6c:	d4200520 	brk	#0x29
    2a70:	910043ff 	add	sp, sp, #0x10
    2a74:	a8c17bfd 	ldp	x29, x30, [sp], #16
    2a78:	d65f03c0 	ret
    2a7c:	d503201f 	nop
    2a80:	a9bf7bfd 	stp	x29, x30, [sp, #-16]!
    2a84:	910003fd 	mov	x29, sp
    2a88:	d10083ff 	sub	sp, sp, #0x20
    2a8c:	d2958702 	mov	x2, #0xac38                	// #44088
    2a90:	f2a000c2 	movk	x2, #0x6, lsl #16
    2a94:	f2c00aa2 	movk	x2, #0x55, lsl #32
    2a98:	f2e00002 	movk	x2, #0x0, lsl #48
    2a9c:	f8400041 	ldur	x1, [x2]
    2aa0:	d4200500 	brk	#0x28
    2aa4:	f81f83a0 	stur	x0, [x29, #-8]
    2aa8:	f81f03a1 	stur	x1, [x29, #-16]
    2aac:	f85f03a0 	ldur	x0, [x29, #-16]
    2ab0:	f85e83a1 	ldur	x1, [x29, #-24]
    2ab4:	97fff8c3 	bl	0xdc0
    2ab8:	d2958102 	mov	x2, #0xac08                	// #44040
    2abc:	f2a000c2 	movk	x2, #0x6, lsl #16
    2ac0:	f2c00aa2 	movk	x2, #0x55, lsl #32
    2ac4:	f2e00002 	movk	x2, #0x0, lsl #48
    2ac8:	f8400041 	ldur	x1, [x2]
    2acc:	f81f03a0 	stur	x0, [x29, #-16]
    2ad0:	f81e83a1 	stur	x1, [x29, #-24]
    2ad4:	f85f03a0 	ldur	x0, [x29, #-16]
    2ad8:	f85e83a1 	ldur	x1, [x29, #-24]
    2adc:	97fff8b9 	bl	0xdc0
    2ae0:	910083ff 	add	sp, sp, #0x20
    2ae4:	a8c17bfd 	ldp	x29, x30, [sp], #16
    2ae8:	d65f03c0 	ret
    2aec:	d503201f 	nop
    2af0:	a9bf7bfd 	stp	x29, x30, [sp, #-16]!
    2af4:	910003fd 	mov	x29, sp
    2af8:	d10083ff 	sub	sp, sp, #0x20
    2afc:	f81f83a0 	stur	x0, [x29, #-8]
    2b00:	f85f83a0 	ldur	x0, [x29, #-8]
    2b04:	97ffffdf 	bl	0x2a80
    2b08:	7100001f 	cmp	w0, #0x0
    2b0c:	54000381 	b.ne	0x2b7c  // b.any
    2b10:	f81e83a0 	stur	x0, [x29, #-24]
    2b14:	d298b091 	mov	x17, #0xc584                	// #50564
    2b18:	f2a031b1 	movk	x17, #0x18d, lsl #16
    2b1c:	f2c00ab1 	movk	x17, #0x55, lsl #32
    2b20:	f2e00011 	movk	x17, #0x0, lsl #48
    2b24:	d63f0220 	blr	x17
    2b28:	f85e83a0 	ldur	x0, [x29, #-24]
    2b2c:	f8408001 	ldur	x1, [x0, #8]
    2b30:	910083ff 	add	sp, sp, #0x20
    2b34:	a8c17bfd 	ldp	x29, x30, [sp], #16
    2b38:	d65f03c0 	ret
    2b3c:	d503201f 	nop
    2b40:	a9bf7bfd 	stp	x29, x30, [sp, #-16]!
    2b44:	910003fd 	mov	x29, sp
    2b48:	d10083ff 	sub	sp, sp, #0x20
    2b4c:	f81f83a0 	stur	x0, [x29, #-8]
    2b50:	b81f43a1 	stur	w1, [x29, #-12]
    2b54:	b81f03a2 	stur	w2, [x29, #-16]
    2b58:	b85f03a0 	ldur	w0, [x29, #-16]
    2b5c:	d2905f91 	mov	x17, #0x82fc                	// #33532
    2b60:	f2a031b1 	movk	x17, #0x18d, lsl #16
    2b64:	f2c00ab1 	movk	x17, #0x55, lsl #32
    2b68:	f2e00011 	movk	x17, #0x0, lsl #48
    2b6c:	d63f0220 	blr	x17
    2b70:	52800001 	mov	w1, #0x0                   	// #0
    2b74:	72a00001 	movk	w1, #0x0, lsl #16
    2b78:	f81e83a0 	stur	x0, [x29, #-24]
    2b7c:	b81e43a1 	stur	w1, [x29, #-28]
    2b80:	f85e83a0 	ldur	x0, [x29, #-24]
    2b84:	b85e43a1 	ldur	w1, [x29, #-28]
    2b88:	f85f83a2 	ldur	x2, [x29, #-8]
    2b8c:	b85f43a3 	ldur	w3, [x29, #-12]
    2b90:	b85f03a4 	ldur	w4, [x29, #-16]
    2b94:	d2906d91 	mov	x17, #0x836c                	// #33644
    2b98:	f2a031b1 	movk	x17, #0x18d, lsl #16
    2b9c:	f2c00ab1 	movk	x17, #0x55, lsl #32
    2ba0:	f2e00011 	movk	x17, #0x0, lsl #48
    2ba4:	d63f0220 	blr	x17
    2ba8:	910083ff 	add	sp, sp, #0x20
    2bac:	a8c17bfd 	ldp	x29, x30, [sp], #16
    2bb0:	d65f03c0 	ret
    2bb4:	d503201f 	nop
    2bb8:	d503201f 	nop
    2bbc:	d503201f 	nop
    2bc0:	a9bf7bfd 	stp	x29, x30, [sp, #-16]!
    2bc4:	910003fd 	mov	x29, sp
    2bc8:	d10083ff 	sub	sp, sp, #0x20
    2bcc:	f81f83a0 	stur	x0, [x29, #-8]
    2bd0:	f85f83a0 	ldur	x0, [x29, #-8]
    2bd4:	97fff5ff 	bl	0x3d0
    2bd8:	7100001f 	cmp	w0, #0x0
    2bdc:	54000381 	b.ne	0x2c4c  // b.any
    2be0:	f81e83a0 	stur	x0, [x29, #-24]
    2be4:	d298b091 	mov	x17, #0xc584                	// #50564
    2be8:	f2a031b1 	movk	x17, #0x18d, lsl #16
    2bec:	f2c00ab1 	movk	x17, #0x55, lsl #32
    2bf0:	f2e00011 	movk	x17, #0x0, lsl #48
    2bf4:	d63f0220 	blr	x17
    2bf8:	f85e83a0 	ldur	x0, [x29, #-24]
    2bfc:	f8408001 	ldur	x1, [x0, #8]
    2c00:	f81e83a0 	stur	x0, [x29, #-24]
    2c04:	f81f03a1 	stur	x1, [x29, #-16]
    2c08:	f85f03a0 	ldur	x0, [x29, #-16]
    2c0c:	d2956b11 	mov	x17, #0xab58                	// #43864
    2c10:	f2a031d1 	movk	x17, #0x18e, lsl #16
    2c14:	f2c00ab1 	movk	x17, #0x55, lsl #32
    2c18:	f2e00011 	movk	x17, #0x0, lsl #48
    2c1c:	d63f0220 	blr	x17
    2c20:	d2958801 	mov	x1, #0xac40                	// #44096
    2c24:	f2a000c1 	movk	x1, #0x6, lsl #16
    2c28:	f2c00aa1 	movk	x1, #0x55, lsl #32
    2c2c:	f2e00001 	movk	x1, #0x0, lsl #48
    2c30:	f8400020 	ldur	x0, [x1]
    2c34:	7100001f 	cmp	w0, #0x0
    2c38:	54000381 	b.ne	0x2ca8  // b.any
    2c3c:	f81e83a0 	stur	x0, [x29, #-24]
    2c40:	d298b091 	mov	x17, #0xc584                	// #50564
    2c44:	f2a031b1 	movk	x17, #0x18d, lsl #16
    2c48:	f2c00ab1 	movk	x17, #0x55, lsl #32
    2c4c:	f2e00011 	movk	x17, #0x0, lsl #48
    2c50:	d63f0220 	blr	x17
    2c54:	f85e83a0 	ldur	x0, [x29, #-24]
    2c58:	f8408001 	ldur	x1, [x0, #8]
    2c5c:	f81e83a0 	stur	x0, [x29, #-24]
    2c60:	f81f03a1 	stur	x1, [x29, #-16]
    2c64:	f85f03a0 	ldur	x0, [x29, #-16]
    2c68:	d2956b11 	mov	x17, #0xab58                	// #43864
    2c6c:	f2a031d1 	movk	x17, #0x18e, lsl #16
    2c70:	f2c00ab1 	movk	x17, #0x55, lsl #32
    2c74:	f2e00011 	movk	x17, #0x0, lsl #48
    2c78:	d63f0220 	blr	x17
    2c7c:	910083ff 	add	sp, sp, #0x20
    2c80:	a8c17bfd 	ldp	x29, x30, [sp], #16
    2c84:	d65f03c0 	ret
    2c88:	d503201f 	nop
    2c8c:	d503201f 	nop
    2c90:	a9bf7bfd 	stp	x29, x30, [sp, #-16]!
    2c94:	910003fd 	mov	x29, sp
    2c98:	d10043ff 	sub	sp, sp, #0x10
    2c9c:	d29f3e91 	mov	x17, #0xf9f4                	// #63988
    2ca0:	f2a031b1 	movk	x17, #0x18d, lsl #16
    2ca4:	f2c00ab1 	movk	x17, #0x55, lsl #32
    2ca8:	f2e00011 	movk	x17, #0x0, lsl #48
    2cac:	d63f0220 	blr	x17
    2cb0:	d2958901 	mov	x1, #0xac48                	// #44104
    2cb4:	f2a000c1 	movk	x1, #0x6, lsl #16
    2cb8:	f2c00aa1 	movk	x1, #0x55, lsl #32
    2cbc:	f2e00001 	movk	x1, #0x0, lsl #48
    2cc0:	f8000020 	stur	x0, [x1]
    2cc4:	910043ff 	add	sp, sp, #0x10
    2cc8:	a8c17bfd 	ldp	x29, x30, [sp], #16
    2ccc:	d65f03c0 	ret
    2cd0:	a9bf7bfd 	stp	x29, x30, [sp, #-16]!
    2cd4:	910003fd 	mov	x29, sp
    2cd8:	d10103ff 	sub	sp, sp, #0x40
    2cdc:	f81f83a0 	stur	x0, [x29, #-8]
    2ce0:	f81f03a1 	stur	x1, [x29, #-16]
    2ce4:	f81e83a2 	stur	x2, [x29, #-24]
    2ce8:	f85f83a0 	ldur	x0, [x29, #-8]
    2cec:	d287fa11 	mov	x17, #0x3fd0                	// #16336
    2cf0:	f2a031b1 	movk	x17, #0x18d, lsl #16
    2cf4:	f2c00ab1 	movk	x17, #0x55, lsl #32
    2cf8:	f2e00011 	movk	x17, #0x0, lsl #48
    2cfc:	d63f0220 	blr	x17
    2d00:	f81e03a0 	stur	x0, [x29, #-32]
    2d04:	d13f83e0 	sub	x0, sp, #0xfe0
    2d08:	d2852901 	mov	x1, #0x2948                	// #10568
    2d0c:	f2a000c1 	movk	x1, #0x6, lsl #16
    2d10:	f2c00aa1 	movk	x1, #0x55, lsl #32
    2d14:	f2e00001 	movk	x1, #0x0, lsl #48
    2d18:	d2853502 	mov	x2, #0x29a8                	// #10664
    2d1c:	f2a000c2 	movk	x2, #0x6, lsl #16
    2d20:	f2c00aa2 	movk	x2, #0x55, lsl #32
    2d24:	f2e00002 	movk	x2, #0x0, lsl #48
    2d28:	d2942991 	mov	x17, #0xa14c                	// #41292
    2d2c:	f2a031b1 	movk	x17, #0x18d, lsl #16
    2d30:	f2c00ab1 	movk	x17, #0x55, lsl #32
    2d34:	f2e00011 	movk	x17, #0x0, lsl #48
    2d38:	d63f0220 	blr	x17
    2d3c:	f85f03a0 	ldur	x0, [x29, #-16]
    2d40:	f85d83a1 	ldur	x1, [x29, #-40]
    2d44:	d29aaf11 	mov	x17, #0xd578                	// #54648
    2d48:	f2a031d1 	movk	x17, #0x18e, lsl #16
    2d4c:	f2c00ab1 	movk	x17, #0x55, lsl #32
    2d50:	f2e00011 	movk	x17, #0x0, lsl #48
    2d54:	d63f0220 	blr	x17
    2d58:	f85d83a1 	ldur	x1, [x29, #-40]
    2d5c:	7100003f 	cmp	w1, #0x0
    2d60:	54000401 	b.ne	0x2de0  // b.any
    2d64:	381d73a0 	sturb	w0, [x29, #-41]
    2d68:	f81d83a1 	stur	x1, [x29, #-40]
    2d6c:	d298b091 	mov	x17, #0xc584                	// #50564
    2d70:	f2a031b1 	movk	x17, #0x18d, lsl #16
    2d74:	f2c00ab1 	movk	x17, #0x55, lsl #32
    2d78:	f2e00011 	movk	x17, #0x0, lsl #48
    2d7c:	d63f0220 	blr	x17
    2d80:	f85f83a0 	ldur	x0, [x29, #-8]
    2d84:	f85d83a1 	ldur	x1, [x29, #-40]
    2d88:	f8010001 	stur	x1, [x0, #16]
    2d8c:	f81f83a0 	stur	x0, [x29, #-8]
    2d90:	f81d83a1 	stur	x1, [x29, #-40]
    2d94:	d2853900 	mov	x0, #0x29c8                	// #10696
    2d98:	f2a000c0 	movk	x0, #0x6, lsl #16
    2d9c:	f2c00aa0 	movk	x0, #0x55, lsl #32
    2da0:	f2e00000 	movk	x0, #0x0, lsl #48
    2da4:	d287fa11 	mov	x17, #0x3fd0                	// #16336
    2da8:	f2a031b1 	movk	x17, #0x18d, lsl #16
    2dac:	f2c00ab1 	movk	x17, #0x55, lsl #32
    2db0:	f2e00011 	movk	x17, #0x0, lsl #48
    2db4:	d63f0220 	blr	x17
    2db8:	f85f83a1 	ldur	x1, [x29, #-8]
    2dbc:	f8002020 	stur	x0, [x1, #2]
    2dc0:	52800002 	mov	w2, #0x0                   	// #0
    2dc4:	72a00002 	movk	w2, #0x0, lsl #16
    2dc8:	f81c83a0 	stur	x0, [x29, #-56]
    2dcc:	f81f83a1 	stur	x1, [x29, #-8]
    2dd0:	b81c43a2 	stur	w2, [x29, #-60]
    2dd4:	f85e83a0 	ldur	x0, [x29, #-24]
    2dd8:	b85c43a1 	ldur	w1, [x29, #-60]
    2ddc:	d292e811 	mov	x17, #0x9740                	// #38720
    2de0:	f2a031d1 	movk	x17, #0x18e, lsl #16
    2de4:	f2c00ab1 	movk	x17, #0x55, lsl #32
    2de8:	f2e00011 	movk	x17, #0x0, lsl #48
    2dec:	d63f0220 	blr	x17
    2df0:	f85f03a1 	ldur	x1, [x29, #-16]
    2df4:	f85c83a2 	ldur	x2, [x29, #-56]
    2df8:	f8018022 	stur	x2, [x1, #24]
    2dfc:	f85e03a3 	ldur	x3, [x29, #-32]
    2e00:	f85d83a4 	ldur	x4, [x29, #-40]
    2e04:	f810c064 	stur	x4, [x3, #-244]
    2e08:	b81c43a0 	stur	w0, [x29, #-60]
    2e0c:	f81f03a1 	stur	x1, [x29, #-16]
    2e10:	f81c83a2 	stur	x2, [x29, #-56]
    2e14:	f81e03a3 	stur	x3, [x29, #-32]
    2e18:	f81d83a4 	stur	x4, [x29, #-40]
    2e1c:	f85e83a0 	ldur	x0, [x29, #-24]
    2e20:	f85d83a1 	ldur	x1, [x29, #-40]
    2e24:	940000ff 	bl	0x3220
    2e28:	910103ff 	add	sp, sp, #0x40
    2e2c:	a8c17bfd 	ldp	x29, x30, [sp], #16
    2e30:	d65f03c0 	ret
    2e34:	d503201f 	nop
    2e38:	d503201f 	nop
    2e3c:	d503201f 	nop
    2e40:	a9bf7bfd 	stp	x29, x30, [sp, #-16]!
    2e44:	910003fd 	mov	x29, sp
    2e48:	d101c3ff 	sub	sp, sp, #0x70
    2e4c:	f81f83a0 	stur	x0, [x29, #-8]
    2e50:	f81f03a1 	stur	x1, [x29, #-16]
    2e54:	f85f83a0 	ldur	x0, [x29, #-8]
    2e58:	d287fa11 	mov	x17, #0x3fd0                	// #16336
    2e5c:	f2a031b1 	movk	x17, #0x18d, lsl #16
    2e60:	f2c00ab1 	movk	x17, #0x55, lsl #32
    2e64:	f2e00011 	movk	x17, #0x0, lsl #48
    2e68:	d63f0220 	blr	x17
    2e6c:	f81e83a0 	stur	x0, [x29, #-24]
    2e70:	d13fa3e0 	sub	x0, sp, #0xfe8
    2e74:	d2852901 	mov	x1, #0x2948                	// #10568
    2e78:	f2a000c1 	movk	x1, #0x6, lsl #16
    2e7c:	f2c00aa1 	movk	x1, #0x55, lsl #32
    2e80:	f2e00001 	movk	x1, #0x0, lsl #48
    2e84:	d285e502 	mov	x2, #0x2f28                	// #12072
    2e88:	f2a000c2 	movk	x2, #0x6, lsl #16
    2e8c:	f2c00aa2 	movk	x2, #0x55, lsl #32
    2e90:	f2e00002 	movk	x2, #0x0, lsl #48
    2e94:	d2942991 	mov	x17, #0xa14c                	// #41292
    2e98:	f2a031b1 	movk	x17, #0x18d, lsl #16
    2e9c:	f2c00ab1 	movk	x17, #0x55, lsl #32
    2ea0:	f2e00011 	movk	x17, #0x0, lsl #48
    2ea4:	d63f0220 	blr	x17
    2ea8:	f85e03a0 	ldur	x0, [x29, #-32]
    2eac:	7100001f 	cmp	w0, #0x0
    2eb0:	54000381 	b.ne	0x2f20  // b.any
    2eb4:	f81e03a0 	stur	x0, [x29, #-32]
    2eb8:	d298b091 	mov	x17, #0xc584                	// #50564
    2ebc:	f2a031b1 	movk	x17, #0x18d, lsl #16
    2ec0:	f2c00ab1 	movk	x17, #0x55, lsl #32
    2ec4:	f2e00011 	movk	x17, #0x0, lsl #48
    2ec8:	d63f0220 	blr	x17
    2ecc:	f85f83a0 	ldur	x0, [x29, #-8]
    2ed0:	f85e03a1 	ldur	x1, [x29, #-32]
    2ed4:	f8010001 	stur	x1, [x0, #16]
    2ed8:	f81f83a0 	stur	x0, [x29, #-8]
    2edc:	f81e03a1 	stur	x1, [x29, #-32]
    2ee0:	f85f03a0 	ldur	x0, [x29, #-16]
    2ee4:	d299fb11 	mov	x17, #0xcfd8                	// #53208
    2ee8:	f2a031d1 	movk	x17, #0x18e, lsl #16
    2eec:	f2c00ab1 	movk	x17, #0x55, lsl #32
    2ef0:	f2e00011 	movk	x17, #0x0, lsl #48
    2ef4:	d63f0220 	blr	x17
    2ef8:	f85d03a1 	ldur	x1, [x29, #-48]
    2efc:	f85e03a2 	ldur	x2, [x29, #-32]
    2f00:	f8030022 	stur	x2, [x1, #48]
    2f04:	f81d83a0 	stur	x0, [x29, #-40]
    2f08:	f81d03a1 	stur	x1, [x29, #-48]
    2f0c:	f81e03a2 	stur	x2, [x29, #-32]
    2f10:	f85f03a0 	ldur	x0, [x29, #-16]
    2f14:	d2998791 	mov	x17, #0xcc3c                	// #52284
    2f18:	f2a031d1 	movk	x17, #0x18e, lsl #16
    2f1c:	f2c00ab1 	movk	x17, #0x55, lsl #32
    2f20:	f2e00011 	movk	x17, #0x0, lsl #48
    2f24:	d63f0220 	blr	x17
    2f28:	7100001f 	cmp	w0, #0x0
    2f2c:	54000041 	b.ne	0x2f34  // b.any
    2f30:	aa1f03e1 	mov	x1, xzr
    2f34:	1400001c 	b	0x2fa4
    2f38:	f81d03a0 	stur	x0, [x29, #-48]
    2f3c:	f81c03a1 	stur	x1, [x29, #-64]
    2f40:	d2853900 	mov	x0, #0x29c8                	// #10696
    2f44:	f2a000c0 	movk	x0, #0x6, lsl #16
    2f48:	f2c00aa0 	movk	x0, #0x55, lsl #32
    2f4c:	f2e00000 	movk	x0, #0x0, lsl #48
    2f50:	d287fa11 	mov	x17, #0x3fd0                	// #16336
    2f54:	f2a031b1 	movk	x17, #0x18d, lsl #16
    2f58:	f2c00ab1 	movk	x17, #0x55, lsl #32
    2f5c:	f2e00011 	movk	x17, #0x0, lsl #48
    2f60:	d63f0220 	blr	x17
    2f64:	f85f83a1 	ldur	x1, [x29, #-8]
    2f68:	f8003020 	stur	x0, [x1, #3]
    2f6c:	52800002 	mov	w2, #0x0                   	// #0
    2f70:	72a00002 	movk	w2, #0x0, lsl #16
    2f74:	f81c03a0 	stur	x0, [x29, #-64]
    2f78:	f81f83a1 	stur	x1, [x29, #-8]
    2f7c:	b81bc3a2 	stur	w2, [x29, #-68]
    2f80:	f85d03a0 	ldur	x0, [x29, #-48]
    2f84:	b85bc3a1 	ldur	w1, [x29, #-68]
    2f88:	d292e811 	mov	x17, #0x9740                	// #38720
    2f8c:	f2a031d1 	movk	x17, #0x18e, lsl #16
    2f90:	f2c00ab1 	movk	x17, #0x55, lsl #32
    2f94:	f2e00011 	movk	x17, #0x0, lsl #48
    2f98:	d63f0220 	blr	x17
    2f9c:	f85f03a1 	ldur	x1, [x29, #-16]
    2fa0:	f85c03a2 	ldur	x2, [x29, #-64]
    2fa4:	f8004022 	stur	x2, [x1, #4]
    2fa8:	f85e03a3 	ldur	x3, [x29, #-32]
    2fac:	f80fe063 	stur	x3, [x3, #254]
    2fb0:	b81bc3a0 	stur	w0, [x29, #-68]
    2fb4:	f81f03a1 	stur	x1, [x29, #-16]
    2fb8:	f81c03a2 	stur	x2, [x29, #-64]
    2fbc:	f81e03a3 	stur	x3, [x29, #-32]
    2fc0:	d29f3e91 	mov	x17, #0xf9f4                	// #63988
    2fc4:	f2a031b1 	movk	x17, #0x18d, lsl #16
    2fc8:	f2c00ab1 	movk	x17, #0x55, lsl #32
    2fcc:	f2e00011 	movk	x17, #0x0, lsl #48
    2fd0:	d63f0220 	blr	x17
    2fd4:	f85e03a2 	ldur	x2, [x29, #-32]
    2fd8:	f81b03a0 	stur	x0, [x29, #-80]
    2fdc:	f81e03a2 	stur	x2, [x29, #-32]
    2fe0:	d285e900 	mov	x0, #0x2f48                	// #12104
    2fe4:	f2a000c0 	movk	x0, #0x6, lsl #16
    2fe8:	f2c00aa0 	movk	x0, #0x55, lsl #32
    2fec:	f2e00000 	movk	x0, #0x0, lsl #48
    2ff0:	d287fa11 	mov	x17, #0x3fd0                	// #16336
    2ff4:	f2a031b1 	movk	x17, #0x18d, lsl #16
    2ff8:	f2c00ab1 	movk	x17, #0x55, lsl #32
    2ffc:	f2e00011 	movk	x17, #0x0, lsl #48
    3000:	d63f0220 	blr	x17
    3004:	f81a03a0 	stur	x0, [x29, #-96]
    3008:	f85a03a0 	ldur	x0, [x29, #-96]
    300c:	940000b1 	bl	0x32d0
    3010:	f85d83a0 	ldur	x0, [x29, #-40]
    3014:	f85e03a1 	ldur	x1, [x29, #-32]
    3018:	f8001001 	stur	x1, [x0, #1]
    301c:	f81d83a0 	stur	x0, [x29, #-40]
    3020:	f81e03a1 	stur	x1, [x29, #-32]
    3024:	f85f03a0 	ldur	x0, [x29, #-16]
    3028:	d299e891 	mov	x17, #0xcf44                	// #53060
    302c:	f2a031d1 	movk	x17, #0x18e, lsl #16
    3030:	f2c00ab1 	movk	x17, #0x55, lsl #32
    3034:	f2e00011 	movk	x17, #0x0, lsl #48
    3038:	d63f0220 	blr	x17
    303c:	52800001 	mov	w1, #0x0                   	// #0
    3040:	72a00001 	movk	w1, #0x0, lsl #16
    3044:	d4200a60 	brk	#0x53
    3048:	b859c3a2 	ldur	w2, [x29, #-100]
    304c:	6b01005f 	cmp	w2, w1
    3050:	5400098a 	b.ge	0x3180  // b.tcont
    3054:	b81983a1 	stur	w1, [x29, #-104]
    3058:	f85f83a3 	ldur	x3, [x29, #-8]
    305c:	11000461 	add	w1, w3, #0x1
    3060:	d42009a0 	brk	#0x4d
    3064:	f85e03a4 	ldur	x4, [x29, #-32]
    3068:	7100009f 	cmp	w4, #0x0
    306c:	54000581 	b.ne	0x311c  // b.any
    3070:	f81d83a0 	stur	x0, [x29, #-40]
    3074:	b81bc3a1 	stur	w1, [x29, #-68]
    3078:	b819c3a2 	stur	w2, [x29, #-100]
    307c:	f81f83a3 	stur	x3, [x29, #-8]
    3080:	f81e03a4 	stur	x4, [x29, #-32]
    3084:	d298b091 	mov	x17, #0xc584                	// #50564
    3088:	f2a031b1 	movk	x17, #0x18d, lsl #16
    308c:	f2c00ab1 	movk	x17, #0x55, lsl #32
    3090:	f2e00011 	movk	x17, #0x0, lsl #48
    3094:	d63f0220 	blr	x17
    3098:	f85e03a0 	ldur	x0, [x29, #-32]
    309c:	f8428001 	ldur	x1, [x0, #40]
    30a0:	d4200760 	brk	#0x3b
    30a4:	f81e03a0 	stur	x0, [x29, #-32]
    30a8:	f81a83a1 	stur	x1, [x29, #-88]
    30ac:	f85a83a0 	ldur	x0, [x29, #-88]
    30b0:	f85c83a1 	ldur	x1, [x29, #-56]
    30b4:	f85e83a2 	ldur	x2, [x29, #-24]
    30b8:	d29f4711 	mov	x17, #0xfa38                	// #64056
    30bc:	f2a031b1 	movk	x17, #0x18d, lsl #16
    30c0:	f2c00ab1 	movk	x17, #0x55, lsl #32
    30c4:	f2e00011 	movk	x17, #0x0, lsl #48
    30c8:	d63f0220 	blr	x17
    30cc:	f85e03a0 	ldur	x0, [x29, #-32]
    30d0:	f8430001 	ldur	x1, [x0, #48]
    30d4:	f81e03a0 	stur	x0, [x29, #-32]
    30d8:	f81a03a1 	stur	x1, [x29, #-96]
    30dc:	d2853900 	mov	x0, #0x29c8                	// #10696
    30e0:	f2a000c0 	movk	x0, #0x6, lsl #16
    30e4:	f2c00aa0 	movk	x0, #0x55, lsl #32
    30e8:	f2e00000 	movk	x0, #0x0, lsl #48
    30ec:	d287fa11 	mov	x17, #0x3fd0                	// #16336
    30f0:	f2a031b1 	movk	x17, #0x18d, lsl #16
    30f4:	f2c00ab1 	movk	x17, #0x55, lsl #32
    30f8:	f2e00011 	movk	x17, #0x0, lsl #48
    30fc:	d63f0220 	blr	x17
    3100:	f85f83a1 	ldur	x1, [x29, #-8]
    3104:	f8000020 	stur	x0, [x1]
    3108:	52800002 	mov	w2, #0x0                   	// #0
    310c:	72a00002 	movk	w2, #0x0, lsl #16
    3110:	f81c03a0 	stur	x0, [x29, #-64]
    3114:	f81f83a1 	stur	x1, [x29, #-8]
    3118:	b81943a2 	stur	w2, [x29, #-108]
    311c:	f85c83a0 	ldur	x0, [x29, #-56]
    3120:	b85943a1 	ldur	w1, [x29, #-108]
    3124:	d292e811 	mov	x17, #0x9740                	// #38720
    3128:	f2a031d1 	movk	x17, #0x18e, lsl #16
    312c:	f2c00ab1 	movk	x17, #0x55, lsl #32
    3130:	f2e00011 	movk	x17, #0x0, lsl #48
    3134:	d63f0220 	blr	x17
    3138:	f85f03a1 	ldur	x1, [x29, #-16]
    313c:	f85c03a2 	ldur	x2, [x29, #-64]
    3140:	f8055022 	stur	x2, [x1, #85]
    3144:	f85a03a3 	ldur	x3, [x29, #-96]
    3148:	7100007f 	cmp	w3, #0x0
    314c:	54000501 	b.ne	0x31ec  // b.any
    3150:	b81943a0 	stur	w0, [x29, #-108]
    3154:	f81f03a1 	stur	x1, [x29, #-16]
    3158:	f81c03a2 	stur	x2, [x29, #-64]
    315c:	f81a03a3 	stur	x3, [x29, #-96]
    3160:	d298b091 	mov	x17, #0xc584                	// #50564
    3164:	f2a031b1 	movk	x17, #0x18d, lsl #16
    3168:	f2c00ab1 	movk	x17, #0x55, lsl #32
    316c:	f2e00011 	movk	x17, #0x0, lsl #48
    3170:	d63f0220 	blr	x17
    3174:	f85a03a0 	ldur	x0, [x29, #-96]
    3178:	f85c03a1 	ldur	x1, [x29, #-64]
    317c:	94000031 	bl	0x3240
    3180:	17ffffb1 	b	0x3044
    3184:	f85e03a1 	ldur	x1, [x29, #-32]
    3188:	7100003f 	cmp	w1, #0x0
    318c:	54000401 	b.ne	0x320c  // b.any
    3190:	b81943a0 	stur	w0, [x29, #-108]
    3194:	f81e03a1 	stur	x1, [x29, #-32]
    3198:	d298b091 	mov	x17, #0xc584                	// #50564
    319c:	f2a031b1 	movk	x17, #0x18d, lsl #16
    31a0:	f2c00ab1 	movk	x17, #0x55, lsl #32
    31a4:	f2e00011 	movk	x17, #0x0, lsl #48
    31a8:	d63f0220 	blr	x17
    31ac:	f85e03a0 	ldur	x0, [x29, #-32]
    31b0:	f8420001 	ldur	x1, [x0, #32]
    31b4:	7100003f 	cmp	w1, #0x0
    31b8:	54000401 	b.ne	0x3238  // b.any
    31bc:	f81e03a0 	stur	x0, [x29, #-32]
    31c0:	f81c03a1 	stur	x1, [x29, #-64]
    31c4:	d298b091 	mov	x17, #0xc584                	// #50564
    31c8:	f2a031b1 	movk	x17, #0x18d, lsl #16
    31cc:	f2c00ab1 	movk	x17, #0x55, lsl #32
    31d0:	f2e00011 	movk	x17, #0x0, lsl #48
    31d4:	d63f0220 	blr	x17
    31d8:	f85c03a0 	ldur	x0, [x29, #-64]
    31dc:	f8408001 	ldur	x1, [x0, #8]
    31e0:	f81c03a0 	stur	x0, [x29, #-64]
    31e4:	f81c83a1 	stur	x1, [x29, #-56]
    31e8:	f85c83a0 	ldur	x0, [x29, #-56]
    31ec:	f85e03a1 	ldur	x1, [x29, #-32]
    31f0:	9400000c 	bl	0x3220
    31f4:	f85f03a0 	ldur	x0, [x29, #-16]
    31f8:	f85e03a1 	ldur	x1, [x29, #-32]
    31fc:	d29aaf11 	mov	x17, #0xd578                	// #54648
    3200:	f2a031d1 	movk	x17, #0x18e, lsl #16
    3204:	f2c00ab1 	movk	x17, #0x55, lsl #32
    3208:	f2e00011 	movk	x17, #0x0, lsl #48
    320c:	d63f0220 	blr	x17
    3210:	9101c3ff 	add	sp, sp, #0x70
    3214:	a8c17bfd 	ldp	x29, x30, [sp], #16
    3218:	d65f03c0 	ret
    321c:	d503201f 	nop
    3220:	a9bf7bfd 	stp	x29, x30, [sp, #-16]!
    3224:	910003fd 	mov	x29, sp
    3228:	d10083ff 	sub	sp, sp, #0x20
    322c:	d2958903 	mov	x3, #0xac48                	// #44104
    3230:	f2a000c3 	movk	x3, #0x6, lsl #16
    3234:	f2c00aa3 	movk	x3, #0x55, lsl #32
    3238:	f2e00003 	movk	x3, #0x0, lsl #48
    323c:	f8400062 	ldur	x2, [x3]
    3240:	f81f83a0 	stur	x0, [x29, #-8]
    3244:	f81f03a1 	stur	x1, [x29, #-16]
    3248:	f81e83a2 	stur	x2, [x29, #-24]
    324c:	f85e83a0 	ldur	x0, [x29, #-24]
    3250:	f85f83a1 	ldur	x1, [x29, #-8]
    3254:	f85f03a2 	ldur	x2, [x29, #-16]
    3258:	d29f4711 	mov	x17, #0xfa38                	// #64056
    325c:	f2a031b1 	movk	x17, #0x18d, lsl #16
    3260:	f2c00ab1 	movk	x17, #0x55, lsl #32
    3264:	f2e00011 	movk	x17, #0x0, lsl #48
    3268:	d63f0220 	blr	x17
    326c:	910083ff 	add	sp, sp, #0x20
    3270:	a8c17bfd 	ldp	x29, x30, [sp], #16
    3274:	d65f03c0 	ret
    3278:	d503201f 	nop
    327c:	d503201f 	nop
    3280:	a9bf7bfd 	stp	x29, x30, [sp, #-16]!
    3284:	910003fd 	mov	x29, sp
    3288:	d100c3ff 	sub	sp, sp, #0x30
    328c:	d2958b02 	mov	x2, #0xac58                	// #44120
    3290:	f2a000c2 	movk	x2, #0x6, lsl #16
    3294:	f2c00aa2 	movk	x2, #0x55, lsl #32
    3298:	f2e00002 	movk	x2, #0x0, lsl #48
    329c:	f8400041 	ldur	x1, [x2]
    32a0:	f81f83a0 	stur	x0, [x29, #-8]
    32a4:	f81e83a1 	stur	x1, [x29, #-24]
    32a8:	f85f83a0 	ldur	x0, [x29, #-8]
    32ac:	f85e83a1 	ldur	x1, [x29, #-24]
    32b0:	97fff3e4 	bl	0x240
    32b4:	7100001f 	cmp	w0, #0x0
    32b8:	54000240 	b.eq	0x3300  // b.none
    32bc:	381f73a0 	sturb	w0, [x29, #-9]
    32c0:	d13fe3e0 	sub	x0, sp, #0xff8
    32c4:	d2852901 	mov	x1, #0x2948                	// #10568
    32c8:	f2a000c1 	movk	x1, #0x6, lsl #16
    32cc:	f2c00aa1 	movk	x1, #0x55, lsl #32
    32d0:	f2e00001 	movk	x1, #0x0, lsl #48
    32d4:	d285c102 	mov	x2, #0x2e08                	// #11784
    32d8:	f2a000c2 	movk	x2, #0x6, lsl #16
    32dc:	f2c00aa2 	movk	x2, #0x55, lsl #32
    32e0:	f2e00002 	movk	x2, #0x0, lsl #48
    32e4:	d2942991 	mov	x17, #0xa14c                	// #41292
    32e8:	f2a031b1 	movk	x17, #0x18d, lsl #16
    32ec:	f2c00ab1 	movk	x17, #0x55, lsl #32
    32f0:	f2e00011 	movk	x17, #0x0, lsl #48
    32f4:	d63f0220 	blr	x17
    32f8:	9100c3ff 	add	sp, sp, #0x30
    32fc:	a8c17bfd 	ldp	x29, x30, [sp], #16
    3300:	d65f03c0 	ret
    3304:	d287a500 	mov	x0, #0x3d28                	// #15656
    3308:	f2a000c0 	movk	x0, #0x6, lsl #16
    330c:	f2c00aa0 	movk	x0, #0x55, lsl #32
    3310:	f2e00000 	movk	x0, #0x0, lsl #48
    3314:	d287fa11 	mov	x17, #0x3fd0                	// #16336
    3318:	f2a031b1 	movk	x17, #0x18d, lsl #16
    331c:	f2c00ab1 	movk	x17, #0x55, lsl #32
    3320:	f2e00011 	movk	x17, #0x0, lsl #48
    3324:	d63f0220 	blr	x17
    3328:	aa1f03e1 	mov	x1, xzr
    332c:	f81d83a0 	stur	x0, [x29, #-40]
    3330:	f81e03a1 	stur	x1, [x29, #-32]
    3334:	f85d83a0 	ldur	x0, [x29, #-40]
    3338:	f85f83a1 	ldur	x1, [x29, #-8]
    333c:	f85e03a2 	ldur	x2, [x29, #-32]
    3340:	f85f83a3 	ldur	x3, [x29, #-8]
    3344:	940000cb 	bl	0x3670
    3348:	9100c3ff 	add	sp, sp, #0x30
    334c:	a8c17bfd 	ldp	x29, x30, [sp], #16
    3350:	d65f03c0 	ret
    3354:	d503201f 	nop
    3358:	d503201f 	nop
    335c:	d503201f 	nop
    3360:	a9bf7bfd 	stp	x29, x30, [sp, #-16]!
    3364:	910003fd 	mov	x29, sp
    3368:	d10103ff 	sub	sp, sp, #0x40
    336c:	d2958b02 	mov	x2, #0xac58                	// #44120
    3370:	f2a000c2 	movk	x2, #0x6, lsl #16
    3374:	f2c00aa2 	movk	x2, #0x55, lsl #32
    3378:	f2e00002 	movk	x2, #0x0, lsl #48
    337c:	f8400041 	ldur	x1, [x2]
    3380:	f81f83a0 	stur	x0, [x29, #-8]
    3384:	f81e03a1 	stur	x1, [x29, #-32]
    3388:	f85f83a0 	ldur	x0, [x29, #-8]
    338c:	f85e03a1 	ldur	x1, [x29, #-32]
    3390:	97fff3ac 	bl	0x240
    3394:	7100001f 	cmp	w0, #0x0
    3398:	540003a0 	b.eq	0x340c  // b.none
    339c:	381f73a0 	sturb	w0, [x29, #-9]
    33a0:	d13fe3e0 	sub	x0, sp, #0xff8
    33a4:	d2852901 	mov	x1, #0x2948                	// #10568
    33a8:	f2a000c1 	movk	x1, #0x6, lsl #16
    33ac:	f2c00aa1 	movk	x1, #0x55, lsl #32
    33b0:	f2e00001 	movk	x1, #0x0, lsl #48
    33b4:	d285c102 	mov	x2, #0x2e08                	// #11784
    33b8:	f2a000c2 	movk	x2, #0x6, lsl #16
    33bc:	f2c00aa2 	movk	x2, #0x55, lsl #32
    33c0:	f2e00002 	movk	x2, #0x0, lsl #48
    33c4:	d2942991 	mov	x17, #0xa14c                	// #41292
    33c8:	f2a031b1 	movk	x17, #0x18d, lsl #16
    33cc:	f2c00ab1 	movk	x17, #0x55, lsl #32
    33d0:	f2e00011 	movk	x17, #0x0, lsl #48
    33d4:	d63f0220 	blr	x17
    33d8:	f85d83a0 	ldur	x0, [x29, #-40]
    33dc:	7100001f 	cmp	w0, #0x0
    33e0:	54000381 	b.ne	0x3450  // b.any
    33e4:	f81d83a0 	stur	x0, [x29, #-40]
    33e8:	d298b091 	mov	x17, #0xc584                	// #50564
    33ec:	f2a031b1 	movk	x17, #0x18d, lsl #16
    33f0:	f2c00ab1 	movk	x17, #0x55, lsl #32
    33f4:	f2e00011 	movk	x17, #0x0, lsl #48
    33f8:	d63f0220 	blr	x17
    33fc:	f85d83a0 	ldur	x0, [x29, #-40]
    3400:	94000074 	bl	0x35d0
    3404:	910103ff 	add	sp, sp, #0x40
    3408:	a8c17bfd 	ldp	x29, x30, [sp], #16
    340c:	d65f03c0 	ret
    3410:	f81e83a0 	stur	x0, [x29, #-24]
    3414:	d287a500 	mov	x0, #0x3d28                	// #15656
    3418:	f2a000c0 	movk	x0, #0x6, lsl #16
    341c:	f2c00aa0 	movk	x0, #0x55, lsl #32
    3420:	f2e00000 	movk	x0, #0x0, lsl #48
    3424:	d287fa11 	mov	x17, #0x3fd0                	// #16336
    3428:	f2a031b1 	movk	x17, #0x18d, lsl #16
    342c:	f2c00ab1 	movk	x17, #0x55, lsl #32
    3430:	f2e00011 	movk	x17, #0x0, lsl #48
    3434:	d63f0220 	blr	x17
    3438:	aa1f03e1 	mov	x1, xzr
    343c:	aa1f03e2 	mov	x2, xzr
    3440:	f81d03a0 	stur	x0, [x29, #-48]
    3444:	f81d83a1 	stur	x1, [x29, #-40]
    3448:	f81c83a2 	stur	x2, [x29, #-56]
    344c:	f85d03a0 	ldur	x0, [x29, #-48]
    3450:	f85f83a1 	ldur	x1, [x29, #-8]
    3454:	f85d83a2 	ldur	x2, [x29, #-40]
    3458:	f85c83a3 	ldur	x3, [x29, #-56]
    345c:	94000085 	bl	0x3670
    3460:	f85d03a0 	ldur	x0, [x29, #-48]
    3464:	f8418001 	ldur	x1, [x0, #24]
    3468:	f85f83a2 	ldur	x2, [x29, #-8]
    346c:	11000441 	add	w1, w2, #0x1
    3470:	385f73a3 	ldurb	w3, [x29, #-9]
    3474:	381c8060 	sturb	w0, [x3, #-56]
    3478:	910103ff 	add	sp, sp, #0x40
    347c:	a8c17bfd 	ldp	x29, x30, [sp], #16
    3480:	d65f03c0 	ret
    3484:	d503201f 	nop
    3488:	d503201f 	nop
    348c:	d503201f 	nop
    3490:	a9bf7bfd 	stp	x29, x30, [sp, #-16]!
    3494:	910003fd 	mov	x29, sp
    3498:	d100c3ff 	sub	sp, sp, #0x30
    349c:	52800004 	mov	w4, #0x0                   	// #0
    34a0:	72a00004 	movk	w4, #0x0, lsl #16
    34a4:	d4200520 	brk	#0x29
    34a8:	d4200520 	brk	#0x29
    34ac:	d4200520 	brk	#0x29
    34b0:	7100007f 	cmp	w3, #0x0
    34b4:	540001a0 	b.eq	0x34e8  // b.none
    34b8:	f81f83a0 	stur	x0, [x29, #-8]
    34bc:	f81f03a1 	stur	x1, [x29, #-16]
    34c0:	f81e83a2 	stur	x2, [x29, #-24]
    34c4:	f81e03a3 	stur	x3, [x29, #-32]
    34c8:	b81dc3a4 	stur	w4, [x29, #-36]
    34cc:	d2991611 	mov	x17, #0xc8b0                	// #51376
    34d0:	f2a031b1 	movk	x17, #0x18d, lsl #16
    34d4:	f2c00ab1 	movk	x17, #0x55, lsl #32
    34d8:	f2e00011 	movk	x17, #0x0, lsl #48
    34dc:	d63f0220 	blr	x17
    34e0:	d4200520 	brk	#0x29
    34e4:	d4200520 	brk	#0x29
    34e8:	14000004 	b	0x34f8
    34ec:	f81d03a0 	stur	x0, [x29, #-48]
    34f0:	940000cc 	bl	0x3820
    34f4:	d4200520 	brk	#0x29
    34f8:	d4200520 	brk	#0x29
    34fc:	9100c3ff 	add	sp, sp, #0x30
    3500:	a8c17bfd 	ldp	x29, x30, [sp], #16
    3504:	d65f03c0 	ret
    3508:	d503201f 	nop
    350c:	d503201f 	nop
    3510:	a9bf7bfd 	stp	x29, x30, [sp, #-16]!
    3514:	910003fd 	mov	x29, sp
    3518:	d10043ff 	sub	sp, sp, #0x10
    351c:	d4200500 	brk	#0x28
    3520:	910043ff 	add	sp, sp, #0x10
    3524:	a8c17bfd 	ldp	x29, x30, [sp], #16
    3528:	d65f03c0 	ret
    352c:	d503201f 	nop
    3530:	a9bf7bfd 	stp	x29, x30, [sp, #-16]!
    3534:	910003fd 	mov	x29, sp
    3538:	d10043ff 	sub	sp, sp, #0x10
    353c:	f81f83a0 	stur	x0, [x29, #-8]
    3540:	f85f83a0 	ldur	x0, [x29, #-8]
    3544:	9400001b 	bl	0x35b0
    3548:	910043ff 	add	sp, sp, #0x10
    354c:	a8c17bfd 	ldp	x29, x30, [sp], #16
    3550:	d65f03c0 	ret
    3554:	d503201f 	nop
    3558:	d503201f 	nop
    355c:	d503201f 	nop
    3560:	a9bf7bfd 	stp	x29, x30, [sp, #-16]!
    3564:	910003fd 	mov	x29, sp
    3568:	d10083ff 	sub	sp, sp, #0x20
    356c:	d42003e0 	brk	#0x1f
    3570:	f85e83a1 	ldur	x1, [x29, #-24]
    3574:	7100003f 	cmp	w1, #0x0
    3578:	54000401 	b.ne	0x35f8  // b.any
    357c:	f81f83a0 	stur	x0, [x29, #-8]
    3580:	f81e83a1 	stur	x1, [x29, #-24]
    3584:	d298b091 	mov	x17, #0xc584                	// #50564
    3588:	f2a031b1 	movk	x17, #0x18d, lsl #16
    358c:	f2c00ab1 	movk	x17, #0x55, lsl #32
    3590:	f2e00011 	movk	x17, #0x0, lsl #48
    3594:	d63f0220 	blr	x17
    3598:	f85e83a0 	ldur	x0, [x29, #-24]
    359c:	f8408001 	ldur	x1, [x0, #8]
    35a0:	910083ff 	add	sp, sp, #0x20
    35a4:	a8c17bfd 	ldp	x29, x30, [sp], #16
    35a8:	d65f03c0 	ret
    35ac:	d503201f 	nop
    35b0:	a9bf7bfd 	stp	x29, x30, [sp, #-16]!
    35b4:	910003fd 	mov	x29, sp
    35b8:	d10043ff 	sub	sp, sp, #0x10
    35bc:	d4200500 	brk	#0x28
    35c0:	910043ff 	add	sp, sp, #0x10
    35c4:	a8c17bfd 	ldp	x29, x30, [sp], #16
    35c8:	d65f03c0 	ret
    35cc:	d503201f 	nop
    35d0:	a9bf7bfd 	stp	x29, x30, [sp, #-16]!
    35d4:	910003fd 	mov	x29, sp
    35d8:	d10043ff 	sub	sp, sp, #0x10
    35dc:	d4200500 	brk	#0x28
    35e0:	910043ff 	add	sp, sp, #0x10
    35e4:	a8c17bfd 	ldp	x29, x30, [sp], #16
    35e8:	d65f03c0 	ret
    35ec:	d503201f 	nop
    35f0:	a9bf7bfd 	stp	x29, x30, [sp, #-16]!
    35f4:	910003fd 	mov	x29, sp
    35f8:	d101c3ff 	sub	sp, sp, #0x70
    35fc:	f81f83a0 	stur	x0, [x29, #-8]
    3600:	f81f03a1 	stur	x1, [x29, #-16]
    3604:	f85f83a0 	ldur	x0, [x29, #-8]
    3608:	97fff372 	bl	0x3d0
    360c:	f85f03a1 	ldur	x1, [x29, #-16]
    3610:	7100003f 	cmp	w1, #0x0
    3614:	54000061 	b.ne	0x3620  // b.any
    3618:	9101c3ff 	add	sp, sp, #0x70
    361c:	a8c17bfd 	ldp	x29, x30, [sp], #16
    3620:	d65f03c0 	ret
    3624:	7100003f 	cmp	w1, #0x0
    3628:	54000401 	b.ne	0x36a8  // b.any
    362c:	f81e83a0 	stur	x0, [x29, #-24]
    3630:	f81f03a1 	stur	x1, [x29, #-16]
    3634:	d298b091 	mov	x17, #0xc584                	// #50564
    3638:	f2a031b1 	movk	x17, #0x18d, lsl #16
    363c:	f2c00ab1 	movk	x17, #0x55, lsl #32
    3640:	f2e00011 	movk	x17, #0x0, lsl #48
    3644:	d63f0220 	blr	x17
    3648:	d42004c0 	brk	#0x26
    364c:	d2958d01 	mov	x1, #0xac68                	// #44136
    3650:	f2a000c1 	movk	x1, #0x6, lsl #16
    3654:	f2c00aa1 	movk	x1, #0x55, lsl #32
    3658:	f2e00001 	movk	x1, #0x0, lsl #48
    365c:	f8400020 	ldur	x0, [x1]
    3660:	f81d03a0 	stur	x0, [x29, #-48]
    3664:	f85d83a0 	ldur	x0, [x29, #-40]
    3668:	f85d03a1 	ldur	x1, [x29, #-48]
    366c:	97fff5d5 	bl	0xdc0
    3670:	d42004c0 	brk	#0x26
    3674:	d4200ae0 	brk	#0x57
    3678:	f81d83a0 	stur	x0, [x29, #-40]
    367c:	b85cc3a0 	ldur	w0, [x29, #-52]
    3680:	f85c03a1 	ldur	x1, [x29, #-64]
    3684:	d292a211 	mov	x17, #0x9510                	// #38160
    3688:	f2a031d1 	movk	x17, #0x18e, lsl #16
    368c:	f2c00ab1 	movk	x17, #0x55, lsl #32
    3690:	f2e00011 	movk	x17, #0x0, lsl #48
    3694:	d63f0220 	blr	x17
    3698:	f81b83a0 	stur	x0, [x29, #-72]
    369c:	f85b83a0 	ldur	x0, [x29, #-72]
    36a0:	b85cc3a1 	ldur	w1, [x29, #-52]
    36a4:	97fff533 	bl	0xb70
    36a8:	f81d03a0 	stur	x0, [x29, #-48]
    36ac:	f85d83a0 	ldur	x0, [x29, #-40]
    36b0:	f85d03a1 	ldur	x1, [x29, #-48]
    36b4:	97fff5c3 	bl	0xdc0
    36b8:	d42004c0 	brk	#0x26
    36bc:	f85b03a1 	ldur	x1, [x29, #-80]
    36c0:	7100003f 	cmp	w1, #0x0
    36c4:	54000540 	b.eq	0x376c  // b.none
    36c8:	52800002 	mov	w2, #0x0                   	// #0
    36cc:	72a00002 	movk	w2, #0x0, lsl #16
    36d0:	d42004c0 	brk	#0x26
    36d4:	7100003f 	cmp	w1, #0x0
    36d8:	54000481 	b.ne	0x3768  // b.any
    36dc:	f81d83a0 	stur	x0, [x29, #-40]
    36e0:	f81b03a1 	stur	x1, [x29, #-80]
    36e4:	b81cc3a2 	stur	w2, [x29, #-52]
    36e8:	d298b091 	mov	x17, #0xc584                	// #50564
    36ec:	f2a031b1 	movk	x17, #0x18d, lsl #16
    36f0:	f2c00ab1 	movk	x17, #0x55, lsl #32
    36f4:	f2e00011 	movk	x17, #0x0, lsl #48
    36f8:	d63f0220 	blr	x17
    36fc:	f85b03a0 	ldur	x0, [x29, #-80]
    3700:	9400004c 	bl	0x3830
    3704:	b85cc3a1 	ldur	w1, [x29, #-52]
    3708:	6b01001f 	cmp	w0, w1
    370c:	5400030a 	b.ge	0x376c  // b.tcont
    3710:	d42003c0 	brk	#0x1e
    3714:	f85f83a2 	ldur	x2, [x29, #-8]
    3718:	11000441 	add	w1, w2, #0x1
    371c:	d2958e04 	mov	x4, #0xac70                	// #44144
    3720:	f2a000c4 	movk	x4, #0x6, lsl #16
    3724:	f2c00aa4 	movk	x4, #0x55, lsl #32
    3728:	f2e00004 	movk	x4, #0x0, lsl #48
    372c:	f8400083 	ldur	x3, [x4]
    3730:	b81ac3a0 	stur	w0, [x29, #-84]
    3734:	b81cc3a1 	stur	w1, [x29, #-52]
    3738:	f81f83a2 	stur	x2, [x29, #-8]
    373c:	f81a03a3 	stur	x3, [x29, #-96]
    3740:	f85e03a0 	ldur	x0, [x29, #-32]
    3744:	97fff323 	bl	0x3d0
    3748:	f81983a0 	stur	x0, [x29, #-104]
    374c:	f85a03a0 	ldur	x0, [x29, #-96]
    3750:	f85983a1 	ldur	x1, [x29, #-104]
    3754:	97fff59b 	bl	0xdc0
    3758:	f81a03a0 	stur	x0, [x29, #-96]
    375c:	f85e83a0 	ldur	x0, [x29, #-24]
    3760:	f85a03a1 	ldur	x1, [x29, #-96]
    3764:	97fff597 	bl	0xdc0
    3768:	f81e83a0 	stur	x0, [x29, #-24]
    376c:	17ffffd9 	b	0x36d0
    3770:	d2958f02 	mov	x2, #0xac78                	// #44152
    3774:	f2a000c2 	movk	x2, #0x6, lsl #16
    3778:	f2c00aa2 	movk	x2, #0x55, lsl #32
    377c:	f2e00002 	movk	x2, #0x0, lsl #48
    3780:	f8400041 	ldur	x1, [x2]
    3784:	f81d03a0 	stur	x0, [x29, #-48]
    3788:	f81a03a1 	stur	x1, [x29, #-96]
    378c:	f85d83a0 	ldur	x0, [x29, #-40]
    3790:	f85a03a1 	ldur	x1, [x29, #-96]
    3794:	97fff58b 	bl	0xdc0
    3798:	f81d03a0 	stur	x0, [x29, #-48]
    379c:	f85d03a0 	ldur	x0, [x29, #-48]
    37a0:	f85e83a1 	ldur	x1, [x29, #-24]
    37a4:	97fff587 	bl	0xdc0
    37a8:	9101c3ff 	add	sp, sp, #0x70
    37ac:	a8c17bfd 	ldp	x29, x30, [sp], #16
    37b0:	d65f03c0 	ret
    37b4:	d503201f 	nop
    37b8:	d503201f 	nop
    37bc:	d503201f 	nop
    37c0:	a9bf7bfd 	stp	x29, x30, [sp, #-16]!
    37c4:	910003fd 	mov	x29, sp
    37c8:	d10083ff 	sub	sp, sp, #0x20
    37cc:	f81f83a0 	stur	x0, [x29, #-8]
    37d0:	f81f03a1 	stur	x1, [x29, #-16]
    37d4:	f85f83a0 	ldur	x0, [x29, #-8]
    37d8:	f85f03a1 	ldur	x1, [x29, #-16]
    37dc:	97ffff85 	bl	0x35f0
    37e0:	f81e83a0 	stur	x0, [x29, #-24]
    37e4:	f85e83a0 	ldur	x0, [x29, #-24]
    37e8:	97fffcf6 	bl	0x2bc0
    37ec:	910083ff 	add	sp, sp, #0x20
    37f0:	a8c17bfd 	ldp	x29, x30, [sp], #16
    37f4:	d65f03c0 	ret
    37f8:	d503201f 	nop
    37fc:	d503201f 	nop
    3800:	a9bf7bfd 	stp	x29, x30, [sp, #-16]!
    3804:	910003fd 	mov	x29, sp
    3808:	d10043ff 	sub	sp, sp, #0x10
    380c:	910043ff 	add	sp, sp, #0x10
    3810:	a8c17bfd 	ldp	x29, x30, [sp], #16
    3814:	d65f03c0 	ret
    3818:	d503201f 	nop
    381c:	d503201f 	nop
    3820:	a9bf7bfd 	stp	x29, x30, [sp, #-16]!
    3824:	910003fd 	mov	x29, sp
    3828:	d10203ff 	sub	sp, sp, #0x80
    382c:	d4200900 	brk	#0x48
    3830:	d285c100 	mov	x0, #0x2e08                	// #11784
    3834:	f2a000c0 	movk	x0, #0x6, lsl #16
    3838:	f2c00aa0 	movk	x0, #0x55, lsl #32
    383c:	f2e00000 	movk	x0, #0x0, lsl #48
    3840:	d287fa11 	mov	x17, #0x3fd0                	// #16336
    3844:	f2a031b1 	movk	x17, #0x18d, lsl #16
    3848:	f2c00ab1 	movk	x17, #0x55, lsl #32
    384c:	f2e00011 	movk	x17, #0x0, lsl #48
    3850:	d63f0220 	blr	x17
    3854:	d2958402 	mov	x2, #0xac20                	// #44064
    3858:	f2a000c2 	movk	x2, #0x6, lsl #16
    385c:	f2c00aa2 	movk	x2, #0x55, lsl #32
    3860:	f2e00002 	movk	x2, #0x0, lsl #48
    3864:	f8400041 	ldur	x1, [x2]
    3868:	aa1f03e2 	mov	x2, xzr
    386c:	d2959004 	mov	x4, #0xac80                	// #44160
    3870:	f2a000c4 	movk	x4, #0x6, lsl #16
    3874:	f2c00aa4 	movk	x4, #0x55, lsl #32
    3878:	f2e00004 	movk	x4, #0x0, lsl #48
    387c:	f8400083 	ldur	x3, [x4]
    3880:	f81f03a0 	stur	x0, [x29, #-16]
    3884:	f81e83a1 	stur	x1, [x29, #-24]
    3888:	f81e03a2 	stur	x2, [x29, #-32]
    388c:	f81d83a3 	stur	x3, [x29, #-40]
    3890:	f85f03a0 	ldur	x0, [x29, #-16]
    3894:	f85e83a1 	ldur	x1, [x29, #-24]
    3898:	f85e03a2 	ldur	x2, [x29, #-32]
    389c:	f85d83a3 	ldur	x3, [x29, #-40]
    38a0:	97fffefc 	bl	0x3490
    38a4:	d4200880 	brk	#0x44
    38a8:	d4200920 	brk	#0x49
    38ac:	d2991611 	mov	x17, #0xc8b0                	// #51376
    38b0:	f2a031b1 	movk	x17, #0x18d, lsl #16
    38b4:	f2c00ab1 	movk	x17, #0x55, lsl #32
    38b8:	f2e00011 	movk	x17, #0x0, lsl #48
    38bc:	d63f0220 	blr	x17
    38c0:	f81d03a0 	stur	x0, [x29, #-48]
    38c4:	528000e1 	mov	w1, #0x7                   	// #7
    38c8:	72a00001 	movk	w1, #0x0, lsl #16
    38cc:	52800002 	mov	w2, #0x0                   	// #0
    38d0:	72a00002 	movk	w2, #0x0, lsl #16
    38d4:	d4200a60 	brk	#0x53
    38d8:	528000e3 	mov	w3, #0x7                   	// #7
    38dc:	72a00003 	movk	w3, #0x0, lsl #16
    38e0:	d4200100 	brk	#0x8
    38e4:	b85bc3a4 	ldur	w4, [x29, #-68]
    38e8:	6b02009f 	cmp	w4, w2
    38ec:	540006aa 	b.ge	0x39c0  // b.tcont
    38f0:	2a0203e3 	mov	w3, w2
    38f4:	110004a2 	add	w2, w5, #0x1
    38f8:	d42009a0 	brk	#0x4d
    38fc:	f81c83a0 	stur	x0, [x29, #-56]
    3900:	b81c43a1 	stur	w1, [x29, #-60]
    3904:	b81c03a2 	stur	w2, [x29, #-64]
    3908:	b81b83a3 	stur	w3, [x29, #-72]
    390c:	b81bc3a4 	stur	w4, [x29, #-68]
    3910:	d2853900 	mov	x0, #0x29c8                	// #10696
    3914:	f2a000c0 	movk	x0, #0x6, lsl #16
    3918:	f2c00aa0 	movk	x0, #0x55, lsl #32
    391c:	f2e00000 	movk	x0, #0x0, lsl #48
    3920:	d287fa11 	mov	x17, #0x3fd0                	// #16336
    3924:	f2a031b1 	movk	x17, #0x18d, lsl #16
    3928:	f2c00ab1 	movk	x17, #0x55, lsl #32
    392c:	f2e00011 	movk	x17, #0x0, lsl #48
    3930:	d63f0220 	blr	x17
    3934:	52800002 	mov	w2, #0x0                   	// #0
    3938:	72a00002 	movk	w2, #0x0, lsl #16
    393c:	f81e83a0 	stur	x0, [x29, #-24]
    3940:	b81b43a2 	stur	w2, [x29, #-76]
    3944:	f85a83a0 	ldur	x0, [x29, #-88]
    3948:	b85b43a1 	ldur	w1, [x29, #-76]
    394c:	d292e811 	mov	x17, #0x9740                	// #38720
    3950:	f2a031d1 	movk	x17, #0x18e, lsl #16
    3954:	f2c00ab1 	movk	x17, #0x55, lsl #32
    3958:	f2e00011 	movk	x17, #0x0, lsl #48
    395c:	d63f0220 	blr	x17
    3960:	f85f83a1 	ldur	x1, [x29, #-8]
    3964:	f85e83a2 	ldur	x2, [x29, #-24]
    3968:	f8000022 	stur	x2, [x1]
    396c:	d2959104 	mov	x4, #0xac88                	// #44168
    3970:	f2a000c4 	movk	x4, #0x6, lsl #16
    3974:	f2c00aa4 	movk	x4, #0x55, lsl #32
    3978:	f2e00004 	movk	x4, #0x0, lsl #48
    397c:	f8400083 	ldur	x3, [x4]
    3980:	aa1f03e4 	mov	x4, xzr
    3984:	b81b43a0 	stur	w0, [x29, #-76]
    3988:	f81f83a1 	stur	x1, [x29, #-8]
    398c:	f81e83a2 	stur	x2, [x29, #-24]
    3990:	f81a03a3 	stur	x3, [x29, #-96]
    3994:	f81983a4 	stur	x4, [x29, #-104]
    3998:	f85e83a0 	ldur	x0, [x29, #-24]
    399c:	f85a03a1 	ldur	x1, [x29, #-96]
    39a0:	f85983a2 	ldur	x2, [x29, #-104]
    39a4:	97fff66b 	bl	0x1350
    39a8:	52800001 	mov	w1, #0x0                   	// #0
    39ac:	72a00001 	movk	w1, #0x0, lsl #16
    39b0:	6b00003f 	cmp	w1, w0
    39b4:	5400002a 	b.ge	0x39b8  // b.tcont
    39b8:	14000002 	b	0x39c0
    39bc:	11000443 	add	w3, w2, #0x1
    39c0:	17ffffc8 	b	0x38e0
    39c4:	d4200a60 	brk	#0x53
    39c8:	b85bc3a4 	ldur	w4, [x29, #-68]
    39cc:	6b03009f 	cmp	w4, w3
    39d0:	5400046a 	b.ge	0x3a5c  // b.tcont
    39d4:	d4200a60 	brk	#0x53
    39d8:	d4200100 	brk	#0x8
    39dc:	d2853d05 	mov	x5, #0x29e8                	// #10728
    39e0:	f2a000c5 	movk	x5, #0x6, lsl #16
    39e4:	f2c00aa5 	movk	x5, #0x55, lsl #32
    39e8:	f2e00005 	movk	x5, #0x0, lsl #48
    39ec:	b81b43a0 	stur	w0, [x29, #-76]
    39f0:	b81943a1 	stur	w1, [x29, #-108]
    39f4:	b81c43a3 	stur	w3, [x29, #-60]
    39f8:	b81bc3a4 	stur	w4, [x29, #-68]
    39fc:	f81883a5 	stur	x5, [x29, #-120]
    3a00:	f85883a0 	ldur	x0, [x29, #-120]
    3a04:	b85c03a1 	ldur	w1, [x29, #-64]
    3a08:	d28db011 	mov	x17, #0x6d80                	// #28032
    3a0c:	f2a031b1 	movk	x17, #0x18d, lsl #16
    3a10:	f2c00ab1 	movk	x17, #0x55, lsl #32
    3a14:	f2e00011 	movk	x17, #0x0, lsl #48
    3a18:	d63f0220 	blr	x17
    3a1c:	52800001 	mov	w1, #0x0                   	// #0
    3a20:	72a00001 	movk	w1, #0x0, lsl #16
    3a24:	f81c83a0 	stur	x0, [x29, #-56]
    3a28:	b81bc3a1 	stur	w1, [x29, #-68]
    3a2c:	f85c83a0 	ldur	x0, [x29, #-56]
    3a30:	b85bc3a1 	ldur	w1, [x29, #-68]
    3a34:	f85d03a2 	ldur	x2, [x29, #-48]
    3a38:	b85c43a3 	ldur	w3, [x29, #-60]
    3a3c:	b85c03a4 	ldur	w4, [x29, #-64]
    3a40:	d28dc791 	mov	x17, #0x6e3c                	// #28220
    3a44:	f2a031b1 	movk	x17, #0x18d, lsl #16
    3a48:	f2c00ab1 	movk	x17, #0x55, lsl #32
    3a4c:	f2e00011 	movk	x17, #0x0, lsl #48
    3a50:	d63f0220 	blr	x17
    3a54:	910203ff 	add	sp, sp, #0x80
    3a58:	a8c17bfd 	ldp	x29, x30, [sp], #16
    3a5c:	d65f03c0 	ret
    3a60:	910203ff 	add	sp, sp, #0x80
    3a64:	a8c17bfd 	ldp	x29, x30, [sp], #16
    3a68:	d65f03c0 	ret
    3a6c:	d503201f 	nop
    3a70:	a9bf7bfd 	stp	x29, x30, [sp, #-16]!
    3a74:	910003fd 	mov	x29, sp
    3a78:	d100c3ff 	sub	sp, sp, #0x30
    3a7c:	f81f83a0 	stur	x0, [x29, #-8]
    3a80:	f81f03a1 	stur	x1, [x29, #-16]
    3a84:	f81e83a2 	stur	x2, [x29, #-24]
    3a88:	f81e03a3 	stur	x3, [x29, #-32]
    3a8c:	f85f03a0 	ldur	x0, [x29, #-16]
    3a90:	97fff250 	bl	0x3d0
    3a94:	f81d83a0 	stur	x0, [x29, #-40]
    3a98:	f85f83a0 	ldur	x0, [x29, #-8]
    3a9c:	f85d83a1 	ldur	x1, [x29, #-40]
    3aa0:	f85e83a2 	ldur	x2, [x29, #-24]
    3aa4:	f85e03a3 	ldur	x3, [x29, #-32]
    3aa8:	97fffe7a 	bl	0x3490
    3aac:	d4200520 	brk	#0x29
    3ab0:	9100c3ff 	add	sp, sp, #0x30
    3ab4:	a8c17bfd 	ldp	x29, x30, [sp], #16
    3ab8:	d65f03c0 	ret
    3abc:	d503201f 	nop
    3ac0:	a9bf7bfd 	stp	x29, x30, [sp, #-16]!
    3ac4:	910003fd 	mov	x29, sp
    3ac8:	d10043ff 	sub	sp, sp, #0x10
    3acc:	d4200500 	brk	#0x28
    3ad0:	910043ff 	add	sp, sp, #0x10
    3ad4:	a8c17bfd 	ldp	x29, x30, [sp], #16
    3ad8:	d65f03c0 	ret
    3adc:	d503201f 	nop
    3ae0:	a9bf7bfd 	stp	x29, x30, [sp, #-16]!
    3ae4:	910003fd 	mov	x29, sp
    3ae8:	d10083ff 	sub	sp, sp, #0x20
    3aec:	52800002 	mov	w2, #0x0                   	// #0
    3af0:	72a00002 	movk	w2, #0x0, lsl #16
    3af4:	7100001f 	cmp	w0, #0x0
    3af8:	54000481 	b.ne	0x3b88  // b.any
    3afc:	f81f83a0 	stur	x0, [x29, #-8]
    3b00:	f81f03a1 	stur	x1, [x29, #-16]
    3b04:	b81ec3a2 	stur	w2, [x29, #-20]
    3b08:	d298b091 	mov	x17, #0xc584                	// #50564
    3b0c:	f2a031b1 	movk	x17, #0x18d, lsl #16
    3b10:	f2c00ab1 	movk	x17, #0x55, lsl #32
    3b14:	f2e00011 	movk	x17, #0x0, lsl #48
    3b18:	d63f0220 	blr	x17
    3b1c:	f85f83a0 	ldur	x0, [x29, #-8]
    3b20:	94000044 	bl	0x3c30
    3b24:	b81e83a0 	stur	w0, [x29, #-24]
    3b28:	f85f83a0 	ldur	x0, [x29, #-8]
    3b2c:	f85f03a1 	ldur	x1, [x29, #-16]
    3b30:	b85ec3a2 	ldur	w2, [x29, #-20]
    3b34:	b85e83a3 	ldur	w3, [x29, #-24]
    3b38:	94000006 	bl	0x3b50
    3b3c:	910083ff 	add	sp, sp, #0x20
    3b40:	a8c17bfd 	ldp	x29, x30, [sp], #16
    3b44:	d65f03c0 	ret
    3b48:	d503201f 	nop
    3b4c:	d503201f 	nop
    3b50:	a9bf7bfd 	stp	x29, x30, [sp, #-16]!
    3b54:	910003fd 	mov	x29, sp
    3b58:	d10143ff 	sub	sp, sp, #0x50
    3b5c:	d42000e0 	brk	#0x7
    3b60:	528000e4 	mov	w4, #0x7                   	// #7
    3b64:	72a00004 	movk	w4, #0x0, lsl #16
    3b68:	d42001e0 	brk	#0xf
    3b6c:	d4200100 	brk	#0x8
    3b70:	52800025 	mov	w5, #0x1                   	// #1
    3b74:	72a00005 	movk	w5, #0x0, lsl #16
    3b78:	6b0400bf 	cmp	w5, w4
    3b7c:	540008ea 	b.ge	0x3c98  // b.tcont
    3b80:	6b02007f 	cmp	w3, w2
    3b84:	5400006b 	b.lt	0x3b90  // b.tstop
    3b88:	910143ff 	add	sp, sp, #0x50
    3b8c:	a8c17bfd 	ldp	x29, x30, [sp], #16
    3b90:	d65f03c0 	ret
    3b94:	528000e5 	mov	w5, #0x7                   	// #7
    3b98:	72a00005 	movk	w5, #0x0, lsl #16
    3b9c:	d42000e0 	brk	#0x7
    3ba0:	2a0303e5 	mov	w5, w3
    3ba4:	6b0400bf 	cmp	w5, w4
    3ba8:	5400072a 	b.ge	0x3c8c  // b.tcont
    3bac:	b81cc3a4 	stur	w4, [x29, #-52]
    3bb0:	11000404 	add	w4, w0, #0x1
    3bb4:	b85cc3a6 	ldur	w6, [x29, #-52]
    3bb8:	b81c83a6 	stur	w6, [x29, #-56]
    3bbc:	b85c83a7 	ldur	w7, [x29, #-56]
    3bc0:	6b0200ff 	cmp	w7, w2
    3bc4:	5400062a 	b.ge	0x3c88  // b.tcont
    3bc8:	7100003f 	cmp	w1, #0x0
    3bcc:	54000701 	b.ne	0x3cac  // b.any
    3bd0:	f81f83a0 	stur	x0, [x29, #-8]
    3bd4:	f81f03a1 	stur	x1, [x29, #-16]
    3bd8:	b81ec3a2 	stur	w2, [x29, #-20]
    3bdc:	b81e83a3 	stur	w3, [x29, #-24]
    3be0:	b81e03a4 	stur	w4, [x29, #-32]
    3be4:	b81dc3a5 	stur	w5, [x29, #-36]
    3be8:	b81cc3a6 	stur	w6, [x29, #-52]
    3bec:	b81c83a7 	stur	w7, [x29, #-56]
    3bf0:	d298b091 	mov	x17, #0xc584                	// #50564
    3bf4:	f2a031b1 	movk	x17, #0x18d, lsl #16
    3bf8:	f2c00ab1 	movk	x17, #0x55, lsl #32
    3bfc:	f2e00011 	movk	x17, #0x0, lsl #48
    3c00:	d63f0220 	blr	x17
    3c04:	f85f83a0 	ldur	x0, [x29, #-8]
    3c08:	7100001f 	cmp	w0, #0x0
    3c0c:	54000381 	b.ne	0x3c7c  // b.any
    3c10:	f81f83a0 	stur	x0, [x29, #-8]
    3c14:	d298b091 	mov	x17, #0xc584                	// #50564
    3c18:	f2a031b1 	movk	x17, #0x18d, lsl #16
    3c1c:	f2c00ab1 	movk	x17, #0x55, lsl #32
    3c20:	f2e00011 	movk	x17, #0x0, lsl #48
    3c24:	d63f0220 	blr	x17
    3c28:	d42003c0 	brk	#0x1e
    3c2c:	528000e0 	mov	w0, #0x7                   	// #7
    3c30:	72a00000 	movk	w0, #0x0, lsl #16
    3c34:	d4200100 	brk	#0x8
    3c38:	d42003c0 	brk	#0x1e
    3c3c:	d4200400 	brk	#0x20
    3c40:	52800000 	mov	w0, #0x0                   	// #0
    3c44:	72a00000 	movk	w0, #0x0, lsl #16
    3c48:	b85c43a1 	ldur	w1, [x29, #-60]
    3c4c:	6b01001f 	cmp	w0, w1
    3c50:	5400014a 	b.ge	0x3c78  // b.tcont
    3c54:	528000e0 	mov	w0, #0x7                   	// #7
    3c58:	72a00000 	movk	w0, #0x0, lsl #16
    3c5c:	d4200100 	brk	#0x8
    3c60:	b81c03a0 	stur	w0, [x29, #-64]
    3c64:	b81c43a1 	stur	w1, [x29, #-60]
    3c68:	f85f83a0 	ldur	x0, [x29, #-8]
    3c6c:	b85c43a1 	ldur	w1, [x29, #-60]
    3c70:	b85c83a2 	ldur	w2, [x29, #-56]
    3c74:	9400009b 	bl	0x3ee0
    3c78:	14000001 	b	0x3c7c
    3c7c:	14000003 	b	0x3c88
    3c80:	f85f83a0 	ldur	x0, [x29, #-8]
    3c84:	51000401 	sub	w1, w0, #0x1
    3c88:	17ffffcc 	b	0x3bb8
    3c8c:	17ffffc5 	b	0x3ba0
    3c90:	910143ff 	add	sp, sp, #0x50
    3c94:	a8c17bfd 	ldp	x29, x30, [sp], #16
    3c98:	d65f03c0 	ret
    3c9c:	f81f83a0 	stur	x0, [x29, #-8]
    3ca0:	b81c83a1 	stur	w1, [x29, #-56]
    3ca4:	f85f83a0 	ldur	x0, [x29, #-8]
    3ca8:	f85f03a1 	ldur	x1, [x29, #-16]
    3cac:	b85ec3a2 	ldur	w2, [x29, #-20]
    3cb0:	b85e43a3 	ldur	w3, [x29, #-28]
    3cb4:	97ffffa7 	bl	0x3b50
    3cb8:	f85f83a0 	ldur	x0, [x29, #-8]
    3cbc:	f85f03a1 	ldur	x1, [x29, #-16]
    3cc0:	b85e43a2 	ldur	w2, [x29, #-28]
    3cc4:	b85e83a3 	ldur	w3, [x29, #-24]
    3cc8:	97ffffa2 	bl	0x3b50
    3ccc:	d4200100 	brk	#0x8
    3cd0:	d4200100 	brk	#0x8
    3cd4:	f85f83a0 	ldur	x0, [x29, #-8]
    3cd8:	f85f03a1 	ldur	x1, [x29, #-16]
    3cdc:	b85ec3a2 	ldur	w2, [x29, #-20]
    3ce0:	b85e43a3 	ldur	w3, [x29, #-28]
    3ce4:	b85e83a4 	ldur	w4, [x29, #-24]
    3ce8:	b85c83a5 	ldur	w5, [x29, #-56]
    3cec:	b85c43a6 	ldur	w6, [x29, #-60]
    3cf0:	94000004 	bl	0x3d00
    3cf4:	910143ff 	add	sp, sp, #0x50
    3cf8:	a8c17bfd 	ldp	x29, x30, [sp], #16
    3cfc:	d65f03c0 	ret
    3d00:	a9bf7bfd 	stp	x29, x30, [sp, #-16]!
    3d04:	910003fd 	mov	x29, sp
    3d08:	d10183ff 	sub	sp, sp, #0x60
    3d0c:	52800007 	mov	w7, #0x0                   	// #0
    3d10:	72a00007 	movk	w7, #0x0, lsl #16
    3d14:	6b0500ff 	cmp	w7, w5
    3d18:	54000080 	b.eq	0x3d28  // b.none
    3d1c:	52800007 	mov	w7, #0x0                   	// #0
    3d20:	72a00007 	movk	w7, #0x0, lsl #16
    3d24:	6b0600ff 	cmp	w7, w6
    3d28:	54000061 	b.ne	0x3d34  // b.any
    3d2c:	910183ff 	add	sp, sp, #0x60
    3d30:	a8c17bfd 	ldp	x29, x30, [sp], #16
    3d34:	d65f03c0 	ret
    3d38:	d42000e0 	brk	#0x7
    3d3c:	52800067 	mov	w7, #0x3                   	// #3
    3d40:	72a00007 	movk	w7, #0x0, lsl #16
    3d44:	b85d83a8 	ldur	w8, [x29, #-40]
    3d48:	6b0800ff 	cmp	w7, w8
    3d4c:	54000541 	b.ne	0x3df4  // b.any
    3d50:	7100003f 	cmp	w1, #0x0
    3d54:	54000781 	b.ne	0x3e44  // b.any
    3d58:	f81f83a0 	stur	x0, [x29, #-8]
    3d5c:	f81f03a1 	stur	x1, [x29, #-16]
    3d60:	b81ec3a2 	stur	w2, [x29, #-20]
    3d64:	b81e83a3 	stur	w3, [x29, #-24]
    3d68:	b81e43a4 	stur	w4, [x29, #-28]
    3d6c:	b81e03a5 	stur	w5, [x29, #-32]
    3d70:	b81dc3a6 	stur	w6, [x29, #-36]
    3d74:	b81d43a7 	stur	w7, [x29, #-44]
    3d78:	b81d83a8 	stur	w8, [x29, #-40]
    3d7c:	d298b091 	mov	x17, #0xc584                	// #50564
    3d80:	f2a031b1 	movk	x17, #0x18d, lsl #16
    3d84:	f2c00ab1 	movk	x17, #0x55, lsl #32
    3d88:	f2e00011 	movk	x17, #0x0, lsl #48
    3d8c:	d63f0220 	blr	x17
    3d90:	f85f83a0 	ldur	x0, [x29, #-8]
    3d94:	7100001f 	cmp	w0, #0x0
    3d98:	54000381 	b.ne	0x3e08  // b.any
    3d9c:	f81f83a0 	stur	x0, [x29, #-8]
    3da0:	d298b091 	mov	x17, #0xc584                	// #50564
    3da4:	f2a031b1 	movk	x17, #0x18d, lsl #16
    3da8:	f2c00ab1 	movk	x17, #0x55, lsl #32
    3dac:	f2e00011 	movk	x17, #0x0, lsl #48
    3db0:	d63f0220 	blr	x17
    3db4:	d42003c0 	brk	#0x1e
    3db8:	d42003c0 	brk	#0x1e
    3dbc:	d4200400 	brk	#0x20
    3dc0:	52800000 	mov	w0, #0x0                   	// #0
    3dc4:	72a00000 	movk	w0, #0x0, lsl #16
    3dc8:	b85d83a1 	ldur	w1, [x29, #-40]
    3dcc:	6b01001f 	cmp	w0, w1
    3dd0:	540000ca 	b.ge	0x3de8  // b.tcont
    3dd4:	b81d43a0 	stur	w0, [x29, #-44]
    3dd8:	b81d83a1 	stur	w1, [x29, #-40]
    3ddc:	f85f83a0 	ldur	x0, [x29, #-8]
    3de0:	b85e83a1 	ldur	w1, [x29, #-24]
    3de4:	b85ec3a2 	ldur	w2, [x29, #-20]
    3de8:	9400003e 	bl	0x3ee0
    3dec:	910183ff 	add	sp, sp, #0x60
    3df0:	a8c17bfd 	ldp	x29, x30, [sp], #16
    3df4:	d65f03c0 	ret
    3df8:	b85dc3a0 	ldur	w0, [x29, #-36]
    3dfc:	b85e03a1 	ldur	w1, [x29, #-32]
    3e00:	6b00003f 	cmp	w1, w0
    3e04:	540002ca 	b.ge	0x3e5c  // b.tcont
    3e08:	528000e2 	mov	w2, #0x7                   	// #7
    3e0c:	72a00002 	movk	w2, #0x0, lsl #16
    3e10:	d42001e0 	brk	#0xf
    3e14:	b85d43a3 	ldur	w3, [x29, #-44]
    3e18:	b81d83a3 	stur	w3, [x29, #-40]
    3e1c:	d42000e0 	brk	#0x7
    3e20:	2a0203e3 	mov	w3, w2
    3e24:	b81dc3a0 	stur	w0, [x29, #-36]
    3e28:	b81e03a1 	stur	w1, [x29, #-32]
    3e2c:	b81bc3a2 	stur	w2, [x29, #-68]
    3e30:	b81d43a3 	stur	w3, [x29, #-44]
    3e34:	f85f83a0 	ldur	x0, [x29, #-8]
    3e38:	f85f03a1 	ldur	x1, [x29, #-16]
    3e3c:	b85e83a2 	ldur	w2, [x29, #-24]
    3e40:	b85e43a3 	ldur	w3, [x29, #-28]
    3e44:	b85bc3a4 	ldur	w4, [x29, #-68]
    3e48:	940000e6 	bl	0x41e0
    3e4c:	b81bc3a0 	stur	w0, [x29, #-68]
    3e50:	d4200100 	brk	#0x8
    3e54:	b85b43a1 	ldur	w1, [x29, #-76]
    3e58:	2a0103e0 	mov	w0, w1
    3e5c:	14000012 	b	0x3ea4
    3e60:	528000e2 	mov	w2, #0x7                   	// #7
    3e64:	72a00002 	movk	w2, #0x0, lsl #16
    3e68:	d42001e0 	brk	#0xf
    3e6c:	2a0103e0 	mov	w0, w1
    3e70:	d42000e0 	brk	#0x7
    3e74:	b81bc3a1 	stur	w1, [x29, #-68]
    3e78:	b81b83a0 	stur	w0, [x29, #-72]
    3e7c:	b81b43a1 	stur	w1, [x29, #-76]
    3e80:	b81b03a2 	stur	w2, [x29, #-80]
    3e84:	f85f83a0 	ldur	x0, [x29, #-8]
    3e88:	f85f03a1 	ldur	x1, [x29, #-16]
    3e8c:	b85ec3a2 	ldur	w2, [x29, #-20]
    3e90:	b85e83a3 	ldur	w3, [x29, #-24]
    3e94:	b85bc3a4 	ldur	w4, [x29, #-68]
    3e98:	94000092 	bl	0x40e0
    3e9c:	b81d43a0 	stur	w0, [x29, #-44]
    3ea0:	d4200100 	brk	#0x8
    3ea4:	b81d83a0 	stur	w0, [x29, #-40]
    3ea8:	b81b43a0 	stur	w0, [x29, #-76]
    3eac:	f85f83a0 	ldur	x0, [x29, #-8]
    3eb0:	f85f03a1 	ldur	x1, [x29, #-16]
    3eb4:	b85d43a2 	ldur	w2, [x29, #-44]
    3eb8:	b85e83a3 	ldur	w3, [x29, #-24]
    3ebc:	b85bc3a4 	ldur	w4, [x29, #-68]
    3ec0:	94000018 	bl	0x3f20
    3ec4:	d42000e0 	brk	#0x7
    3ec8:	f85f83a0 	ldur	x0, [x29, #-8]
    3ecc:	f85f03a1 	ldur	x1, [x29, #-16]
    3ed0:	b85ec3a2 	ldur	w2, [x29, #-20]
    3ed4:	b85d43a3 	ldur	w3, [x29, #-44]
    3ed8:	b85b43a4 	ldur	w4, [x29, #-76]
    3edc:	b85d83a5 	ldur	w5, [x29, #-40]
    3ee0:	b85b83a6 	ldur	w6, [x29, #-72]
    3ee4:	97ffff87 	bl	0x3d00
    3ee8:	d4200100 	brk	#0x8
    3eec:	d4200100 	brk	#0x8
    3ef0:	f85f83a0 	ldur	x0, [x29, #-8]
    3ef4:	f85f03a1 	ldur	x1, [x29, #-16]
    3ef8:	b85b43a2 	ldur	w2, [x29, #-76]
    3efc:	b85bc3a3 	ldur	w3, [x29, #-68]
    3f00:	b85e43a4 	ldur	w4, [x29, #-28]
    3f04:	b85ac3a5 	ldur	w5, [x29, #-84]
    3f08:	b85a83a6 	ldur	w6, [x29, #-88]
    3f0c:	97ffff7d 	bl	0x3d00
    3f10:	910183ff 	add	sp, sp, #0x60
    3f14:	a8c17bfd 	ldp	x29, x30, [sp], #16
    3f18:	d65f03c0 	ret
    3f1c:	d503201f 	nop
    3f20:	a9bf7bfd 	stp	x29, x30, [sp, #-16]!
    3f24:	910003fd 	mov	x29, sp
    3f28:	d10143ff 	sub	sp, sp, #0x50
    3f2c:	6b02007f 	cmp	w3, w2
    3f30:	54000040 	b.eq	0x3f38  // b.none
    3f34:	6b03009f 	cmp	w4, w3
    3f38:	54000061 	b.ne	0x3f44  // b.any
    3f3c:	910143ff 	add	sp, sp, #0x50
    3f40:	a8c17bfd 	ldp	x29, x30, [sp], #16
    3f44:	d65f03c0 	ret
    3f48:	d4200100 	brk	#0x8
    3f4c:	d4200100 	brk	#0x8
    3f50:	f81f83a0 	stur	x0, [x29, #-8]
    3f54:	f81f03a1 	stur	x1, [x29, #-16]
    3f58:	b81ec3a2 	stur	w2, [x29, #-20]
    3f5c:	b81e83a3 	stur	w3, [x29, #-24]
    3f60:	b81e43a4 	stur	w4, [x29, #-28]
    3f64:	b85e03a0 	ldur	w0, [x29, #-32]
    3f68:	b85dc3a1 	ldur	w1, [x29, #-36]
    3f6c:	9400004d 	bl	0x40a0
    3f70:	b81dc3a0 	stur	w0, [x29, #-36]
    3f74:	f85f83a1 	ldur	x1, [x29, #-8]
    3f78:	51000420 	sub	w0, w1, #0x1
    3f7c:	52800002 	mov	w2, #0x0                   	// #0
    3f80:	72a00002 	movk	w2, #0x0, lsl #16
    3f84:	b85dc3a3 	ldur	w3, [x29, #-36]
    3f88:	6b03005f 	cmp	w2, w3
    3f8c:	54000800 	b.eq	0x408c  // b.none
    3f90:	7100003f 	cmp	w1, #0x0
    3f94:	54000501 	b.ne	0x4034  // b.any
    3f98:	b81e03a0 	stur	w0, [x29, #-32]
    3f9c:	f81f83a1 	stur	x1, [x29, #-8]
    3fa0:	b81cc3a2 	stur	w2, [x29, #-52]
    3fa4:	b81dc3a3 	stur	w3, [x29, #-36]
    3fa8:	d298b091 	mov	x17, #0xc584                	// #50564
    3fac:	f2a031b1 	movk	x17, #0x18d, lsl #16
    3fb0:	f2c00ab1 	movk	x17, #0x55, lsl #32
    3fb4:	f2e00011 	movk	x17, #0x0, lsl #48
    3fb8:	d63f0220 	blr	x17
    3fbc:	d42000e0 	brk	#0x7
    3fc0:	d42003c0 	brk	#0x1e
    3fc4:	d4200100 	brk	#0x8
    3fc8:	d42000e0 	brk	#0x7
    3fcc:	d42000e0 	brk	#0x7
    3fd0:	d42000e0 	brk	#0x7
    3fd4:	d42000e0 	brk	#0x7
    3fd8:	b85c83a0 	ldur	w0, [x29, #-56]
    3fdc:	b85c03a1 	ldur	w1, [x29, #-64]
    3fe0:	6b00003f 	cmp	w1, w0
    3fe4:	54000380 	b.eq	0x4054  // b.none
    3fe8:	f85f83a2 	ldur	x2, [x29, #-8]
    3fec:	7100005f 	cmp	w2, #0x0
    3ff0:	54000481 	b.ne	0x4080  // b.any
    3ff4:	b81c83a0 	stur	w0, [x29, #-56]
    3ff8:	b81c03a1 	stur	w1, [x29, #-64]
    3ffc:	f81f83a2 	stur	x2, [x29, #-8]
    4000:	d298b091 	mov	x17, #0xc584                	// #50564
    4004:	f2a031b1 	movk	x17, #0x18d, lsl #16
    4008:	f2c00ab1 	movk	x17, #0x55, lsl #32
    400c:	f2e00011 	movk	x17, #0x0, lsl #48
    4010:	d63f0220 	blr	x17
    4014:	d42003c0 	brk	#0x1e
    4018:	d42003c0 	brk	#0x1e
    401c:	b85c83a0 	ldur	w0, [x29, #-56]
    4020:	b81cc3a0 	stur	w0, [x29, #-52]
    4024:	d4200100 	brk	#0x8
    4028:	b85dc3a1 	ldur	w1, [x29, #-36]
    402c:	b85c43a2 	ldur	w2, [x29, #-60]
    4030:	6b01005f 	cmp	w2, w1
    4034:	5400006a 	b.ge	0x4040  // b.tcont
    4038:	d42000e0 	brk	#0x7
    403c:	2a0203e0 	mov	w0, w2
    4040:	14000004 	b	0x4050
    4044:	d4200100 	brk	#0x8
    4048:	d4200100 	brk	#0x8
    404c:	d42000e0 	brk	#0x7
    4050:	2a0203e0 	mov	w0, w2
    4054:	17ffffdf 	b	0x3fd0
    4058:	f85f83a3 	ldur	x3, [x29, #-8]
    405c:	7100007f 	cmp	w3, #0x0
    4060:	54000501 	b.ne	0x4100  // b.any
    4064:	b81c83a0 	stur	w0, [x29, #-56]
    4068:	b81dc3a1 	stur	w1, [x29, #-36]
    406c:	b81c43a2 	stur	w2, [x29, #-60]
    4070:	f81f83a3 	stur	x3, [x29, #-8]
    4074:	d298b091 	mov	x17, #0xc584                	// #50564
    4078:	f2a031b1 	movk	x17, #0x18d, lsl #16
    407c:	f2c00ab1 	movk	x17, #0x55, lsl #32
    4080:	f2e00011 	movk	x17, #0x0, lsl #48
    4084:	d63f0220 	blr	x17
    4088:	d42003c0 	brk	#0x1e
    408c:	17ffffb8 	b	0x3f6c
    4090:	910143ff 	add	sp, sp, #0x50
    4094:	a8c17bfd 	ldp	x29, x30, [sp], #16
    4098:	d65f03c0 	ret
    409c:	d503201f 	nop
    40a0:	a9bf7bfd 	stp	x29, x30, [sp, #-16]!
    40a4:	910003fd 	mov	x29, sp
    40a8:	d10043ff 	sub	sp, sp, #0x10
    40ac:	52800002 	mov	w2, #0x0                   	// #0
    40b0:	72a00002 	movk	w2, #0x0, lsl #16
    40b4:	6b01005f 	cmp	w2, w1
    40b8:	540000a0 	b.eq	0x40cc  // b.none
    40bc:	d4200180 	brk	#0xc
    40c0:	2a0103e0 	mov	w0, w1
    40c4:	b85f43a3 	ldur	w3, [x29, #-12]
    40c8:	2a0303e1 	mov	w1, w3
    40cc:	17fffff7 	b	0x40a8
    40d0:	910043ff 	add	sp, sp, #0x10
    40d4:	a8c17bfd 	ldp	x29, x30, [sp], #16
    40d8:	d65f03c0 	ret
    40dc:	d503201f 	nop
    40e0:	a9bf7bfd 	stp	x29, x30, [sp, #-16]!
    40e4:	910003fd 	mov	x29, sp
    40e8:	d10103ff 	sub	sp, sp, #0x40
    40ec:	d4200100 	brk	#0x8
    40f0:	52800005 	mov	w5, #0x0                   	// #0
    40f4:	72a00005 	movk	w5, #0x0, lsl #16
    40f8:	b85e03a6 	ldur	w6, [x29, #-32]
    40fc:	6b0500df 	cmp	w6, w5
    4100:	5400066a 	b.ge	0x41cc  // b.tcont
    4104:	528000e7 	mov	w7, #0x7                   	// #7
    4108:	72a00007 	movk	w7, #0x0, lsl #16
    410c:	d42001e0 	brk	#0xf
    4110:	b81dc3a5 	stur	w5, [x29, #-36]
    4114:	d42000e0 	brk	#0x7
    4118:	2a0703e5 	mov	w5, w7
    411c:	7100003f 	cmp	w1, #0x0
    4120:	54000701 	b.ne	0x4200  // b.any
    4124:	f81f83a0 	stur	x0, [x29, #-8]
    4128:	f81f03a1 	stur	x1, [x29, #-16]
    412c:	b81ec3a2 	stur	w2, [x29, #-20]
    4130:	b81e83a3 	stur	w3, [x29, #-24]
    4134:	b81e43a4 	stur	w4, [x29, #-28]
    4138:	b81d83a5 	stur	w5, [x29, #-40]
    413c:	b81e03a6 	stur	w6, [x29, #-32]
    4140:	b81d43a7 	stur	w7, [x29, #-44]
    4144:	d298b091 	mov	x17, #0xc584                	// #50564
    4148:	f2a031b1 	movk	x17, #0x18d, lsl #16
    414c:	f2c00ab1 	movk	x17, #0x55, lsl #32
    4150:	f2e00011 	movk	x17, #0x0, lsl #48
    4154:	d63f0220 	blr	x17
    4158:	f85f83a0 	ldur	x0, [x29, #-8]
    415c:	7100001f 	cmp	w0, #0x0
    4160:	54000381 	b.ne	0x41d0  // b.any
    4164:	f81f83a0 	stur	x0, [x29, #-8]
    4168:	d298b091 	mov	x17, #0xc584                	// #50564
    416c:	f2a031b1 	movk	x17, #0x18d, lsl #16
    4170:	f2c00ab1 	movk	x17, #0x55, lsl #32
    4174:	f2e00011 	movk	x17, #0x0, lsl #48
    4178:	d63f0220 	blr	x17
    417c:	d42003c0 	brk	#0x1e
    4180:	d42003c0 	brk	#0x1e
    4184:	d4200400 	brk	#0x20
    4188:	52800000 	mov	w0, #0x0                   	// #0
    418c:	72a00000 	movk	w0, #0x0, lsl #16
    4190:	b85d43a1 	ldur	w1, [x29, #-44]
    4194:	6b01001f 	cmp	w0, w1
    4198:	5400006a 	b.ge	0x41a4  // b.tcont
    419c:	b85dc3a2 	ldur	w2, [x29, #-36]
    41a0:	b81e03a2 	stur	w2, [x29, #-32]
    41a4:	14000009 	b	0x41c8
    41a8:	528000e0 	mov	w0, #0x7                   	// #7
    41ac:	72a00000 	movk	w0, #0x0, lsl #16
    41b0:	d42000e0 	brk	#0x7
    41b4:	b81ec3a1 	stur	w1, [x29, #-20]
    41b8:	d4200100 	brk	#0x8
    41bc:	528000e0 	mov	w0, #0x7                   	// #7
    41c0:	72a00000 	movk	w0, #0x0, lsl #16
    41c4:	d4200100 	brk	#0x8
    41c8:	b81e03a1 	stur	w1, [x29, #-32]
    41cc:	17ffffc8 	b	0x40ec
    41d0:	910103ff 	add	sp, sp, #0x40
    41d4:	a8c17bfd 	ldp	x29, x30, [sp], #16
    41d8:	d65f03c0 	ret
    41dc:	d503201f 	nop
    41e0:	a9bf7bfd 	stp	x29, x30, [sp, #-16]!
    41e4:	910003fd 	mov	x29, sp
    41e8:	d10103ff 	sub	sp, sp, #0x40
    41ec:	d4200100 	brk	#0x8
    41f0:	52800005 	mov	w5, #0x0                   	// #0
    41f4:	72a00005 	movk	w5, #0x0, lsl #16
    41f8:	b85e03a6 	ldur	w6, [x29, #-32]
    41fc:	6b0500df 	cmp	w6, w5
    4200:	5400066a 	b.ge	0x42cc  // b.tcont
    4204:	528000e7 	mov	w7, #0x7                   	// #7
    4208:	72a00007 	movk	w7, #0x0, lsl #16
    420c:	d42001e0 	brk	#0xf
    4210:	b81dc3a5 	stur	w5, [x29, #-36]
    4214:	d42000e0 	brk	#0x7
    4218:	2a0703e5 	mov	w5, w7
    421c:	7100003f 	cmp	w1, #0x0
    4220:	54000701 	b.ne	0x4300  // b.any
    4224:	f81f83a0 	stur	x0, [x29, #-8]
    4228:	f81f03a1 	stur	x1, [x29, #-16]
    422c:	b81ec3a2 	stur	w2, [x29, #-20]
    4230:	b81e83a3 	stur	w3, [x29, #-24]
    4234:	b81e43a4 	stur	w4, [x29, #-28]
    4238:	b81d83a5 	stur	w5, [x29, #-40]
    423c:	b81e03a6 	stur	w6, [x29, #-32]
    4240:	b81d43a7 	stur	w7, [x29, #-44]
    4244:	d298b091 	mov	x17, #0xc584                	// #50564
    4248:	f2a031b1 	movk	x17, #0x18d, lsl #16
    424c:	f2c00ab1 	movk	x17, #0x55, lsl #32
    4250:	f2e00011 	movk	x17, #0x0, lsl #48
    4254:	d63f0220 	blr	x17
    4258:	f85f83a0 	ldur	x0, [x29, #-8]
    425c:	7100001f 	cmp	w0, #0x0
    4260:	54000381 	b.ne	0x42d0  // b.any
    4264:	f81f83a0 	stur	x0, [x29, #-8]
    4268:	d298b091 	mov	x17, #0xc584                	// #50564
    426c:	f2a031b1 	movk	x17, #0x18d, lsl #16
    4270:	f2c00ab1 	movk	x17, #0x55, lsl #32
    4274:	f2e00011 	movk	x17, #0x0, lsl #48
    4278:	d63f0220 	blr	x17
    427c:	d42003c0 	brk	#0x1e
    4280:	d42003c0 	brk	#0x1e
    4284:	d4200400 	brk	#0x20
    4288:	52800000 	mov	w0, #0x0                   	// #0
    428c:	72a00000 	movk	w0, #0x0, lsl #16
    4290:	b85d43a1 	ldur	w1, [x29, #-44]
    4294:	6b01001f 	cmp	w0, w1
    4298:	5400014a 	b.ge	0x42c0  // b.tcont
    429c:	528000e0 	mov	w0, #0x7                   	// #7
    42a0:	72a00000 	movk	w0, #0x0, lsl #16
    42a4:	d42000e0 	brk	#0x7
    42a8:	b81ec3a1 	stur	w1, [x29, #-20]
    42ac:	d4200100 	brk	#0x8
    42b0:	528000e0 	mov	w0, #0x7                   	// #7
    42b4:	72a00000 	movk	w0, #0x0, lsl #16
    42b8:	d4200100 	brk	#0x8
    42bc:	b81e03a1 	stur	w1, [x29, #-32]
    42c0:	14000002 	b	0x42c8
    42c4:	b85dc3a2 	ldur	w2, [x29, #-36]
    42c8:	b81e03a2 	stur	w2, [x29, #-32]
    42cc:	17ffffc8 	b	0x41ec
    42d0:	910103ff 	add	sp, sp, #0x40
    42d4:	a8c17bfd 	ldp	x29, x30, [sp], #16
    42d8:	d65f03c0 	ret
    42dc:	d503201f 	nop
    42e0:	a9bf7bfd 	stp	x29, x30, [sp, #-16]!
    42e4:	910003fd 	mov	x29, sp
    42e8:	d10083ff 	sub	sp, sp, #0x20
    42ec:	7100001f 	cmp	w0, #0x0
    42f0:	54000481 	b.ne	0x4380  // b.any
    42f4:	f81f83a0 	stur	x0, [x29, #-8]
    42f8:	b81f43a1 	stur	w1, [x29, #-12]
    42fc:	b81f03a2 	stur	w2, [x29, #-16]
    4300:	d298b091 	mov	x17, #0xc584                	// #50564
    4304:	f2a031b1 	movk	x17, #0x18d, lsl #16
    4308:	f2c00ab1 	movk	x17, #0x55, lsl #32
    430c:	f2e00011 	movk	x17, #0x0, lsl #48
    4310:	d63f0220 	blr	x17
    4314:	d42003c0 	brk	#0x1e
    4318:	d42003c0 	brk	#0x1e
    431c:	d42003c0 	brk	#0x1e
    4320:	d42003c0 	brk	#0x1e
    4324:	910083ff 	add	sp, sp, #0x20
    4328:	a8c17bfd 	ldp	x29, x30, [sp], #16
    432c:	d65f03c0 	ret
    4330:	a9bf7bfd 	stp	x29, x30, [sp, #-16]!
    4334:	910003fd 	mov	x29, sp
    4338:	d10143ff 	sub	sp, sp, #0x50
    433c:	aa1f03e4 	mov	x4, xzr
    4340:	f81f83a0 	stur	x0, [x29, #-8]
    4344:	f81f03a1 	stur	x1, [x29, #-16]
    4348:	f81e83a2 	stur	x2, [x29, #-24]
    434c:	f81e03a3 	stur	x3, [x29, #-32]
    4350:	f81d03a4 	stur	x4, [x29, #-48]
    4354:	f85f83a0 	ldur	x0, [x29, #-8]
    4358:	f85f03a1 	ldur	x1, [x29, #-16]
    435c:	f85e83a2 	ldur	x2, [x29, #-24]
    4360:	f85d03a3 	ldur	x3, [x29, #-48]
    4364:	97fffc4b 	bl	0x3490
    4368:	f85e03a0 	ldur	x0, [x29, #-32]
    436c:	7100001f 	cmp	w0, #0x0
    4370:	54000441 	b.ne	0x43f8  // b.any
    4374:	f81e03a0 	stur	x0, [x29, #-32]
    4378:	d2874d00 	mov	x0, #0x3a68                	// #14952
    437c:	f2a000c0 	movk	x0, #0x6, lsl #16
    4380:	f2c00aa0 	movk	x0, #0x55, lsl #32
    4384:	f2e00000 	movk	x0, #0x0, lsl #48
    4388:	d2883511 	mov	x17, #0x41a8                	// #16808
    438c:	f2a031b1 	movk	x17, #0x18d, lsl #16
    4390:	f2c00ab1 	movk	x17, #0x55, lsl #32
    4394:	f2e00011 	movk	x17, #0x0, lsl #48
    4398:	d63f0220 	blr	x17
    439c:	d2959302 	mov	x2, #0xac98                	// #44184
    43a0:	f2a000c2 	movk	x2, #0x6, lsl #16
    43a4:	f2c00aa2 	movk	x2, #0x55, lsl #32
    43a8:	f2e00002 	movk	x2, #0x0, lsl #48
    43ac:	f8400041 	ldur	x1, [x2]
    43b0:	d42004e0 	brk	#0x27
    43b4:	52800002 	mov	w2, #0x0                   	// #0
    43b8:	72a00002 	movk	w2, #0x0, lsl #16
    43bc:	d42004e0 	brk	#0x27
    43c0:	d2959303 	mov	x3, #0xac98                	// #44184
    43c4:	f2a000c3 	movk	x3, #0x6, lsl #16
    43c8:	f2c00aa3 	movk	x3, #0x55, lsl #32
    43cc:	f2e00003 	movk	x3, #0x0, lsl #48
    43d0:	f8400061 	ldur	x1, [x3]
    43d4:	d42004e0 	brk	#0x27
    43d8:	d2959303 	mov	x3, #0xac98                	// #44184
    43dc:	f2a000c3 	movk	x3, #0x6, lsl #16
    43e0:	f2c00aa3 	movk	x3, #0x55, lsl #32
    43e4:	f2e00003 	movk	x3, #0x0, lsl #48
    43e8:	f8400061 	ldur	x1, [x3]
    43ec:	d42004e0 	brk	#0x27
    43f0:	d4200820 	brk	#0x41
    43f4:	d4200520 	brk	#0x29
    43f8:	14000001 	b	0x43fc
    43fc:	d4200520 	brk	#0x29
    4400:	910143ff 	add	sp, sp, #0x50
    4404:	a8c17bfd 	ldp	x29, x30, [sp], #16
    4408:	d65f03c0 	ret
    440c:	d503201f 	nop
    4410:	a9bf7bfd 	stp	x29, x30, [sp, #-16]!
    4414:	910003fd 	mov	x29, sp
    4418:	d10103ff 	sub	sp, sp, #0x40
    441c:	d2958402 	mov	x2, #0xac20                	// #44064
    4420:	f2a000c2 	movk	x2, #0x6, lsl #16
    4424:	f2c00aa2 	movk	x2, #0x55, lsl #32
    4428:	f2e00002 	movk	x2, #0x0, lsl #48
    442c:	f8400041 	ldur	x1, [x2]
    4430:	f81f83a0 	stur	x0, [x29, #-8]
    4434:	f81f03a1 	stur	x1, [x29, #-16]
    4438:	f85f83a0 	ldur	x0, [x29, #-8]
    443c:	97fffc3d 	bl	0x3530
    4440:	f81e83a0 	stur	x0, [x29, #-24]
    4444:	f85f03a0 	ldur	x0, [x29, #-16]
    4448:	f85e83a1 	ldur	x1, [x29, #-24]
    444c:	97fff25d 	bl	0xdc0
    4450:	d2959402 	mov	x2, #0xaca0                	// #44192
    4454:	f2a000c2 	movk	x2, #0x6, lsl #16
    4458:	f2c00aa2 	movk	x2, #0x55, lsl #32
    445c:	f2e00002 	movk	x2, #0x0, lsl #48
    4460:	f8400041 	ldur	x1, [x2]
    4464:	f81f03a0 	stur	x0, [x29, #-16]
    4468:	f81e83a1 	stur	x1, [x29, #-24]
    446c:	f85f03a0 	ldur	x0, [x29, #-16]
    4470:	f85e83a1 	ldur	x1, [x29, #-24]
    4474:	97fff253 	bl	0xdc0
    4478:	d4200500 	brk	#0x28
    447c:	f85e03a1 	ldur	x1, [x29, #-32]
    4480:	7100003f 	cmp	w1, #0x0
    4484:	54000401 	b.ne	0x4504  // b.any
    4488:	f81f03a0 	stur	x0, [x29, #-16]
    448c:	f81e03a1 	stur	x1, [x29, #-32]
    4490:	d298b091 	mov	x17, #0xc584                	// #50564
    4494:	f2a031b1 	movk	x17, #0x18d, lsl #16
    4498:	f2c00ab1 	movk	x17, #0x55, lsl #32
    449c:	f2e00011 	movk	x17, #0x0, lsl #48
    44a0:	d63f0220 	blr	x17
    44a4:	d42004c0 	brk	#0x26
    44a8:	f85f03a0 	ldur	x0, [x29, #-16]
    44ac:	f85e83a1 	ldur	x1, [x29, #-24]
    44b0:	97fff244 	bl	0xdc0
    44b4:	d2959502 	mov	x2, #0xaca8                	// #44200
    44b8:	f2a000c2 	movk	x2, #0x6, lsl #16
    44bc:	f2c00aa2 	movk	x2, #0x55, lsl #32
    44c0:	f2e00002 	movk	x2, #0x0, lsl #48
    44c4:	f8400041 	ldur	x1, [x2]
    44c8:	f81f03a0 	stur	x0, [x29, #-16]
    44cc:	f81e83a1 	stur	x1, [x29, #-24]
    44d0:	f85f03a0 	ldur	x0, [x29, #-16]
    44d4:	f85e83a1 	ldur	x1, [x29, #-24]
    44d8:	97fff23a 	bl	0xdc0
    44dc:	d4200500 	brk	#0x28
    44e0:	f85e03a1 	ldur	x1, [x29, #-32]
    44e4:	7100003f 	cmp	w1, #0x0
    44e8:	54000401 	b.ne	0x4568  // b.any
    44ec:	f81f03a0 	stur	x0, [x29, #-16]
    44f0:	f81e03a1 	stur	x1, [x29, #-32]
    44f4:	d298b091 	mov	x17, #0xc584                	// #50564
    44f8:	f2a031b1 	movk	x17, #0x18d, lsl #16
    44fc:	f2c00ab1 	movk	x17, #0x55, lsl #32
    4500:	f2e00011 	movk	x17, #0x0, lsl #48
    4504:	d63f0220 	blr	x17
    4508:	d42004c0 	brk	#0x26
    450c:	f85f03a0 	ldur	x0, [x29, #-16]
    4510:	f85e83a1 	ldur	x1, [x29, #-24]
    4514:	97fff22b 	bl	0xdc0
    4518:	d2959602 	mov	x2, #0xacb0                	// #44208
    451c:	f2a000c2 	movk	x2, #0x6, lsl #16
    4520:	f2c00aa2 	movk	x2, #0x55, lsl #32
    4524:	f2e00002 	movk	x2, #0x0, lsl #48
    4528:	f8400041 	ldur	x1, [x2]
    452c:	f81f03a0 	stur	x0, [x29, #-16]
    4530:	f81e83a1 	stur	x1, [x29, #-24]
    4534:	f85f03a0 	ldur	x0, [x29, #-16]
    4538:	f85e83a1 	ldur	x1, [x29, #-24]
    453c:	97fff221 	bl	0xdc0
    4540:	d4200500 	brk	#0x28
    4544:	f85e03a1 	ldur	x1, [x29, #-32]
    4548:	7100003f 	cmp	w1, #0x0
    454c:	54000401 	b.ne	0x45cc  // b.any
    4550:	f81f03a0 	stur	x0, [x29, #-16]
    4554:	f81e03a1 	stur	x1, [x29, #-32]
    4558:	d298b091 	mov	x17, #0xc584                	// #50564
    455c:	f2a031b1 	movk	x17, #0x18d, lsl #16
    4560:	f2c00ab1 	movk	x17, #0x55, lsl #32
    4564:	f2e00011 	movk	x17, #0x0, lsl #48
    4568:	d63f0220 	blr	x17
    456c:	d42004c0 	brk	#0x26
    4570:	f85f03a0 	ldur	x0, [x29, #-16]
    4574:	f85e83a1 	ldur	x1, [x29, #-24]
    4578:	97fff212 	bl	0xdc0
    457c:	d2958d02 	mov	x2, #0xac68                	// #44136
    4580:	f2a000c2 	movk	x2, #0x6, lsl #16
    4584:	f2c00aa2 	movk	x2, #0x55, lsl #32
    4588:	f2e00002 	movk	x2, #0x0, lsl #48
    458c:	f8400041 	ldur	x1, [x2]
    4590:	f81f03a0 	stur	x0, [x29, #-16]
    4594:	f81e83a1 	stur	x1, [x29, #-24]
    4598:	f85f03a0 	ldur	x0, [x29, #-16]
    459c:	f85e83a1 	ldur	x1, [x29, #-24]
    45a0:	97fff208 	bl	0xdc0
    45a4:	d4200500 	brk	#0x28
    45a8:	f85e03a1 	ldur	x1, [x29, #-32]
    45ac:	7100003f 	cmp	w1, #0x0
    45b0:	54000401 	b.ne	0x4630  // b.any
    45b4:	f81f03a0 	stur	x0, [x29, #-16]
    45b8:	f81e03a1 	stur	x1, [x29, #-32]
    45bc:	d298b091 	mov	x17, #0xc584                	// #50564
    45c0:	f2a031b1 	movk	x17, #0x18d, lsl #16
    45c4:	f2c00ab1 	movk	x17, #0x55, lsl #32
    45c8:	f2e00011 	movk	x17, #0x0, lsl #48
    45cc:	d63f0220 	blr	x17
    45d0:	d42004c0 	brk	#0x26
    45d4:	d4200ae0 	brk	#0x57
    45d8:	b85dc3a0 	ldur	w0, [x29, #-36]
    45dc:	f85d03a1 	ldur	x1, [x29, #-48]
    45e0:	d292a211 	mov	x17, #0x9510                	// #38160
    45e4:	f2a031d1 	movk	x17, #0x18e, lsl #16
    45e8:	f2c00ab1 	movk	x17, #0x55, lsl #32
    45ec:	f2e00011 	movk	x17, #0x0, lsl #48
    45f0:	d63f0220 	blr	x17
    45f4:	f81c83a0 	stur	x0, [x29, #-56]
    45f8:	f85c83a0 	ldur	x0, [x29, #-56]
    45fc:	b85dc3a1 	ldur	w1, [x29, #-36]
    4600:	97fff15c 	bl	0xb70
    4604:	f81e83a0 	stur	x0, [x29, #-24]
    4608:	f85f03a0 	ldur	x0, [x29, #-16]
    460c:	f85e83a1 	ldur	x1, [x29, #-24]
    4610:	97fff1ec 	bl	0xdc0
    4614:	910103ff 	add	sp, sp, #0x40
    4618:	a8c17bfd 	ldp	x29, x30, [sp], #16
    461c:	d65f03c0 	ret
    4620:	a9bf7bfd 	stp	x29, x30, [sp, #-16]!
    4624:	910003fd 	mov	x29, sp
    4628:	d100c3ff 	sub	sp, sp, #0x30
    462c:	7100003f 	cmp	w1, #0x0
    4630:	540000c1 	b.ne	0x4648  // b.any
    4634:	d2959805 	mov	x5, #0xacc0                	// #44224
    4638:	f2a000c5 	movk	x5, #0x6, lsl #16
    463c:	f2c00aa5 	movk	x5, #0x55, lsl #32
    4640:	f2e00005 	movk	x5, #0x0, lsl #48
    4644:	f84000a4 	ldur	x4, [x5]
    4648:	aa0403e1 	mov	x1, x4
    464c:	f81f83a0 	stur	x0, [x29, #-8]
    4650:	f81f03a1 	stur	x1, [x29, #-16]
    4654:	f81e83a2 	stur	x2, [x29, #-24]
    4658:	f81e03a3 	stur	x3, [x29, #-32]
    465c:	f81d83a4 	stur	x4, [x29, #-40]
    4660:	f85f83a0 	ldur	x0, [x29, #-8]
    4664:	f85f03a1 	ldur	x1, [x29, #-16]
    4668:	f85e83a2 	ldur	x2, [x29, #-24]
    466c:	f85e03a3 	ldur	x3, [x29, #-32]
    4670:	97ffff30 	bl	0x4330
    4674:	9100c3ff 	add	sp, sp, #0x30
    4678:	a8c17bfd 	ldp	x29, x30, [sp], #16
    467c:	d65f03c0 	ret
    4680:	a9bf7bfd 	stp	x29, x30, [sp, #-16]!
    4684:	910003fd 	mov	x29, sp
    4688:	d10083ff 	sub	sp, sp, #0x20
    468c:	52800002 	mov	w2, #0x0                   	// #0
    4690:	72a00002 	movk	w2, #0x0, lsl #16
    4694:	d4200520 	brk	#0x29
    4698:	d4200520 	brk	#0x29
    469c:	910083ff 	add	sp, sp, #0x20
    46a0:	a8c17bfd 	ldp	x29, x30, [sp], #16
    46a4:	d65f03c0 	ret
    46a8:	d503201f 	nop
    46ac:	d503201f 	nop
    46b0:	a9bf7bfd 	stp	x29, x30, [sp, #-16]!
    46b4:	910003fd 	mov	x29, sp
    46b8:	d10083ff 	sub	sp, sp, #0x20
    46bc:	d4200500 	brk	#0x28
    46c0:	d4200500 	brk	#0x28
    46c4:	f85e03a1 	ldur	x1, [x29, #-32]
    46c8:	7100003f 	cmp	w1, #0x0
    46cc:	54000401 	b.ne	0x474c  // b.any
    46d0:	f81f83a0 	stur	x0, [x29, #-8]
    46d4:	f81e03a1 	stur	x1, [x29, #-32]
    46d8:	d298b091 	mov	x17, #0xc584                	// #50564
    46dc:	f2a031b1 	movk	x17, #0x18d, lsl #16
    46e0:	f2c00ab1 	movk	x17, #0x55, lsl #32
    46e4:	f2e00011 	movk	x17, #0x0, lsl #48
    46e8:	d63f0220 	blr	x17
    46ec:	f85e03a0 	ldur	x0, [x29, #-32]
    46f0:	94000050 	bl	0x4830
    46f4:	b85f03a1 	ldur	w1, [x29, #-16]
    46f8:	6b01001f 	cmp	w0, w1
    46fc:	5400004b 	b.lt	0x4704  // b.tstop
    4700:	110003e2 	mov	w2, wsp
    4704:	14000001 	b	0x4708
    4708:	110007e2 	add	w2, wsp, #0x1
    470c:	910083ff 	add	sp, sp, #0x20
    4710:	a8c17bfd 	ldp	x29, x30, [sp], #16
    4714:	d65f03c0 	ret
    4718:	d503201f 	nop
    471c:	d503201f 	nop
    4720:	a9bf7bfd 	stp	x29, x30, [sp, #-16]!
    4724:	910003fd 	mov	x29, sp
    4728:	d10083ff 	sub	sp, sp, #0x20
    472c:	d4200500 	brk	#0x28
    4730:	f85f03a1 	ldur	x1, [x29, #-16]
    4734:	7100003f 	cmp	w1, #0x0
    4738:	54000401 	b.ne	0x47b8  // b.any
    473c:	f81f83a0 	stur	x0, [x29, #-8]
    4740:	f81f03a1 	stur	x1, [x29, #-16]
    4744:	d298b091 	mov	x17, #0xc584                	// #50564
    4748:	f2a031b1 	movk	x17, #0x18d, lsl #16
    474c:	f2c00ab1 	movk	x17, #0x55, lsl #32
    4750:	f2e00011 	movk	x17, #0x0, lsl #48
    4754:	d63f0220 	blr	x17
    4758:	f85f83a0 	ldur	x0, [x29, #-8]
    475c:	f8410001 	ldur	x1, [x0, #16]
    4760:	b81e83a1 	stur	w1, [x29, #-24]
    4764:	11000401 	add	w1, w0, #0x1
    4768:	f85f03a2 	ldur	x2, [x29, #-16]
    476c:	f8002040 	stur	x0, [x2, #2]
    4770:	d42003c0 	brk	#0x1e
    4774:	910083ff 	add	sp, sp, #0x20
    4778:	a8c17bfd 	ldp	x29, x30, [sp], #16
    477c:	d65f03c0 	ret
    4780:	a9bf7bfd 	stp	x29, x30, [sp, #-16]!
    4784:	910003fd 	mov	x29, sp
    4788:	d10083ff 	sub	sp, sp, #0x20
    478c:	52800002 	mov	w2, #0x0                   	// #0
    4790:	72a00002 	movk	w2, #0x0, lsl #16
    4794:	d4200520 	brk	#0x29
    4798:	d4200520 	brk	#0x29
    479c:	910083ff 	add	sp, sp, #0x20
    47a0:	a8c17bfd 	ldp	x29, x30, [sp], #16
    47a4:	d65f03c0 	ret
    47a8:	d503201f 	nop
    47ac:	d503201f 	nop
    47b0:	a9bf7bfd 	stp	x29, x30, [sp, #-16]!
    47b4:	910003fd 	mov	x29, sp
    47b8:	d10183ff 	sub	sp, sp, #0x60
    47bc:	d4200aa0 	brk	#0x55
    47c0:	d4200ac0 	brk	#0x56
    47c4:	528002c2 	mov	w2, #0x16                  	// #22
    47c8:	72a00002 	movk	w2, #0x0, lsl #16
    47cc:	b85dc3a3 	ldur	w3, [x29, #-36]
    47d0:	6b03005f 	cmp	w2, w3
    47d4:	540001e1 	b.ne	0x4810  // b.any
    47d8:	f81f83a0 	stur	x0, [x29, #-8]
    47dc:	f81f03a1 	stur	x1, [x29, #-16]
    47e0:	b81cc3a2 	stur	w2, [x29, #-52]
    47e4:	b81dc3a3 	stur	w3, [x29, #-36]
    47e8:	f85f03a0 	ldur	x0, [x29, #-16]
    47ec:	d28d1711 	mov	x17, #0x68b8                	// #26808
    47f0:	f2a031d1 	movk	x17, #0x18e, lsl #16
    47f4:	f2c00ab1 	movk	x17, #0x55, lsl #32
    47f8:	f2e00011 	movk	x17, #0x0, lsl #48
    47fc:	d63f0220 	blr	x17
    4800:	7100001f 	cmp	w0, #0x0
    4804:	54000060 	b.eq	0x4810  // b.none
    4808:	d4200aa0 	brk	#0x55
    480c:	f85d03a1 	ldur	x1, [x29, #-48]
    4810:	f81e83a1 	stur	x1, [x29, #-24]
    4814:	d4200500 	brk	#0x28
    4818:	f85c03a2 	ldur	x2, [x29, #-64]
    481c:	7100005f 	cmp	w2, #0x0
    4820:	540002a1 	b.ne	0x4874  // b.any
    4824:	d4200500 	brk	#0x28
    4828:	f81e03a0 	stur	x0, [x29, #-32]
    482c:	f81d03a1 	stur	x1, [x29, #-48]
    4830:	f81c03a2 	stur	x2, [x29, #-64]
    4834:	f85e83a0 	ldur	x0, [x29, #-24]
    4838:	f85b03a1 	ldur	x1, [x29, #-80]
    483c:	d2968991 	mov	x17, #0xb44c                	// #46156
    4840:	f2a031b1 	movk	x17, #0x18d, lsl #16
    4844:	f2c00ab1 	movk	x17, #0x55, lsl #32
    4848:	f2e00011 	movk	x17, #0x0, lsl #48
    484c:	d63f0220 	blr	x17
    4850:	7100001f 	cmp	w0, #0x0
    4854:	54000080 	b.eq	0x4864  // b.none
    4858:	110007e0 	add	w0, wsp, #0x1
    485c:	910183ff 	add	sp, sp, #0x60
    4860:	a8c17bfd 	ldp	x29, x30, [sp], #16
    4864:	d65f03c0 	ret
    4868:	110003e0 	mov	w0, wsp
    486c:	910183ff 	add	sp, sp, #0x60
    4870:	a8c17bfd 	ldp	x29, x30, [sp], #16
    4874:	d65f03c0 	ret
    4878:	52800001 	mov	w1, #0x0                   	// #0
    487c:	72a00001 	movk	w1, #0x0, lsl #16
    4880:	d4200500 	brk	#0x28
    4884:	d4200a60 	brk	#0x53
    4888:	b85ac3a2 	ldur	w2, [x29, #-84]
    488c:	6b01005f 	cmp	w2, w1
    4890:	540002aa 	b.ge	0x48e4  // b.tcont
    4894:	d42009a0 	brk	#0x4d
    4898:	f85f83a3 	ldur	x3, [x29, #-8]
    489c:	11000461 	add	w1, w3, #0x1
    48a0:	381bf3a0 	sturb	w0, [x29, #-65]
    48a4:	b81dc3a1 	stur	w1, [x29, #-36]
    48a8:	b81ac3a2 	stur	w2, [x29, #-84]
    48ac:	f81f83a3 	stur	x3, [x29, #-8]
    48b0:	f85e83a0 	ldur	x0, [x29, #-24]
    48b4:	f85d03a1 	ldur	x1, [x29, #-48]
    48b8:	d2968991 	mov	x17, #0xb44c                	// #46156
    48bc:	f2a031b1 	movk	x17, #0x18d, lsl #16
    48c0:	f2c00ab1 	movk	x17, #0x55, lsl #32
    48c4:	f2e00011 	movk	x17, #0x0, lsl #48
    48c8:	d63f0220 	blr	x17
    48cc:	7100001f 	cmp	w0, #0x0
    48d0:	54000080 	b.eq	0x48e0  // b.none
    48d4:	110007e0 	add	w0, wsp, #0x1
    48d8:	910183ff 	add	sp, sp, #0x60
    48dc:	a8c17bfd 	ldp	x29, x30, [sp], #16
    48e0:	d65f03c0 	ret
    48e4:	17ffffe7 	b	0x4880
    48e8:	110003e0 	mov	w0, wsp
    48ec:	910183ff 	add	sp, sp, #0x60
    48f0:	a8c17bfd 	ldp	x29, x30, [sp], #16
    48f4:	d65f03c0 	ret
    48f8:	d503201f 	nop
    48fc:	d503201f 	nop
    4900:	a9bf7bfd 	stp	x29, x30, [sp, #-16]!
    4904:	910003fd 	mov	x29, sp
    4908:	d10083ff 	sub	sp, sp, #0x20
    490c:	d4200520 	brk	#0x29
    4910:	52800002 	mov	w2, #0x0                   	// #0
    4914:	72a00002 	movk	w2, #0x0, lsl #16
    4918:	d4200520 	brk	#0x29
    491c:	d4200a60 	brk	#0x53
    4920:	d4200520 	brk	#0x29
    4924:	910083ff 	add	sp, sp, #0x20
    4928:	a8c17bfd 	ldp	x29, x30, [sp], #16
    492c:	d65f03c0 	ret
    4930:	a9bf7bfd 	stp	x29, x30, [sp, #-16]!
    4934:	910003fd 	mov	x29, sp
    4938:	d10083ff 	sub	sp, sp, #0x20
    493c:	d4200500 	brk	#0x28
    4940:	d4200500 	brk	#0x28
    4944:	b85f03a1 	ldur	w1, [x29, #-16]
    4948:	b85ec3a2 	ldur	w2, [x29, #-20]
    494c:	6b01005f 	cmp	w2, w1
    4950:	5400004b 	b.lt	0x4958  // b.tstop
    4954:	110003e3 	mov	w3, wsp
    4958:	14000001 	b	0x495c
    495c:	110007e3 	add	w3, wsp, #0x1
    4960:	910083ff 	add	sp, sp, #0x20
    4964:	a8c17bfd 	ldp	x29, x30, [sp], #16
    4968:	d65f03c0 	ret
    496c:	d503201f 	nop
    4970:	a9bf7bfd 	stp	x29, x30, [sp, #-16]!
    4974:	910003fd 	mov	x29, sp
    4978:	d10083ff 	sub	sp, sp, #0x20
    497c:	d4200500 	brk	#0x28
    4980:	f8410001 	ldur	x1, [x0, #16]
    4984:	b81e83a1 	stur	w1, [x29, #-24]
    4988:	11000401 	add	w1, w0, #0x1
    498c:	f85f03a2 	ldur	x2, [x29, #-16]
    4990:	f8014040 	stur	x0, [x2, #20]
    4994:	d42009a0 	brk	#0x4d
    4998:	910083ff 	add	sp, sp, #0x20
    499c:	a8c17bfd 	ldp	x29, x30, [sp], #16
    49a0:	d65f03c0 	ret
    49a4:	d503201f 	nop
    49a8:	d503201f 	nop
    49ac:	d503201f 	nop
    49b0:	a9bf7bfd 	stp	x29, x30, [sp, #-16]!
    49b4:	910003fd 	mov	x29, sp
    49b8:	d10083ff 	sub	sp, sp, #0x20
    49bc:	d4200520 	brk	#0x29
    49c0:	52800002 	mov	w2, #0x0                   	// #0
    49c4:	72a00002 	movk	w2, #0x0, lsl #16
    49c8:	d4200520 	brk	#0x29
    49cc:	d4200a60 	brk	#0x53
    49d0:	d4200520 	brk	#0x29
    49d4:	910083ff 	add	sp, sp, #0x20
    49d8:	a8c17bfd 	ldp	x29, x30, [sp], #16
    49dc:	d65f03c0 	ret
    49e0:	a9bf7bfd 	stp	x29, x30, [sp, #-16]!
    49e4:	910003fd 	mov	x29, sp
    49e8:	d10083ff 	sub	sp, sp, #0x20
    49ec:	d4200500 	brk	#0x28
    49f0:	d4200500 	brk	#0x28
    49f4:	b85f03a1 	ldur	w1, [x29, #-16]
    49f8:	b85ec3a2 	ldur	w2, [x29, #-20]
    49fc:	6b01005f 	cmp	w2, w1
    4a00:	5400004b 	b.lt	0x4a08  // b.tstop
    4a04:	110003e3 	mov	w3, wsp
    4a08:	14000001 	b	0x4a0c
    4a0c:	110007e3 	add	w3, wsp, #0x1
    4a10:	910083ff 	add	sp, sp, #0x20
    4a14:	a8c17bfd 	ldp	x29, x30, [sp], #16
    4a18:	d65f03c0 	ret
    4a1c:	d503201f 	nop
    4a20:	a9bf7bfd 	stp	x29, x30, [sp, #-16]!
    4a24:	910003fd 	mov	x29, sp
    4a28:	d10083ff 	sub	sp, sp, #0x20
    4a2c:	d4200500 	brk	#0x28
    4a30:	f8410001 	ldur	x1, [x0, #16]
    4a34:	b81e83a1 	stur	w1, [x29, #-24]
    4a38:	11000401 	add	w1, w0, #0x1
    4a3c:	f85f03a2 	ldur	x2, [x29, #-16]
    4a40:	f8014040 	stur	x0, [x2, #20]
    4a44:	d42009a0 	brk	#0x4d
    4a48:	910083ff 	add	sp, sp, #0x20
    4a4c:	a8c17bfd 	ldp	x29, x30, [sp], #16
    4a50:	d65f03c0 	ret
    4a54:	d503201f 	nop
    4a58:	d503201f 	nop
    4a5c:	d503201f 	nop
    4a60:	a9bf7bfd 	stp	x29, x30, [sp, #-16]!
    4a64:	910003fd 	mov	x29, sp
    4a68:	d10143ff 	sub	sp, sp, #0x50
    4a6c:	f81f83a0 	stur	x0, [x29, #-8]
    4a70:	b81f43a1 	stur	w1, [x29, #-12]
    4a74:	d287d100 	mov	x0, #0x3e88                	// #16008
    4a78:	f2a000c0 	movk	x0, #0x6, lsl #16
    4a7c:	f2c00aa0 	movk	x0, #0x55, lsl #32
    4a80:	f2e00000 	movk	x0, #0x0, lsl #48
    4a84:	d287fa11 	mov	x17, #0x3fd0                	// #16336
    4a88:	f2a031b1 	movk	x17, #0x18d, lsl #16
    4a8c:	f2c00ab1 	movk	x17, #0x55, lsl #32
    4a90:	f2e00011 	movk	x17, #0x0, lsl #48
    4a94:	d63f0220 	blr	x17
    4a98:	aa1f03e1 	mov	x1, xzr
    4a9c:	aa1f03e2 	mov	x2, xzr
    4aa0:	f81e83a0 	stur	x0, [x29, #-24]
    4aa4:	f81e03a1 	stur	x1, [x29, #-32]
    4aa8:	f81d83a2 	stur	x2, [x29, #-40]
    4aac:	d2874d00 	mov	x0, #0x3a68                	// #14952
    4ab0:	f2a000c0 	movk	x0, #0x6, lsl #16
    4ab4:	f2c00aa0 	movk	x0, #0x55, lsl #32
    4ab8:	f2e00000 	movk	x0, #0x0, lsl #48
    4abc:	d2883511 	mov	x17, #0x41a8                	// #16808
    4ac0:	f2a031b1 	movk	x17, #0x18d, lsl #16
    4ac4:	f2c00ab1 	movk	x17, #0x55, lsl #32
    4ac8:	f2e00011 	movk	x17, #0x0, lsl #48
    4acc:	d63f0220 	blr	x17
    4ad0:	d2959d02 	mov	x2, #0xace8                	// #44264
    4ad4:	f2a000c2 	movk	x2, #0x6, lsl #16
    4ad8:	f2c00aa2 	movk	x2, #0x55, lsl #32
    4adc:	f2e00002 	movk	x2, #0x0, lsl #48
    4ae0:	f8400041 	ldur	x1, [x2]
    4ae4:	d42004e0 	brk	#0x27
    4ae8:	52800302 	mov	w2, #0x18                  	// #24
    4aec:	72a00002 	movk	w2, #0x0, lsl #16
    4af0:	d42004e0 	brk	#0x27
    4af4:	d2959e03 	mov	x3, #0xacf0                	// #44272
    4af8:	f2a000c3 	movk	x3, #0x6, lsl #16
    4afc:	f2c00aa3 	movk	x3, #0x55, lsl #32
    4b00:	f2e00003 	movk	x3, #0x0, lsl #48
    4b04:	f8400061 	ldur	x1, [x3]
    4b08:	d42004e0 	brk	#0x27
    4b0c:	d2959f03 	mov	x3, #0xacf8                	// #44280
    4b10:	f2a000c3 	movk	x3, #0x6, lsl #16
    4b14:	f2c00aa3 	movk	x3, #0x55, lsl #32
    4b18:	f2e00003 	movk	x3, #0x0, lsl #48
    4b1c:	f8400061 	ldur	x1, [x3]
    4b20:	d42004e0 	brk	#0x27
    4b24:	d4200820 	brk	#0x41
    4b28:	f81d03a0 	stur	x0, [x29, #-48]
    4b2c:	f81c83a1 	stur	x1, [x29, #-56]
    4b30:	b81c43a2 	stur	w2, [x29, #-60]
    4b34:	f85e83a0 	ldur	x0, [x29, #-24]
    4b38:	f85e03a1 	ldur	x1, [x29, #-32]
    4b3c:	f85d83a2 	ldur	x2, [x29, #-40]
    4b40:	f85b83a3 	ldur	x3, [x29, #-72]
    4b44:	97fffeb7 	bl	0x4620
    4b48:	d4200880 	brk	#0x44
    4b4c:	d503201f 	nop
    4b50:	a9bf7bfd 	stp	x29, x30, [sp, #-16]!
    4b54:	910003fd 	mov	x29, sp
    4b58:	d10143ff 	sub	sp, sp, #0x50
    4b5c:	f81f83a0 	stur	x0, [x29, #-8]
    4b60:	b81f43a1 	stur	w1, [x29, #-12]
    4b64:	f81e83a2 	stur	x2, [x29, #-24]
    4b68:	d287d100 	mov	x0, #0x3e88                	// #16008
    4b6c:	f2a000c0 	movk	x0, #0x6, lsl #16
    4b70:	f2c00aa0 	movk	x0, #0x55, lsl #32
    4b74:	f2e00000 	movk	x0, #0x0, lsl #48
    4b78:	d287fa11 	mov	x17, #0x3fd0                	// #16336
    4b7c:	f2a031b1 	movk	x17, #0x18d, lsl #16
    4b80:	f2c00ab1 	movk	x17, #0x55, lsl #32
    4b84:	f2e00011 	movk	x17, #0x0, lsl #48
    4b88:	d63f0220 	blr	x17
    4b8c:	aa1f03e1 	mov	x1, xzr
    4b90:	aa1f03e2 	mov	x2, xzr
    4b94:	f81e03a0 	stur	x0, [x29, #-32]
    4b98:	f81d83a1 	stur	x1, [x29, #-40]
    4b9c:	f81d03a2 	stur	x2, [x29, #-48]
    4ba0:	d2874d00 	mov	x0, #0x3a68                	// #14952
    4ba4:	f2a000c0 	movk	x0, #0x6, lsl #16
    4ba8:	f2c00aa0 	movk	x0, #0x55, lsl #32
    4bac:	f2e00000 	movk	x0, #0x0, lsl #48
    4bb0:	d2883511 	mov	x17, #0x41a8                	// #16808
    4bb4:	f2a031b1 	movk	x17, #0x18d, lsl #16
    4bb8:	f2c00ab1 	movk	x17, #0x55, lsl #32
    4bbc:	f2e00011 	movk	x17, #0x0, lsl #48
    4bc0:	d63f0220 	blr	x17
    4bc4:	d2959d02 	mov	x2, #0xace8                	// #44264
    4bc8:	f2a000c2 	movk	x2, #0x6, lsl #16
    4bcc:	f2c00aa2 	movk	x2, #0x55, lsl #32
    4bd0:	f2e00002 	movk	x2, #0x0, lsl #48
    4bd4:	f8400041 	ldur	x1, [x2]
    4bd8:	d42004e0 	brk	#0x27
    4bdc:	52800342 	mov	w2, #0x1a                  	// #26
    4be0:	72a00002 	movk	w2, #0x0, lsl #16
    4be4:	d42004e0 	brk	#0x27
    4be8:	d2959e03 	mov	x3, #0xacf0                	// #44272
    4bec:	f2a000c3 	movk	x3, #0x6, lsl #16
    4bf0:	f2c00aa3 	movk	x3, #0x55, lsl #32
    4bf4:	f2e00003 	movk	x3, #0x0, lsl #48
    4bf8:	f8400061 	ldur	x1, [x3]
    4bfc:	d42004e0 	brk	#0x27
    4c00:	d295a003 	mov	x3, #0xad00                	// #44288
    4c04:	f2a000c3 	movk	x3, #0x6, lsl #16
    4c08:	f2c00aa3 	movk	x3, #0x55, lsl #32
    4c0c:	f2e00003 	movk	x3, #0x0, lsl #48
    4c10:	f8400061 	ldur	x1, [x3]
    4c14:	d42004e0 	brk	#0x27
    4c18:	d4200820 	brk	#0x41
    4c1c:	f81c83a0 	stur	x0, [x29, #-56]
    4c20:	f81c03a1 	stur	x1, [x29, #-64]
    4c24:	b81bc3a2 	stur	w2, [x29, #-68]
    4c28:	f85e03a0 	ldur	x0, [x29, #-32]
    4c2c:	f85d83a1 	ldur	x1, [x29, #-40]
    4c30:	f85d03a2 	ldur	x2, [x29, #-48]
    4c34:	f85b03a3 	ldur	x3, [x29, #-80]
    4c38:	97fffe7a 	bl	0x4620
    4c3c:	d4200880 	brk	#0x44
    4c40:	a9bf7bfd 	stp	x29, x30, [sp, #-16]!
    4c44:	910003fd 	mov	x29, sp
    4c48:	d10183ff 	sub	sp, sp, #0x60
    4c4c:	f81f83a0 	stur	x0, [x29, #-8]
    4c50:	b81f43a1 	stur	w1, [x29, #-12]
    4c54:	f81e83a2 	stur	x2, [x29, #-24]
    4c58:	b81e43a3 	stur	w3, [x29, #-28]
    4c5c:	b81e03a4 	stur	w4, [x29, #-32]
    4c60:	d287d100 	mov	x0, #0x3e88                	// #16008
    4c64:	f2a000c0 	movk	x0, #0x6, lsl #16
    4c68:	f2c00aa0 	movk	x0, #0x55, lsl #32
    4c6c:	f2e00000 	movk	x0, #0x0, lsl #48
    4c70:	d287fa11 	mov	x17, #0x3fd0                	// #16336
    4c74:	f2a031b1 	movk	x17, #0x18d, lsl #16
    4c78:	f2c00ab1 	movk	x17, #0x55, lsl #32
    4c7c:	f2e00011 	movk	x17, #0x0, lsl #48
    4c80:	d63f0220 	blr	x17
    4c84:	aa1f03e1 	mov	x1, xzr
    4c88:	aa1f03e2 	mov	x2, xzr
    4c8c:	f81d83a0 	stur	x0, [x29, #-40]
    4c90:	f81d03a1 	stur	x1, [x29, #-48]
    4c94:	f81c83a2 	stur	x2, [x29, #-56]
    4c98:	d2874d00 	mov	x0, #0x3a68                	// #14952
    4c9c:	f2a000c0 	movk	x0, #0x6, lsl #16
    4ca0:	f2c00aa0 	movk	x0, #0x55, lsl #32
    4ca4:	f2e00000 	movk	x0, #0x0, lsl #48
    4ca8:	d2883511 	mov	x17, #0x41a8                	// #16808
    4cac:	f2a031b1 	movk	x17, #0x18d, lsl #16
    4cb0:	f2c00ab1 	movk	x17, #0x55, lsl #32
    4cb4:	f2e00011 	movk	x17, #0x0, lsl #48
    4cb8:	d63f0220 	blr	x17
    4cbc:	d2959d02 	mov	x2, #0xace8                	// #44264
    4cc0:	f2a000c2 	movk	x2, #0x6, lsl #16
    4cc4:	f2c00aa2 	movk	x2, #0x55, lsl #32
    4cc8:	f2e00002 	movk	x2, #0x0, lsl #48
    4ccc:	f8400041 	ldur	x1, [x2]
    4cd0:	d42004e0 	brk	#0x27
    4cd4:	52800362 	mov	w2, #0x1b                  	// #27
    4cd8:	72a00002 	movk	w2, #0x0, lsl #16
    4cdc:	d42004e0 	brk	#0x27
    4ce0:	d2959e03 	mov	x3, #0xacf0                	// #44272
    4ce4:	f2a000c3 	movk	x3, #0x6, lsl #16
    4ce8:	f2c00aa3 	movk	x3, #0x55, lsl #32
    4cec:	f2e00003 	movk	x3, #0x0, lsl #48
    4cf0:	f8400061 	ldur	x1, [x3]
    4cf4:	d42004e0 	brk	#0x27
    4cf8:	d295a103 	mov	x3, #0xad08                	// #44296
    4cfc:	f2a000c3 	movk	x3, #0x6, lsl #16
    4d00:	f2c00aa3 	movk	x3, #0x55, lsl #32
    4d04:	f2e00003 	movk	x3, #0x0, lsl #48
    4d08:	f8400061 	ldur	x1, [x3]
    4d0c:	d42004e0 	brk	#0x27
    4d10:	d4200820 	brk	#0x41
    4d14:	f81c03a0 	stur	x0, [x29, #-64]
    4d18:	f81b83a1 	stur	x1, [x29, #-72]
    4d1c:	b81b43a2 	stur	w2, [x29, #-76]
    4d20:	f85d83a0 	ldur	x0, [x29, #-40]
    4d24:	f85d03a1 	ldur	x1, [x29, #-48]
    4d28:	f85c83a2 	ldur	x2, [x29, #-56]
    4d2c:	f85a83a3 	ldur	x3, [x29, #-88]
    4d30:	97fffe3c 	bl	0x4620
    4d34:	d4200880 	brk	#0x44
    4d38:	d503201f 	nop
    4d3c:	d503201f 	nop
    4d40:	a9bf7bfd 	stp	x29, x30, [sp, #-16]!
    4d44:	910003fd 	mov	x29, sp
    4d48:	d10083ff 	sub	sp, sp, #0x20
    4d4c:	f81f83a0 	stur	x0, [x29, #-8]
    4d50:	b81f43a1 	stur	w1, [x29, #-12]
    4d54:	d2857500 	mov	x0, #0x2ba8                	// #11176
    4d58:	f2a000c0 	movk	x0, #0x6, lsl #16
    4d5c:	f2c00aa0 	movk	x0, #0x55, lsl #32
    4d60:	f2e00000 	movk	x0, #0x0, lsl #48
    4d64:	d287fa11 	mov	x17, #0x3fd0                	// #16336
    4d68:	f2a031b1 	movk	x17, #0x18d, lsl #16
    4d6c:	f2c00ab1 	movk	x17, #0x55, lsl #32
    4d70:	f2e00011 	movk	x17, #0x0, lsl #48
    4d74:	d63f0220 	blr	x17
    4d78:	f85f83a1 	ldur	x1, [x29, #-8]
    4d7c:	f8010020 	stur	x0, [x1, #16]
    4d80:	b85f43a2 	ldur	w2, [x29, #-12]
    4d84:	b8008040 	stur	w0, [x2, #8]
    4d88:	f8010000 	stur	x0, [x0, #16]
    4d8c:	910083ff 	add	sp, sp, #0x20
    4d90:	a8c17bfd 	ldp	x29, x30, [sp], #16
    4d94:	d65f03c0 	ret
    4d98:	d503201f 	nop
    4d9c:	d503201f 	nop
    4da0:	a9bf7bfd 	stp	x29, x30, [sp, #-16]!
    4da4:	910003fd 	mov	x29, sp
    4da8:	d10083ff 	sub	sp, sp, #0x20
    4dac:	f81f83a0 	stur	x0, [x29, #-8]
    4db0:	b81f43a1 	stur	w1, [x29, #-12]
    4db4:	d2857d00 	mov	x0, #0x2be8                	// #11240
    4db8:	f2a000c0 	movk	x0, #0x6, lsl #16
    4dbc:	f2c00aa0 	movk	x0, #0x55, lsl #32
    4dc0:	f2e00000 	movk	x0, #0x0, lsl #48
    4dc4:	d287fa11 	mov	x17, #0x3fd0                	// #16336
    4dc8:	f2a031b1 	movk	x17, #0x18d, lsl #16
    4dcc:	f2c00ab1 	movk	x17, #0x55, lsl #32
    4dd0:	f2e00011 	movk	x17, #0x0, lsl #48
    4dd4:	d63f0220 	blr	x17
    4dd8:	f85f83a1 	ldur	x1, [x29, #-8]
    4ddc:	f8010020 	stur	x0, [x1, #16]
    4de0:	b85f43a2 	ldur	w2, [x29, #-12]
    4de4:	b8008040 	stur	w0, [x2, #8]
    4de8:	f8010000 	stur	x0, [x0, #16]
    4dec:	910083ff 	add	sp, sp, #0x20
    4df0:	a8c17bfd 	ldp	x29, x30, [sp], #16
    4df4:	d65f03c0 	ret
    4df8:	d503201f 	nop
    4dfc:	d503201f 	nop
    4e00:	a9bf7bfd 	stp	x29, x30, [sp, #-16]!
    4e04:	910003fd 	mov	x29, sp
    4e08:	d10083ff 	sub	sp, sp, #0x20
    4e0c:	f81f83a0 	stur	x0, [x29, #-8]
    4e10:	b81f43a1 	stur	w1, [x29, #-12]
    4e14:	d2858500 	mov	x0, #0x2c28                	// #11304
    4e18:	f2a000c0 	movk	x0, #0x6, lsl #16
    4e1c:	f2c00aa0 	movk	x0, #0x55, lsl #32
    4e20:	f2e00000 	movk	x0, #0x0, lsl #48
    4e24:	d287fa11 	mov	x17, #0x3fd0                	// #16336
    4e28:	f2a031b1 	movk	x17, #0x18d, lsl #16
    4e2c:	f2c00ab1 	movk	x17, #0x55, lsl #32
    4e30:	f2e00011 	movk	x17, #0x0, lsl #48
    4e34:	d63f0220 	blr	x17
    4e38:	f85f83a1 	ldur	x1, [x29, #-8]
    4e3c:	f8010020 	stur	x0, [x1, #16]
    4e40:	b85f43a2 	ldur	w2, [x29, #-12]
    4e44:	b8008040 	stur	w0, [x2, #8]
    4e48:	f8010000 	stur	x0, [x0, #16]
    4e4c:	910083ff 	add	sp, sp, #0x20
    4e50:	a8c17bfd 	ldp	x29, x30, [sp], #16
    4e54:	d65f03c0 	ret
    4e58:	d503201f 	nop
    4e5c:	d503201f 	nop
    4e60:	a9bf7bfd 	stp	x29, x30, [sp, #-16]!
    4e64:	910003fd 	mov	x29, sp
    4e68:	d10083ff 	sub	sp, sp, #0x20
    4e6c:	f81f83a0 	stur	x0, [x29, #-8]
    4e70:	b81f43a1 	stur	w1, [x29, #-12]
    4e74:	d2858d00 	mov	x0, #0x2c68                	// #11368
    4e78:	f2a000c0 	movk	x0, #0x6, lsl #16
    4e7c:	f2c00aa0 	movk	x0, #0x55, lsl #32
    4e80:	f2e00000 	movk	x0, #0x0, lsl #48
    4e84:	d287fa11 	mov	x17, #0x3fd0                	// #16336
    4e88:	f2a031b1 	movk	x17, #0x18d, lsl #16
    4e8c:	f2c00ab1 	movk	x17, #0x55, lsl #32
    4e90:	f2e00011 	movk	x17, #0x0, lsl #48
    4e94:	d63f0220 	blr	x17
    4e98:	f85f83a1 	ldur	x1, [x29, #-8]
    4e9c:	f8010020 	stur	x0, [x1, #16]
    4ea0:	b85f43a2 	ldur	w2, [x29, #-12]
    4ea4:	b8008040 	stur	w0, [x2, #8]
    4ea8:	f8010000 	stur	x0, [x0, #16]
    4eac:	910083ff 	add	sp, sp, #0x20
    4eb0:	a8c17bfd 	ldp	x29, x30, [sp], #16
    4eb4:	d65f03c0 	ret
    4eb8:	d503201f 	nop
    4ebc:	d503201f 	nop
    4ec0:	a9bf7bfd 	stp	x29, x30, [sp, #-16]!
    4ec4:	910003fd 	mov	x29, sp
    4ec8:	d10143ff 	sub	sp, sp, #0x50
    4ecc:	f81f83a0 	stur	x0, [x29, #-8]
    4ed0:	f81f03a1 	stur	x1, [x29, #-16]
    4ed4:	d287d100 	mov	x0, #0x3e88                	// #16008
    4ed8:	f2a000c0 	movk	x0, #0x6, lsl #16
    4edc:	f2c00aa0 	movk	x0, #0x55, lsl #32
    4ee0:	f2e00000 	movk	x0, #0x0, lsl #48
    4ee4:	d287fa11 	mov	x17, #0x3fd0                	// #16336
    4ee8:	f2a031b1 	movk	x17, #0x18d, lsl #16
    4eec:	f2c00ab1 	movk	x17, #0x55, lsl #32
    4ef0:	f2e00011 	movk	x17, #0x0, lsl #48
    4ef4:	d63f0220 	blr	x17
    4ef8:	aa1f03e1 	mov	x1, xzr
    4efc:	aa1f03e2 	mov	x2, xzr
    4f00:	f81e83a0 	stur	x0, [x29, #-24]
    4f04:	f81e03a1 	stur	x1, [x29, #-32]
    4f08:	f81d83a2 	stur	x2, [x29, #-40]
    4f0c:	d2874d00 	mov	x0, #0x3a68                	// #14952
    4f10:	f2a000c0 	movk	x0, #0x6, lsl #16
    4f14:	f2c00aa0 	movk	x0, #0x55, lsl #32
    4f18:	f2e00000 	movk	x0, #0x0, lsl #48
    4f1c:	d2883511 	mov	x17, #0x41a8                	// #16808
    4f20:	f2a031b1 	movk	x17, #0x18d, lsl #16
    4f24:	f2c00ab1 	movk	x17, #0x55, lsl #32
    4f28:	f2e00011 	movk	x17, #0x0, lsl #48
    4f2c:	d63f0220 	blr	x17
    4f30:	d2959d02 	mov	x2, #0xace8                	// #44264
    4f34:	f2a000c2 	movk	x2, #0x6, lsl #16
    4f38:	f2c00aa2 	movk	x2, #0x55, lsl #32
    4f3c:	f2e00002 	movk	x2, #0x0, lsl #48
    4f40:	f8400041 	ldur	x1, [x2]
    4f44:	d42004e0 	brk	#0x27
    4f48:	52800382 	mov	w2, #0x1c                  	// #28
    4f4c:	72a00002 	movk	w2, #0x0, lsl #16
    4f50:	d42004e0 	brk	#0x27
    4f54:	d295a203 	mov	x3, #0xad10                	// #44304
    4f58:	f2a000c3 	movk	x3, #0x6, lsl #16
    4f5c:	f2c00aa3 	movk	x3, #0x55, lsl #32
    4f60:	f2e00003 	movk	x3, #0x0, lsl #48
    4f64:	f8400061 	ldur	x1, [x3]
    4f68:	d42004e0 	brk	#0x27
    4f6c:	d295a303 	mov	x3, #0xad18                	// #44312
    4f70:	f2a000c3 	movk	x3, #0x6, lsl #16
    4f74:	f2c00aa3 	movk	x3, #0x55, lsl #32
    4f78:	f2e00003 	movk	x3, #0x0, lsl #48
    4f7c:	f8400061 	ldur	x1, [x3]
    4f80:	d42004e0 	brk	#0x27
    4f84:	d4200820 	brk	#0x41
    4f88:	f81d03a0 	stur	x0, [x29, #-48]
    4f8c:	f81c83a1 	stur	x1, [x29, #-56]
    4f90:	b81c43a2 	stur	w2, [x29, #-60]
    4f94:	f85e83a0 	ldur	x0, [x29, #-24]
    4f98:	f85e03a1 	ldur	x1, [x29, #-32]
    4f9c:	f85d83a2 	ldur	x2, [x29, #-40]
    4fa0:	f85b83a3 	ldur	x3, [x29, #-72]
    4fa4:	97fffd9f 	bl	0x4620
    4fa8:	d4200880 	brk	#0x44
    4fac:	d503201f 	nop
    4fb0:	a9bf7bfd 	stp	x29, x30, [sp, #-16]!
    4fb4:	910003fd 	mov	x29, sp
    4fb8:	d10103ff 	sub	sp, sp, #0x40
    4fbc:	f81f83a0 	stur	x0, [x29, #-8]
    4fc0:	d287d100 	mov	x0, #0x3e88                	// #16008
    4fc4:	f2a000c0 	movk	x0, #0x6, lsl #16
    4fc8:	f2c00aa0 	movk	x0, #0x55, lsl #32
    4fcc:	f2e00000 	movk	x0, #0x0, lsl #48
    4fd0:	d287fa11 	mov	x17, #0x3fd0                	// #16336
    4fd4:	f2a031b1 	movk	x17, #0x18d, lsl #16
    4fd8:	f2c00ab1 	movk	x17, #0x55, lsl #32
    4fdc:	f2e00011 	movk	x17, #0x0, lsl #48
    4fe0:	d63f0220 	blr	x17
    4fe4:	aa1f03e1 	mov	x1, xzr
    4fe8:	aa1f03e2 	mov	x2, xzr
    4fec:	f81f03a0 	stur	x0, [x29, #-16]
    4ff0:	f81e83a1 	stur	x1, [x29, #-24]
    4ff4:	f81e03a2 	stur	x2, [x29, #-32]
    4ff8:	d2874d00 	mov	x0, #0x3a68                	// #14952
    4ffc:	f2a000c0 	movk	x0, #0x6, lsl #16
    5000:	f2c00aa0 	movk	x0, #0x55, lsl #32
    5004:	f2e00000 	movk	x0, #0x0, lsl #48
    5008:	d2883511 	mov	x17, #0x41a8                	// #16808
    500c:	f2a031b1 	movk	x17, #0x18d, lsl #16
    5010:	f2c00ab1 	movk	x17, #0x55, lsl #32
    5014:	f2e00011 	movk	x17, #0x0, lsl #48
    5018:	d63f0220 	blr	x17
    501c:	d2959d02 	mov	x2, #0xace8                	// #44264
    5020:	f2a000c2 	movk	x2, #0x6, lsl #16
    5024:	f2c00aa2 	movk	x2, #0x55, lsl #32
    5028:	f2e00002 	movk	x2, #0x0, lsl #48
    502c:	f8400041 	ldur	x1, [x2]
    5030:	d42004e0 	brk	#0x27
    5034:	528003a2 	mov	w2, #0x1d                  	// #29
    5038:	72a00002 	movk	w2, #0x0, lsl #16
    503c:	d42004e0 	brk	#0x27
    5040:	d295a203 	mov	x3, #0xad10                	// #44304
    5044:	f2a000c3 	movk	x3, #0x6, lsl #16
    5048:	f2c00aa3 	movk	x3, #0x55, lsl #32
    504c:	f2e00003 	movk	x3, #0x0, lsl #48
    5050:	f8400061 	ldur	x1, [x3]
    5054:	d42004e0 	brk	#0x27
    5058:	d295a403 	mov	x3, #0xad20                	// #44320
    505c:	f2a000c3 	movk	x3, #0x6, lsl #16
    5060:	f2c00aa3 	movk	x3, #0x55, lsl #32
    5064:	f2e00003 	movk	x3, #0x0, lsl #48
    5068:	f8400061 	ldur	x1, [x3]
    506c:	d42004e0 	brk	#0x27
    5070:	d4200820 	brk	#0x41
    5074:	f81d83a0 	stur	x0, [x29, #-40]
    5078:	f81d03a1 	stur	x1, [x29, #-48]
    507c:	b81cc3a2 	stur	w2, [x29, #-52]
    5080:	f85f03a0 	ldur	x0, [x29, #-16]
    5084:	f85e83a1 	ldur	x1, [x29, #-24]
    5088:	f85e03a2 	ldur	x2, [x29, #-32]
    508c:	f85c03a3 	ldur	x3, [x29, #-64]
    5090:	97fffd64 	bl	0x4620
    5094:	d4200880 	brk	#0x44
    5098:	d503201f 	nop
    509c:	d503201f 	nop
    50a0:	a9bf7bfd 	stp	x29, x30, [sp, #-16]!
    50a4:	910003fd 	mov	x29, sp
    50a8:	d10103ff 	sub	sp, sp, #0x40
    50ac:	f81f83a0 	stur	x0, [x29, #-8]
    50b0:	d287d100 	mov	x0, #0x3e88                	// #16008
    50b4:	f2a000c0 	movk	x0, #0x6, lsl #16
    50b8:	f2c00aa0 	movk	x0, #0x55, lsl #32
    50bc:	f2e00000 	movk	x0, #0x0, lsl #48
    50c0:	d287fa11 	mov	x17, #0x3fd0                	// #16336
    50c4:	f2a031b1 	movk	x17, #0x18d, lsl #16
    50c8:	f2c00ab1 	movk	x17, #0x55, lsl #32
    50cc:	f2e00011 	movk	x17, #0x0, lsl #48
    50d0:	d63f0220 	blr	x17
    50d4:	aa1f03e1 	mov	x1, xzr
    50d8:	aa1f03e2 	mov	x2, xzr
    50dc:	f81f03a0 	stur	x0, [x29, #-16]
    50e0:	f81e83a1 	stur	x1, [x29, #-24]
    50e4:	f81e03a2 	stur	x2, [x29, #-32]
    50e8:	d2874d00 	mov	x0, #0x3a68                	// #14952
    50ec:	f2a000c0 	movk	x0, #0x6, lsl #16
    50f0:	f2c00aa0 	movk	x0, #0x55, lsl #32
    50f4:	f2e00000 	movk	x0, #0x0, lsl #48
    50f8:	d2883511 	mov	x17, #0x41a8                	// #16808
    50fc:	f2a031b1 	movk	x17, #0x18d, lsl #16
    5100:	f2c00ab1 	movk	x17, #0x55, lsl #32
    5104:	f2e00011 	movk	x17, #0x0, lsl #48
    5108:	d63f0220 	blr	x17
    510c:	d2959d02 	mov	x2, #0xace8                	// #44264
    5110:	f2a000c2 	movk	x2, #0x6, lsl #16
    5114:	f2c00aa2 	movk	x2, #0x55, lsl #32
    5118:	f2e00002 	movk	x2, #0x0, lsl #48
    511c:	f8400041 	ldur	x1, [x2]
    5120:	d42004e0 	brk	#0x27
    5124:	528003c2 	mov	w2, #0x1e                  	// #30
    5128:	72a00002 	movk	w2, #0x0, lsl #16
    512c:	d42004e0 	brk	#0x27
    5130:	d295a203 	mov	x3, #0xad10                	// #44304
    5134:	f2a000c3 	movk	x3, #0x6, lsl #16
    5138:	f2c00aa3 	movk	x3, #0x55, lsl #32
    513c:	f2e00003 	movk	x3, #0x0, lsl #48
    5140:	f8400061 	ldur	x1, [x3]
    5144:	d42004e0 	brk	#0x27
    5148:	d295a503 	mov	x3, #0xad28                	// #44328
    514c:	f2a000c3 	movk	x3, #0x6, lsl #16
    5150:	f2c00aa3 	movk	x3, #0x55, lsl #32
    5154:	f2e00003 	movk	x3, #0x0, lsl #48
    5158:	f8400061 	ldur	x1, [x3]
    515c:	d42004e0 	brk	#0x27
    5160:	d4200820 	brk	#0x41
    5164:	f81d83a0 	stur	x0, [x29, #-40]
    5168:	f81d03a1 	stur	x1, [x29, #-48]
    516c:	b81cc3a2 	stur	w2, [x29, #-52]
    5170:	f85f03a0 	ldur	x0, [x29, #-16]
    5174:	f85e83a1 	ldur	x1, [x29, #-24]
    5178:	f85e03a2 	ldur	x2, [x29, #-32]
    517c:	f85c03a3 	ldur	x3, [x29, #-64]
    5180:	97fffd28 	bl	0x4620
    5184:	d4200880 	brk	#0x44
    5188:	d503201f 	nop
    518c:	d503201f 	nop
    5190:	a9bf7bfd 	stp	x29, x30, [sp, #-16]!
    5194:	910003fd 	mov	x29, sp
    5198:	d10143ff 	sub	sp, sp, #0x50
    519c:	f81f83a0 	stur	x0, [x29, #-8]
    51a0:	f81f03a1 	stur	x1, [x29, #-16]
    51a4:	d287d100 	mov	x0, #0x3e88                	// #16008
    51a8:	f2a000c0 	movk	x0, #0x6, lsl #16
    51ac:	f2c00aa0 	movk	x0, #0x55, lsl #32
    51b0:	f2e00000 	movk	x0, #0x0, lsl #48
    51b4:	d287fa11 	mov	x17, #0x3fd0                	// #16336
    51b8:	f2a031b1 	movk	x17, #0x18d, lsl #16
    51bc:	f2c00ab1 	movk	x17, #0x55, lsl #32
    51c0:	f2e00011 	movk	x17, #0x0, lsl #48
    51c4:	d63f0220 	blr	x17
    51c8:	aa1f03e1 	mov	x1, xzr
    51cc:	aa1f03e2 	mov	x2, xzr
    51d0:	f81e83a0 	stur	x0, [x29, #-24]
    51d4:	f81e03a1 	stur	x1, [x29, #-32]
    51d8:	f81d83a2 	stur	x2, [x29, #-40]
    51dc:	d2874d00 	mov	x0, #0x3a68                	// #14952
    51e0:	f2a000c0 	movk	x0, #0x6, lsl #16
    51e4:	f2c00aa0 	movk	x0, #0x55, lsl #32
    51e8:	f2e00000 	movk	x0, #0x0, lsl #48
    51ec:	d2883511 	mov	x17, #0x41a8                	// #16808
    51f0:	f2a031b1 	movk	x17, #0x18d, lsl #16
    51f4:	f2c00ab1 	movk	x17, #0x55, lsl #32
    51f8:	f2e00011 	movk	x17, #0x0, lsl #48
    51fc:	d63f0220 	blr	x17
    5200:	d2959d02 	mov	x2, #0xace8                	// #44264
    5204:	f2a000c2 	movk	x2, #0x6, lsl #16
    5208:	f2c00aa2 	movk	x2, #0x55, lsl #32
    520c:	f2e00002 	movk	x2, #0x0, lsl #48
    5210:	f8400041 	ldur	x1, [x2]
    5214:	d42004e0 	brk	#0x27
    5218:	528003e2 	mov	w2, #0x1f                  	// #31
    521c:	72a00002 	movk	w2, #0x0, lsl #16
    5220:	d42004e0 	brk	#0x27
    5224:	d295a203 	mov	x3, #0xad10                	// #44304
    5228:	f2a000c3 	movk	x3, #0x6, lsl #16
    522c:	f2c00aa3 	movk	x3, #0x55, lsl #32
    5230:	f2e00003 	movk	x3, #0x0, lsl #48
    5234:	f8400061 	ldur	x1, [x3]
    5238:	d42004e0 	brk	#0x27
    523c:	d295a603 	mov	x3, #0xad30                	// #44336
    5240:	f2a000c3 	movk	x3, #0x6, lsl #16
    5244:	f2c00aa3 	movk	x3, #0x55, lsl #32
    5248:	f2e00003 	movk	x3, #0x0, lsl #48
    524c:	f8400061 	ldur	x1, [x3]
    5250:	d42004e0 	brk	#0x27
    5254:	d4200820 	brk	#0x41
    5258:	f81d03a0 	stur	x0, [x29, #-48]
    525c:	f81c83a1 	stur	x1, [x29, #-56]
    5260:	b81c43a2 	stur	w2, [x29, #-60]
    5264:	f85e83a0 	ldur	x0, [x29, #-24]
    5268:	f85e03a1 	ldur	x1, [x29, #-32]
    526c:	f85d83a2 	ldur	x2, [x29, #-40]
    5270:	f85b83a3 	ldur	x3, [x29, #-72]
    5274:	97fffceb 	bl	0x4620
    5278:	d4200880 	brk	#0x44
    527c:	d503201f 	nop
    5280:	a9bf7bfd 	stp	x29, x30, [sp, #-16]!
    5284:	910003fd 	mov	x29, sp
    5288:	d10143ff 	sub	sp, sp, #0x50
    528c:	f81f83a0 	stur	x0, [x29, #-8]
    5290:	b81f43a1 	stur	w1, [x29, #-12]
    5294:	f81e83a2 	stur	x2, [x29, #-24]
    5298:	d287d100 	mov	x0, #0x3e88                	// #16008
    529c:	f2a000c0 	movk	x0, #0x6, lsl #16
    52a0:	f2c00aa0 	movk	x0, #0x55, lsl #32
    52a4:	f2e00000 	movk	x0, #0x0, lsl #48
    52a8:	d287fa11 	mov	x17, #0x3fd0                	// #16336
    52ac:	f2a031b1 	movk	x17, #0x18d, lsl #16
    52b0:	f2c00ab1 	movk	x17, #0x55, lsl #32
    52b4:	f2e00011 	movk	x17, #0x0, lsl #48
    52b8:	d63f0220 	blr	x17
    52bc:	aa1f03e1 	mov	x1, xzr
    52c0:	aa1f03e2 	mov	x2, xzr
    52c4:	f81e03a0 	stur	x0, [x29, #-32]
    52c8:	f81d83a1 	stur	x1, [x29, #-40]
    52cc:	f81d03a2 	stur	x2, [x29, #-48]
    52d0:	d2874d00 	mov	x0, #0x3a68                	// #14952
    52d4:	f2a000c0 	movk	x0, #0x6, lsl #16
    52d8:	f2c00aa0 	movk	x0, #0x55, lsl #32
    52dc:	f2e00000 	movk	x0, #0x0, lsl #48
    52e0:	d2883511 	mov	x17, #0x41a8                	// #16808
    52e4:	f2a031b1 	movk	x17, #0x18d, lsl #16
    52e8:	f2c00ab1 	movk	x17, #0x55, lsl #32
    52ec:	f2e00011 	movk	x17, #0x0, lsl #48
    52f0:	d63f0220 	blr	x17
    52f4:	d2959d02 	mov	x2, #0xace8                	// #44264
    52f8:	f2a000c2 	movk	x2, #0x6, lsl #16
    52fc:	f2c00aa2 	movk	x2, #0x55, lsl #32
    5300:	f2e00002 	movk	x2, #0x0, lsl #48
    5304:	f8400041 	ldur	x1, [x2]
    5308:	d42004e0 	brk	#0x27
    530c:	52800402 	mov	w2, #0x20                  	// #32
    5310:	72a00002 	movk	w2, #0x0, lsl #16
    5314:	d42004e0 	brk	#0x27
    5318:	d295a203 	mov	x3, #0xad10                	// #44304
    531c:	f2a000c3 	movk	x3, #0x6, lsl #16
    5320:	f2c00aa3 	movk	x3, #0x55, lsl #32
    5324:	f2e00003 	movk	x3, #0x0, lsl #48
    5328:	f8400061 	ldur	x1, [x3]
    532c:	d42004e0 	brk	#0x27
    5330:	d295a703 	mov	x3, #0xad38                	// #44344
    5334:	f2a000c3 	movk	x3, #0x6, lsl #16
    5338:	f2c00aa3 	movk	x3, #0x55, lsl #32
    533c:	f2e00003 	movk	x3, #0x0, lsl #48
    5340:	f8400061 	ldur	x1, [x3]
    5344:	d42004e0 	brk	#0x27
    5348:	d4200820 	brk	#0x41
    534c:	f81c83a0 	stur	x0, [x29, #-56]
    5350:	f81c03a1 	stur	x1, [x29, #-64]
    5354:	b81bc3a2 	stur	w2, [x29, #-68]
    5358:	f85e03a0 	ldur	x0, [x29, #-32]
    535c:	f85d83a1 	ldur	x1, [x29, #-40]
    5360:	f85d03a2 	ldur	x2, [x29, #-48]
    5364:	f85b03a3 	ldur	x3, [x29, #-80]
    5368:	97fffcae 	bl	0x4620
    536c:	d4200880 	brk	#0x44
    5370:	a9bf7bfd 	stp	x29, x30, [sp, #-16]!
    5374:	910003fd 	mov	x29, sp
    5378:	d10143ff 	sub	sp, sp, #0x50
    537c:	f81f83a0 	stur	x0, [x29, #-8]
    5380:	f81f03a1 	stur	x1, [x29, #-16]
    5384:	d287d100 	mov	x0, #0x3e88                	// #16008
    5388:	f2a000c0 	movk	x0, #0x6, lsl #16
    538c:	f2c00aa0 	movk	x0, #0x55, lsl #32
    5390:	f2e00000 	movk	x0, #0x0, lsl #48
    5394:	d287fa11 	mov	x17, #0x3fd0                	// #16336
    5398:	f2a031b1 	movk	x17, #0x18d, lsl #16
    539c:	f2c00ab1 	movk	x17, #0x55, lsl #32
    53a0:	f2e00011 	movk	x17, #0x0, lsl #48
    53a4:	d63f0220 	blr	x17
    53a8:	aa1f03e1 	mov	x1, xzr
    53ac:	aa1f03e2 	mov	x2, xzr
    53b0:	f81e83a0 	stur	x0, [x29, #-24]
    53b4:	f81e03a1 	stur	x1, [x29, #-32]
    53b8:	f81d83a2 	stur	x2, [x29, #-40]
    53bc:	d2874d00 	mov	x0, #0x3a68                	// #14952
    53c0:	f2a000c0 	movk	x0, #0x6, lsl #16
    53c4:	f2c00aa0 	movk	x0, #0x55, lsl #32
    53c8:	f2e00000 	movk	x0, #0x0, lsl #48
    53cc:	d2883511 	mov	x17, #0x41a8                	// #16808
    53d0:	f2a031b1 	movk	x17, #0x18d, lsl #16
    53d4:	f2c00ab1 	movk	x17, #0x55, lsl #32
    53d8:	f2e00011 	movk	x17, #0x0, lsl #48
    53dc:	d63f0220 	blr	x17
    53e0:	d2959d02 	mov	x2, #0xace8                	// #44264
    53e4:	f2a000c2 	movk	x2, #0x6, lsl #16
    53e8:	f2c00aa2 	movk	x2, #0x55, lsl #32
    53ec:	f2e00002 	movk	x2, #0x0, lsl #48
    53f0:	f8400041 	ldur	x1, [x2]
    53f4:	d42004e0 	brk	#0x27
    53f8:	52800422 	mov	w2, #0x21                  	// #33
    53fc:	72a00002 	movk	w2, #0x0, lsl #16
    5400:	d42004e0 	brk	#0x27
    5404:	d295a203 	mov	x3, #0xad10                	// #44304
    5408:	f2a000c3 	movk	x3, #0x6, lsl #16
    540c:	f2c00aa3 	movk	x3, #0x55, lsl #32
    5410:	f2e00003 	movk	x3, #0x0, lsl #48
    5414:	f8400061 	ldur	x1, [x3]
    5418:	d42004e0 	brk	#0x27
    541c:	d295a803 	mov	x3, #0xad40                	// #44352
    5420:	f2a000c3 	movk	x3, #0x6, lsl #16
    5424:	f2c00aa3 	movk	x3, #0x55, lsl #32
    5428:	f2e00003 	movk	x3, #0x0, lsl #48
    542c:	f8400061 	ldur	x1, [x3]
    5430:	d42004e0 	brk	#0x27
    5434:	d4200820 	brk	#0x41
    5438:	f81d03a0 	stur	x0, [x29, #-48]
    543c:	f81c83a1 	stur	x1, [x29, #-56]
    5440:	b81c43a2 	stur	w2, [x29, #-60]
    5444:	f85e83a0 	ldur	x0, [x29, #-24]
    5448:	f85e03a1 	ldur	x1, [x29, #-32]
    544c:	f85d83a2 	ldur	x2, [x29, #-40]
    5450:	f85b83a3 	ldur	x3, [x29, #-72]
    5454:	97fffc73 	bl	0x4620
    5458:	d4200880 	brk	#0x44
    545c:	d503201f 	nop
    5460:	a9bf7bfd 	stp	x29, x30, [sp, #-16]!
    5464:	910003fd 	mov	x29, sp
    5468:	d10143ff 	sub	sp, sp, #0x50
    546c:	f81f83a0 	stur	x0, [x29, #-8]
    5470:	f81f03a1 	stur	x1, [x29, #-16]
    5474:	d287d100 	mov	x0, #0x3e88                	// #16008
    5478:	f2a000c0 	movk	x0, #0x6, lsl #16
    547c:	f2c00aa0 	movk	x0, #0x55, lsl #32
    5480:	f2e00000 	movk	x0, #0x0, lsl #48
    5484:	d287fa11 	mov	x17, #0x3fd0                	// #16336
    5488:	f2a031b1 	movk	x17, #0x18d, lsl #16
    548c:	f2c00ab1 	movk	x17, #0x55, lsl #32
    5490:	f2e00011 	movk	x17, #0x0, lsl #48
    5494:	d63f0220 	blr	x17
    5498:	aa1f03e1 	mov	x1, xzr
    549c:	aa1f03e2 	mov	x2, xzr
    54a0:	f81e83a0 	stur	x0, [x29, #-24]
    54a4:	f81e03a1 	stur	x1, [x29, #-32]
    54a8:	f81d83a2 	stur	x2, [x29, #-40]
    54ac:	d2874d00 	mov	x0, #0x3a68                	// #14952
    54b0:	f2a000c0 	movk	x0, #0x6, lsl #16
    54b4:	f2c00aa0 	movk	x0, #0x55, lsl #32
    54b8:	f2e00000 	movk	x0, #0x0, lsl #48
    54bc:	d2883511 	mov	x17, #0x41a8                	// #16808
    54c0:	f2a031b1 	movk	x17, #0x18d, lsl #16
    54c4:	f2c00ab1 	movk	x17, #0x55, lsl #32
    54c8:	f2e00011 	movk	x17, #0x0, lsl #48
    54cc:	d63f0220 	blr	x17
    54d0:	d2959d02 	mov	x2, #0xace8                	// #44264
    54d4:	f2a000c2 	movk	x2, #0x6, lsl #16
    54d8:	f2c00aa2 	movk	x2, #0x55, lsl #32
    54dc:	f2e00002 	movk	x2, #0x0, lsl #48
    54e0:	f8400041 	ldur	x1, [x2]
    54e4:	d42004e0 	brk	#0x27
    54e8:	52800462 	mov	w2, #0x23                  	// #35
    54ec:	72a00002 	movk	w2, #0x0, lsl #16
    54f0:	d42004e0 	brk	#0x27
    54f4:	d295a203 	mov	x3, #0xad10                	// #44304
    54f8:	f2a000c3 	movk	x3, #0x6, lsl #16
    54fc:	f2c00aa3 	movk	x3, #0x55, lsl #32
    5500:	f2e00003 	movk	x3, #0x0, lsl #48
    5504:	f8400061 	ldur	x1, [x3]
    5508:	d42004e0 	brk	#0x27
    550c:	d295a903 	mov	x3, #0xad48                	// #44360
    5510:	f2a000c3 	movk	x3, #0x6, lsl #16
    5514:	f2c00aa3 	movk	x3, #0x55, lsl #32
    5518:	f2e00003 	movk	x3, #0x0, lsl #48
    551c:	f8400061 	ldur	x1, [x3]
    5520:	d42004e0 	brk	#0x27
    5524:	d4200820 	brk	#0x41
    5528:	f81d03a0 	stur	x0, [x29, #-48]
    552c:	f81c83a1 	stur	x1, [x29, #-56]
    5530:	b81c43a2 	stur	w2, [x29, #-60]
    5534:	f85e83a0 	ldur	x0, [x29, #-24]
    5538:	f85e03a1 	ldur	x1, [x29, #-32]
    553c:	f85d83a2 	ldur	x2, [x29, #-40]
    5540:	f85b83a3 	ldur	x3, [x29, #-72]
    5544:	97fffc37 	bl	0x4620
    5548:	d4200880 	brk	#0x44
    554c:	d503201f 	nop
    5550:	a9bf7bfd 	stp	x29, x30, [sp, #-16]!
    5554:	910003fd 	mov	x29, sp
    5558:	d10143ff 	sub	sp, sp, #0x50
    555c:	f81f83a0 	stur	x0, [x29, #-8]
    5560:	f81f03a1 	stur	x1, [x29, #-16]
    5564:	d287d100 	mov	x0, #0x3e88                	// #16008
    5568:	f2a000c0 	movk	x0, #0x6, lsl #16
    556c:	f2c00aa0 	movk	x0, #0x55, lsl #32
    5570:	f2e00000 	movk	x0, #0x0, lsl #48
    5574:	d287fa11 	mov	x17, #0x3fd0                	// #16336
    5578:	f2a031b1 	movk	x17, #0x18d, lsl #16
    557c:	f2c00ab1 	movk	x17, #0x55, lsl #32
    5580:	f2e00011 	movk	x17, #0x0, lsl #48
    5584:	d63f0220 	blr	x17
    5588:	aa1f03e1 	mov	x1, xzr
    558c:	aa1f03e2 	mov	x2, xzr
    5590:	f81e83a0 	stur	x0, [x29, #-24]
    5594:	f81e03a1 	stur	x1, [x29, #-32]
    5598:	f81d83a2 	stur	x2, [x29, #-40]
    559c:	d2874d00 	mov	x0, #0x3a68                	// #14952
    55a0:	f2a000c0 	movk	x0, #0x6, lsl #16
    55a4:	f2c00aa0 	movk	x0, #0x55, lsl #32
    55a8:	f2e00000 	movk	x0, #0x0, lsl #48
    55ac:	d2883511 	mov	x17, #0x41a8                	// #16808
    55b0:	f2a031b1 	movk	x17, #0x18d, lsl #16
    55b4:	f2c00ab1 	movk	x17, #0x55, lsl #32
    55b8:	f2e00011 	movk	x17, #0x0, lsl #48
    55bc:	d63f0220 	blr	x17
    55c0:	d2959d02 	mov	x2, #0xace8                	// #44264
    55c4:	f2a000c2 	movk	x2, #0x6, lsl #16
    55c8:	f2c00aa2 	movk	x2, #0x55, lsl #32
    55cc:	f2e00002 	movk	x2, #0x0, lsl #48
    55d0:	f8400041 	ldur	x1, [x2]
    55d4:	d42004e0 	brk	#0x27
    55d8:	52800482 	mov	w2, #0x24                  	// #36
    55dc:	72a00002 	movk	w2, #0x0, lsl #16
    55e0:	d42004e0 	brk	#0x27
    55e4:	d295a203 	mov	x3, #0xad10                	// #44304
    55e8:	f2a000c3 	movk	x3, #0x6, lsl #16
    55ec:	f2c00aa3 	movk	x3, #0x55, lsl #32
    55f0:	f2e00003 	movk	x3, #0x0, lsl #48
    55f4:	f8400061 	ldur	x1, [x3]
    55f8:	d42004e0 	brk	#0x27
    55fc:	d295aa03 	mov	x3, #0xad50                	// #44368
    5600:	f2a000c3 	movk	x3, #0x6, lsl #16
    5604:	f2c00aa3 	movk	x3, #0x55, lsl #32
    5608:	f2e00003 	movk	x3, #0x0, lsl #48
    560c:	f8400061 	ldur	x1, [x3]
    5610:	d42004e0 	brk	#0x27
    5614:	d4200820 	brk	#0x41
    5618:	f81d03a0 	stur	x0, [x29, #-48]
    561c:	f81c83a1 	stur	x1, [x29, #-56]
    5620:	b81c43a2 	stur	w2, [x29, #-60]
    5624:	f85e83a0 	ldur	x0, [x29, #-24]
    5628:	f85e03a1 	ldur	x1, [x29, #-32]
    562c:	f85d83a2 	ldur	x2, [x29, #-40]
    5630:	f85b83a3 	ldur	x3, [x29, #-72]
    5634:	97fffbfb 	bl	0x4620
    5638:	d4200880 	brk	#0x44
    563c:	d503201f 	nop
    5640:	a9bf7bfd 	stp	x29, x30, [sp, #-16]!
    5644:	910003fd 	mov	x29, sp
    5648:	d10143ff 	sub	sp, sp, #0x50
    564c:	f81f83a0 	stur	x0, [x29, #-8]
    5650:	b81f43a1 	stur	w1, [x29, #-12]
    5654:	f81e83a2 	stur	x2, [x29, #-24]
    5658:	d287d100 	mov	x0, #0x3e88                	// #16008
    565c:	f2a000c0 	movk	x0, #0x6, lsl #16
    5660:	f2c00aa0 	movk	x0, #0x55, lsl #32
    5664:	f2e00000 	movk	x0, #0x0, lsl #48
    5668:	d287fa11 	mov	x17, #0x3fd0                	// #16336
    566c:	f2a031b1 	movk	x17, #0x18d, lsl #16
    5670:	f2c00ab1 	movk	x17, #0x55, lsl #32
    5674:	f2e00011 	movk	x17, #0x0, lsl #48
    5678:	d63f0220 	blr	x17
    567c:	aa1f03e1 	mov	x1, xzr
    5680:	aa1f03e2 	mov	x2, xzr
    5684:	f81e03a0 	stur	x0, [x29, #-32]
    5688:	f81d83a1 	stur	x1, [x29, #-40]
    568c:	f81d03a2 	stur	x2, [x29, #-48]
    5690:	d2874d00 	mov	x0, #0x3a68                	// #14952
    5694:	f2a000c0 	movk	x0, #0x6, lsl #16
    5698:	f2c00aa0 	movk	x0, #0x55, lsl #32
    569c:	f2e00000 	movk	x0, #0x0, lsl #48
    56a0:	d2883511 	mov	x17, #0x41a8                	// #16808
    56a4:	f2a031b1 	movk	x17, #0x18d, lsl #16
    56a8:	f2c00ab1 	movk	x17, #0x55, lsl #32
    56ac:	f2e00011 	movk	x17, #0x0, lsl #48
    56b0:	d63f0220 	blr	x17
    56b4:	d2959d02 	mov	x2, #0xace8                	// #44264
    56b8:	f2a000c2 	movk	x2, #0x6, lsl #16
    56bc:	f2c00aa2 	movk	x2, #0x55, lsl #32
    56c0:	f2e00002 	movk	x2, #0x0, lsl #48
    56c4:	f8400041 	ldur	x1, [x2]
    56c8:	d42004e0 	brk	#0x27
    56cc:	528004a2 	mov	w2, #0x25                  	// #37
    56d0:	72a00002 	movk	w2, #0x0, lsl #16
    56d4:	d42004e0 	brk	#0x27
    56d8:	d295a203 	mov	x3, #0xad10                	// #44304
    56dc:	f2a000c3 	movk	x3, #0x6, lsl #16
    56e0:	f2c00aa3 	movk	x3, #0x55, lsl #32
    56e4:	f2e00003 	movk	x3, #0x0, lsl #48
    56e8:	f8400061 	ldur	x1, [x3]
    56ec:	d42004e0 	brk	#0x27
    56f0:	d295ab03 	mov	x3, #0xad58                	// #44376
    56f4:	f2a000c3 	movk	x3, #0x6, lsl #16
    56f8:	f2c00aa3 	movk	x3, #0x55, lsl #32
    56fc:	f2e00003 	movk	x3, #0x0, lsl #48
    5700:	f8400061 	ldur	x1, [x3]
    5704:	d42004e0 	brk	#0x27
    5708:	d4200820 	brk	#0x41
    570c:	f81c83a0 	stur	x0, [x29, #-56]
    5710:	f81c03a1 	stur	x1, [x29, #-64]
    5714:	b81bc3a2 	stur	w2, [x29, #-68]
    5718:	f85e03a0 	ldur	x0, [x29, #-32]
    571c:	f85d83a1 	ldur	x1, [x29, #-40]
    5720:	f85d03a2 	ldur	x2, [x29, #-48]
    5724:	f85b03a3 	ldur	x3, [x29, #-80]
    5728:	97fffbbe 	bl	0x4620
    572c:	d4200880 	brk	#0x44
    5730:	a9bf7bfd 	stp	x29, x30, [sp, #-16]!
    5734:	910003fd 	mov	x29, sp
    5738:	d10143ff 	sub	sp, sp, #0x50
    573c:	f81f83a0 	stur	x0, [x29, #-8]
    5740:	b81f43a1 	stur	w1, [x29, #-12]
    5744:	b81f03a2 	stur	w2, [x29, #-16]
    5748:	d287d100 	mov	x0, #0x3e88                	// #16008
    574c:	f2a000c0 	movk	x0, #0x6, lsl #16
    5750:	f2c00aa0 	movk	x0, #0x55, lsl #32
    5754:	f2e00000 	movk	x0, #0x0, lsl #48
    5758:	d287fa11 	mov	x17, #0x3fd0                	// #16336
    575c:	f2a031b1 	movk	x17, #0x18d, lsl #16
    5760:	f2c00ab1 	movk	x17, #0x55, lsl #32
    5764:	f2e00011 	movk	x17, #0x0, lsl #48
    5768:	d63f0220 	blr	x17
    576c:	aa1f03e1 	mov	x1, xzr
    5770:	aa1f03e2 	mov	x2, xzr
    5774:	f81e83a0 	stur	x0, [x29, #-24]
    5778:	f81e03a1 	stur	x1, [x29, #-32]
    577c:	f81d83a2 	stur	x2, [x29, #-40]
    5780:	d2874d00 	mov	x0, #0x3a68                	// #14952
    5784:	f2a000c0 	movk	x0, #0x6, lsl #16
    5788:	f2c00aa0 	movk	x0, #0x55, lsl #32
    578c:	f2e00000 	movk	x0, #0x0, lsl #48
    5790:	d2883511 	mov	x17, #0x41a8                	// #16808
    5794:	f2a031b1 	movk	x17, #0x18d, lsl #16
    5798:	f2c00ab1 	movk	x17, #0x55, lsl #32
    579c:	f2e00011 	movk	x17, #0x0, lsl #48
    57a0:	d63f0220 	blr	x17
    57a4:	d2959d02 	mov	x2, #0xace8                	// #44264
    57a8:	f2a000c2 	movk	x2, #0x6, lsl #16
    57ac:	f2c00aa2 	movk	x2, #0x55, lsl #32
    57b0:	f2e00002 	movk	x2, #0x0, lsl #48
    57b4:	f8400041 	ldur	x1, [x2]
    57b8:	d42004e0 	brk	#0x27
    57bc:	528004c2 	mov	w2, #0x26                  	// #38
    57c0:	72a00002 	movk	w2, #0x0, lsl #16
    57c4:	d42004e0 	brk	#0x27
    57c8:	d295a203 	mov	x3, #0xad10                	// #44304
    57cc:	f2a000c3 	movk	x3, #0x6, lsl #16
    57d0:	f2c00aa3 	movk	x3, #0x55, lsl #32
    57d4:	f2e00003 	movk	x3, #0x0, lsl #48
    57d8:	f8400061 	ldur	x1, [x3]
    57dc:	d42004e0 	brk	#0x27
    57e0:	d295ac03 	mov	x3, #0xad60                	// #44384
    57e4:	f2a000c3 	movk	x3, #0x6, lsl #16
    57e8:	f2c00aa3 	movk	x3, #0x55, lsl #32
    57ec:	f2e00003 	movk	x3, #0x0, lsl #48
    57f0:	f8400061 	ldur	x1, [x3]
    57f4:	d42004e0 	brk	#0x27
    57f8:	d4200820 	brk	#0x41
    57fc:	f81d03a0 	stur	x0, [x29, #-48]
    5800:	f81c83a1 	stur	x1, [x29, #-56]
    5804:	b81c43a2 	stur	w2, [x29, #-60]
    5808:	f85e83a0 	ldur	x0, [x29, #-24]
    580c:	f85e03a1 	ldur	x1, [x29, #-32]
    5810:	f85d83a2 	ldur	x2, [x29, #-40]
    5814:	f85b83a3 	ldur	x3, [x29, #-72]
    5818:	97fffb82 	bl	0x4620
    581c:	d4200880 	brk	#0x44
    5820:	a9bf7bfd 	stp	x29, x30, [sp, #-16]!
    5824:	910003fd 	mov	x29, sp
    5828:	d10143ff 	sub	sp, sp, #0x50
    582c:	f81f83a0 	stur	x0, [x29, #-8]
    5830:	f81f03a1 	stur	x1, [x29, #-16]
    5834:	d287d100 	mov	x0, #0x3e88                	// #16008
    5838:	f2a000c0 	movk	x0, #0x6, lsl #16
    583c:	f2c00aa0 	movk	x0, #0x55, lsl #32
    5840:	f2e00000 	movk	x0, #0x0, lsl #48
    5844:	d287fa11 	mov	x17, #0x3fd0                	// #16336
    5848:	f2a031b1 	movk	x17, #0x18d, lsl #16
    584c:	f2c00ab1 	movk	x17, #0x55, lsl #32
    5850:	f2e00011 	movk	x17, #0x0, lsl #48
    5854:	d63f0220 	blr	x17
    5858:	aa1f03e1 	mov	x1, xzr
    585c:	aa1f03e2 	mov	x2, xzr
    5860:	f81e83a0 	stur	x0, [x29, #-24]
    5864:	f81e03a1 	stur	x1, [x29, #-32]
    5868:	f81d83a2 	stur	x2, [x29, #-40]
    586c:	d2874d00 	mov	x0, #0x3a68                	// #14952
    5870:	f2a000c0 	movk	x0, #0x6, lsl #16
    5874:	f2c00aa0 	movk	x0, #0x55, lsl #32
    5878:	f2e00000 	movk	x0, #0x0, lsl #48
    587c:	d2883511 	mov	x17, #0x41a8                	// #16808
    5880:	f2a031b1 	movk	x17, #0x18d, lsl #16
    5884:	f2c00ab1 	movk	x17, #0x55, lsl #32
    5888:	f2e00011 	movk	x17, #0x0, lsl #48
    588c:	d63f0220 	blr	x17
    5890:	d2959d02 	mov	x2, #0xace8                	// #44264
    5894:	f2a000c2 	movk	x2, #0x6, lsl #16
    5898:	f2c00aa2 	movk	x2, #0x55, lsl #32
    589c:	f2e00002 	movk	x2, #0x0, lsl #48
    58a0:	f8400041 	ldur	x1, [x2]
    58a4:	d42004e0 	brk	#0x27
    58a8:	528004e2 	mov	w2, #0x27                  	// #39
    58ac:	72a00002 	movk	w2, #0x0, lsl #16
    58b0:	d42004e0 	brk	#0x27
    58b4:	d295a203 	mov	x3, #0xad10                	// #44304
    58b8:	f2a000c3 	movk	x3, #0x6, lsl #16
    58bc:	f2c00aa3 	movk	x3, #0x55, lsl #32
    58c0:	f2e00003 	movk	x3, #0x0, lsl #48
    58c4:	f8400061 	ldur	x1, [x3]
    58c8:	d42004e0 	brk	#0x27
    58cc:	d295ad03 	mov	x3, #0xad68                	// #44392
    58d0:	f2a000c3 	movk	x3, #0x6, lsl #16
    58d4:	f2c00aa3 	movk	x3, #0x55, lsl #32
    58d8:	f2e00003 	movk	x3, #0x0, lsl #48
    58dc:	f8400061 	ldur	x1, [x3]
    58e0:	d42004e0 	brk	#0x27
    58e4:	d4200820 	brk	#0x41
    58e8:	f81d03a0 	stur	x0, [x29, #-48]
    58ec:	f81c83a1 	stur	x1, [x29, #-56]
    58f0:	b81c43a2 	stur	w2, [x29, #-60]
    58f4:	f85e83a0 	ldur	x0, [x29, #-24]
    58f8:	f85e03a1 	ldur	x1, [x29, #-32]
    58fc:	f85d83a2 	ldur	x2, [x29, #-40]
    5900:	f85b83a3 	ldur	x3, [x29, #-72]
    5904:	97fffb47 	bl	0x4620
    5908:	d4200880 	brk	#0x44
    590c:	d503201f 	nop
    5910:	a9bf7bfd 	stp	x29, x30, [sp, #-16]!
    5914:	910003fd 	mov	x29, sp
    5918:	d10103ff 	sub	sp, sp, #0x40
    591c:	f81f83a0 	stur	x0, [x29, #-8]
    5920:	d287d100 	mov	x0, #0x3e88                	// #16008
    5924:	f2a000c0 	movk	x0, #0x6, lsl #16
    5928:	f2c00aa0 	movk	x0, #0x55, lsl #32
    592c:	f2e00000 	movk	x0, #0x0, lsl #48
    5930:	d287fa11 	mov	x17, #0x3fd0                	// #16336
    5934:	f2a031b1 	movk	x17, #0x18d, lsl #16
    5938:	f2c00ab1 	movk	x17, #0x55, lsl #32
    593c:	f2e00011 	movk	x17, #0x0, lsl #48
    5940:	d63f0220 	blr	x17
    5944:	aa1f03e1 	mov	x1, xzr
    5948:	aa1f03e2 	mov	x2, xzr
    594c:	f81f03a0 	stur	x0, [x29, #-16]
    5950:	f81e83a1 	stur	x1, [x29, #-24]
    5954:	f81e03a2 	stur	x2, [x29, #-32]
    5958:	d2874d00 	mov	x0, #0x3a68                	// #14952
    595c:	f2a000c0 	movk	x0, #0x6, lsl #16
    5960:	f2c00aa0 	movk	x0, #0x55, lsl #32
    5964:	f2e00000 	movk	x0, #0x0, lsl #48
    5968:	d2883511 	mov	x17, #0x41a8                	// #16808
    596c:	f2a031b1 	movk	x17, #0x18d, lsl #16
    5970:	f2c00ab1 	movk	x17, #0x55, lsl #32
    5974:	f2e00011 	movk	x17, #0x0, lsl #48
    5978:	d63f0220 	blr	x17
    597c:	d2959d02 	mov	x2, #0xace8                	// #44264
    5980:	f2a000c2 	movk	x2, #0x6, lsl #16
    5984:	f2c00aa2 	movk	x2, #0x55, lsl #32
    5988:	f2e00002 	movk	x2, #0x0, lsl #48
    598c:	f8400041 	ldur	x1, [x2]
    5990:	d42004e0 	brk	#0x27
    5994:	52800502 	mov	w2, #0x28                  	// #40
    5998:	72a00002 	movk	w2, #0x0, lsl #16
    599c:	d42004e0 	brk	#0x27
    59a0:	d295a203 	mov	x3, #0xad10                	// #44304
    59a4:	f2a000c3 	movk	x3, #0x6, lsl #16
    59a8:	f2c00aa3 	movk	x3, #0x55, lsl #32
    59ac:	f2e00003 	movk	x3, #0x0, lsl #48
    59b0:	f8400061 	ldur	x1, [x3]
    59b4:	d42004e0 	brk	#0x27
    59b8:	d295ae03 	mov	x3, #0xad70                	// #44400
    59bc:	f2a000c3 	movk	x3, #0x6, lsl #16
    59c0:	f2c00aa3 	movk	x3, #0x55, lsl #32
    59c4:	f2e00003 	movk	x3, #0x0, lsl #48
    59c8:	f8400061 	ldur	x1, [x3]
    59cc:	d42004e0 	brk	#0x27
    59d0:	d4200820 	brk	#0x41
    59d4:	f81d83a0 	stur	x0, [x29, #-40]
    59d8:	f81d03a1 	stur	x1, [x29, #-48]
    59dc:	b81cc3a2 	stur	w2, [x29, #-52]
    59e0:	f85f03a0 	ldur	x0, [x29, #-16]
    59e4:	f85e83a1 	ldur	x1, [x29, #-24]
    59e8:	f85e03a2 	ldur	x2, [x29, #-32]
    59ec:	f85c03a3 	ldur	x3, [x29, #-64]
    59f0:	97fffb0c 	bl	0x4620
    59f4:	d4200880 	brk	#0x44
    59f8:	d503201f 	nop
    59fc:	d503201f 	nop
    5a00:	a9bf7bfd 	stp	x29, x30, [sp, #-16]!
    5a04:	910003fd 	mov	x29, sp
    5a08:	d10143ff 	sub	sp, sp, #0x50
    5a0c:	f81f83a0 	stur	x0, [x29, #-8]
    5a10:	b81f43a1 	stur	w1, [x29, #-12]
    5a14:	d287d100 	mov	x0, #0x3e88                	// #16008
    5a18:	f2a000c0 	movk	x0, #0x6, lsl #16
    5a1c:	f2c00aa0 	movk	x0, #0x55, lsl #32
    5a20:	f2e00000 	movk	x0, #0x0, lsl #48
    5a24:	d287fa11 	mov	x17, #0x3fd0                	// #16336
    5a28:	f2a031b1 	movk	x17, #0x18d, lsl #16
    5a2c:	f2c00ab1 	movk	x17, #0x55, lsl #32
    5a30:	f2e00011 	movk	x17, #0x0, lsl #48
    5a34:	d63f0220 	blr	x17
    5a38:	aa1f03e1 	mov	x1, xzr
    5a3c:	aa1f03e2 	mov	x2, xzr
    5a40:	f81e83a0 	stur	x0, [x29, #-24]
    5a44:	f81e03a1 	stur	x1, [x29, #-32]
    5a48:	f81d83a2 	stur	x2, [x29, #-40]
    5a4c:	d2874d00 	mov	x0, #0x3a68                	// #14952
    5a50:	f2a000c0 	movk	x0, #0x6, lsl #16
    5a54:	f2c00aa0 	movk	x0, #0x55, lsl #32
    5a58:	f2e00000 	movk	x0, #0x0, lsl #48
    5a5c:	d2883511 	mov	x17, #0x41a8                	// #16808
    5a60:	f2a031b1 	movk	x17, #0x18d, lsl #16
    5a64:	f2c00ab1 	movk	x17, #0x55, lsl #32
    5a68:	f2e00011 	movk	x17, #0x0, lsl #48
    5a6c:	d63f0220 	blr	x17
    5a70:	d2959d02 	mov	x2, #0xace8                	// #44264
    5a74:	f2a000c2 	movk	x2, #0x6, lsl #16
    5a78:	f2c00aa2 	movk	x2, #0x55, lsl #32
    5a7c:	f2e00002 	movk	x2, #0x0, lsl #48
    5a80:	f8400041 	ldur	x1, [x2]
    5a84:	d42004e0 	brk	#0x27
    5a88:	52800522 	mov	w2, #0x29                  	// #41
    5a8c:	72a00002 	movk	w2, #0x0, lsl #16
    5a90:	d42004e0 	brk	#0x27
    5a94:	d295a203 	mov	x3, #0xad10                	// #44304
    5a98:	f2a000c3 	movk	x3, #0x6, lsl #16
    5a9c:	f2c00aa3 	movk	x3, #0x55, lsl #32
    5aa0:	f2e00003 	movk	x3, #0x0, lsl #48
    5aa4:	f8400061 	ldur	x1, [x3]
    5aa8:	d42004e0 	brk	#0x27
    5aac:	d295af03 	mov	x3, #0xad78                	// #44408
    5ab0:	f2a000c3 	movk	x3, #0x6, lsl #16
    5ab4:	f2c00aa3 	movk	x3, #0x55, lsl #32
    5ab8:	f2e00003 	movk	x3, #0x0, lsl #48
    5abc:	f8400061 	ldur	x1, [x3]
    5ac0:	d42004e0 	brk	#0x27
    5ac4:	d4200820 	brk	#0x41
    5ac8:	f81d03a0 	stur	x0, [x29, #-48]
    5acc:	f81c83a1 	stur	x1, [x29, #-56]
    5ad0:	b81c43a2 	stur	w2, [x29, #-60]
    5ad4:	f85e83a0 	ldur	x0, [x29, #-24]
    5ad8:	f85e03a1 	ldur	x1, [x29, #-32]
    5adc:	f85d83a2 	ldur	x2, [x29, #-40]
    5ae0:	f85b83a3 	ldur	x3, [x29, #-72]
    5ae4:	97fffacf 	bl	0x4620
    5ae8:	d4200880 	brk	#0x44
    5aec:	d503201f 	nop
    5af0:	a9bf7bfd 	stp	x29, x30, [sp, #-16]!
    5af4:	910003fd 	mov	x29, sp
    5af8:	d10103ff 	sub	sp, sp, #0x40
    5afc:	f81f83a0 	stur	x0, [x29, #-8]
    5b00:	d287d100 	mov	x0, #0x3e88                	// #16008
    5b04:	f2a000c0 	movk	x0, #0x6, lsl #16
    5b08:	f2c00aa0 	movk	x0, #0x55, lsl #32
    5b0c:	f2e00000 	movk	x0, #0x0, lsl #48
    5b10:	d287fa11 	mov	x17, #0x3fd0                	// #16336
    5b14:	f2a031b1 	movk	x17, #0x18d, lsl #16
    5b18:	f2c00ab1 	movk	x17, #0x55, lsl #32
    5b1c:	f2e00011 	movk	x17, #0x0, lsl #48
    5b20:	d63f0220 	blr	x17
    5b24:	aa1f03e1 	mov	x1, xzr
    5b28:	aa1f03e2 	mov	x2, xzr
    5b2c:	f81f03a0 	stur	x0, [x29, #-16]
    5b30:	f81e83a1 	stur	x1, [x29, #-24]
    5b34:	f81e03a2 	stur	x2, [x29, #-32]
    5b38:	d2874d00 	mov	x0, #0x3a68                	// #14952
    5b3c:	f2a000c0 	movk	x0, #0x6, lsl #16
    5b40:	f2c00aa0 	movk	x0, #0x55, lsl #32
    5b44:	f2e00000 	movk	x0, #0x0, lsl #48
    5b48:	d2883511 	mov	x17, #0x41a8                	// #16808
    5b4c:	f2a031b1 	movk	x17, #0x18d, lsl #16
    5b50:	f2c00ab1 	movk	x17, #0x55, lsl #32
    5b54:	f2e00011 	movk	x17, #0x0, lsl #48
    5b58:	d63f0220 	blr	x17
    5b5c:	d2959d02 	mov	x2, #0xace8                	// #44264
    5b60:	f2a000c2 	movk	x2, #0x6, lsl #16
    5b64:	f2c00aa2 	movk	x2, #0x55, lsl #32
    5b68:	f2e00002 	movk	x2, #0x0, lsl #48
    5b6c:	f8400041 	ldur	x1, [x2]
    5b70:	d42004e0 	brk	#0x27
    5b74:	52800542 	mov	w2, #0x2a                  	// #42
    5b78:	72a00002 	movk	w2, #0x0, lsl #16
    5b7c:	d42004e0 	brk	#0x27
    5b80:	d295a203 	mov	x3, #0xad10                	// #44304
    5b84:	f2a000c3 	movk	x3, #0x6, lsl #16
    5b88:	f2c00aa3 	movk	x3, #0x55, lsl #32
    5b8c:	f2e00003 	movk	x3, #0x0, lsl #48
    5b90:	f8400061 	ldur	x1, [x3]
    5b94:	d42004e0 	brk	#0x27
    5b98:	d295b003 	mov	x3, #0xad80                	// #44416
    5b9c:	f2a000c3 	movk	x3, #0x6, lsl #16
    5ba0:	f2c00aa3 	movk	x3, #0x55, lsl #32
    5ba4:	f2e00003 	movk	x3, #0x0, lsl #48
    5ba8:	f8400061 	ldur	x1, [x3]
    5bac:	d42004e0 	brk	#0x27
    5bb0:	d4200820 	brk	#0x41
    5bb4:	f81d83a0 	stur	x0, [x29, #-40]
    5bb8:	f81d03a1 	stur	x1, [x29, #-48]
    5bbc:	b81cc3a2 	stur	w2, [x29, #-52]
    5bc0:	f85f03a0 	ldur	x0, [x29, #-16]
    5bc4:	f85e83a1 	ldur	x1, [x29, #-24]
    5bc8:	f85e03a2 	ldur	x2, [x29, #-32]
    5bcc:	f85c03a3 	ldur	x3, [x29, #-64]
    5bd0:	97fffa94 	bl	0x4620
    5bd4:	d4200880 	brk	#0x44
    5bd8:	d503201f 	nop
    5bdc:	d503201f 	nop
    5be0:	a9bf7bfd 	stp	x29, x30, [sp, #-16]!
    5be4:	910003fd 	mov	x29, sp
    5be8:	d10083ff 	sub	sp, sp, #0x20
    5bec:	d42003e0 	brk	#0x1f
    5bf0:	f85e83a1 	ldur	x1, [x29, #-24]
    5bf4:	7100003f 	cmp	w1, #0x0
    5bf8:	54000401 	b.ne	0x5c78  // b.any
    5bfc:	f81f83a0 	stur	x0, [x29, #-8]
    5c00:	f81e83a1 	stur	x1, [x29, #-24]
    5c04:	d298b091 	mov	x17, #0xc584                	// #50564
    5c08:	f2a031b1 	movk	x17, #0x18d, lsl #16
    5c0c:	f2c00ab1 	movk	x17, #0x55, lsl #32
    5c10:	f2e00011 	movk	x17, #0x0, lsl #48
    5c14:	d63f0220 	blr	x17
    5c18:	f85e83a0 	ldur	x0, [x29, #-24]
    5c1c:	f8408001 	ldur	x1, [x0, #8]
    5c20:	910083ff 	add	sp, sp, #0x20
    5c24:	a8c17bfd 	ldp	x29, x30, [sp], #16
    5c28:	d65f03c0 	ret
    5c2c:	d503201f 	nop
    5c30:	a9bf7bfd 	stp	x29, x30, [sp, #-16]!
    5c34:	910003fd 	mov	x29, sp
    5c38:	d10103ff 	sub	sp, sp, #0x40
    5c3c:	aa1f03e2 	mov	x2, xzr
    5c40:	d285a103 	mov	x3, #0x2d08                	// #11528
    5c44:	f2a000c3 	movk	x3, #0x6, lsl #16
    5c48:	f2c00aa3 	movk	x3, #0x55, lsl #32
    5c4c:	f2e00003 	movk	x3, #0x0, lsl #48
    5c50:	6b01007f 	cmp	w3, w1
    5c54:	540001a1 	b.ne	0x5c88  // b.any
    5c58:	110003e4 	mov	w4, wsp
    5c5c:	d4200ae0 	brk	#0x57
    5c60:	f81f83a0 	stur	x0, [x29, #-8]
    5c64:	f81f03a1 	stur	x1, [x29, #-16]
    5c68:	f81e83a2 	stur	x2, [x29, #-24]
    5c6c:	f81e03a3 	stur	x3, [x29, #-32]
    5c70:	381d73a4 	sturb	w4, [x29, #-41]
    5c74:	f85f83a0 	ldur	x0, [x29, #-8]
    5c78:	f85c83a1 	ldur	x1, [x29, #-56]
    5c7c:	940000b9 	bl	0x5f60
    5c80:	910103ff 	add	sp, sp, #0x40
    5c84:	a8c17bfd 	ldp	x29, x30, [sp], #16
    5c88:	d65f03c0 	ret
    5c8c:	aa1f03e1 	mov	x1, xzr
    5c90:	910103ff 	add	sp, sp, #0x40
    5c94:	a8c17bfd 	ldp	x29, x30, [sp], #16
    5c98:	d65f03c0 	ret
    5c9c:	d503201f 	nop
    5ca0:	a9bf7bfd 	stp	x29, x30, [sp, #-16]!
    5ca4:	910003fd 	mov	x29, sp
    5ca8:	d10043ff 	sub	sp, sp, #0x10
    5cac:	110003e1 	mov	w1, wsp
    5cb0:	910043ff 	add	sp, sp, #0x10
    5cb4:	a8c17bfd 	ldp	x29, x30, [sp], #16
    5cb8:	d65f03c0 	ret
    5cbc:	d503201f 	nop
    5cc0:	a9bf7bfd 	stp	x29, x30, [sp, #-16]!
    5cc4:	910003fd 	mov	x29, sp
    5cc8:	d10083ff 	sub	sp, sp, #0x20
    5ccc:	52800001 	mov	w1, #0x0                   	// #0
    5cd0:	72a00001 	movk	w1, #0x0, lsl #16
    5cd4:	d4200520 	brk	#0x29
    5cd8:	d4200520 	brk	#0x29
    5cdc:	aa1f03e2 	mov	x2, xzr
    5ce0:	d4200520 	brk	#0x29
    5ce4:	910083ff 	add	sp, sp, #0x20
    5ce8:	a8c17bfd 	ldp	x29, x30, [sp], #16
    5cec:	d65f03c0 	ret
    5cf0:	a9bf7bfd 	stp	x29, x30, [sp, #-16]!
    5cf4:	910003fd 	mov	x29, sp
    5cf8:	d10183ff 	sub	sp, sp, #0x60
    5cfc:	f81f83a0 	stur	x0, [x29, #-8]
    5d00:	f81f03a1 	stur	x1, [x29, #-16]
    5d04:	d2858d00 	mov	x0, #0x2c68                	// #11368
    5d08:	f2a000c0 	movk	x0, #0x6, lsl #16
    5d0c:	f2c00aa0 	movk	x0, #0x55, lsl #32
    5d10:	f2e00000 	movk	x0, #0x0, lsl #48
    5d14:	d287fa11 	mov	x17, #0x3fd0                	// #16336
    5d18:	f2a031b1 	movk	x17, #0x18d, lsl #16
    5d1c:	f2c00ab1 	movk	x17, #0x55, lsl #32
    5d20:	f2e00011 	movk	x17, #0x0, lsl #48
    5d24:	d63f0220 	blr	x17
    5d28:	f81e83a0 	stur	x0, [x29, #-24]
    5d2c:	f85e83a0 	ldur	x0, [x29, #-24]
    5d30:	97ffffe4 	bl	0x5cc0
    5d34:	d4200500 	brk	#0x28
    5d38:	f85f03a0 	ldur	x0, [x29, #-16]
    5d3c:	7100001f 	cmp	w0, #0x0
    5d40:	54000381 	b.ne	0x5db0  // b.any
    5d44:	f81f03a0 	stur	x0, [x29, #-16]
    5d48:	d298b091 	mov	x17, #0xc584                	// #50564
    5d4c:	f2a031b1 	movk	x17, #0x18d, lsl #16
    5d50:	f2c00ab1 	movk	x17, #0x55, lsl #32
    5d54:	f2e00011 	movk	x17, #0x0, lsl #48
    5d58:	d63f0220 	blr	x17
    5d5c:	f85f03a0 	ldur	x0, [x29, #-16]
    5d60:	f8408001 	ldur	x1, [x0, #8]
    5d64:	d42000e0 	brk	#0x7
    5d68:	f85e83a2 	ldur	x2, [x29, #-24]
    5d6c:	f8004042 	stur	x2, [x2, #4]
    5d70:	f85f83a3 	ldur	x3, [x29, #-8]
    5d74:	f8004062 	stur	x2, [x3, #4]
    5d78:	d4200500 	brk	#0x28
    5d7c:	f8408044 	ldur	x4, [x2, #8]
    5d80:	52800241 	mov	w1, #0x12                  	// #18
    5d84:	72a00001 	movk	w1, #0x0, lsl #16
    5d88:	d42001c0 	brk	#0xe
    5d8c:	f81f03a0 	stur	x0, [x29, #-16]
    5d90:	b81e03a1 	stur	w1, [x29, #-32]
    5d94:	f81e83a2 	stur	x2, [x29, #-24]
    5d98:	f81f83a3 	stur	x3, [x29, #-8]
    5d9c:	b81e43a4 	stur	w4, [x29, #-28]
    5da0:	b85e43a0 	ldur	w0, [x29, #-28]
    5da4:	d2905f91 	mov	x17, #0x82fc                	// #33532
    5da8:	f2a031b1 	movk	x17, #0x18d, lsl #16
    5dac:	f2c00ab1 	movk	x17, #0x55, lsl #32
    5db0:	f2e00011 	movk	x17, #0x0, lsl #48
    5db4:	d63f0220 	blr	x17
    5db8:	f85f03a1 	ldur	x1, [x29, #-16]
    5dbc:	f85e83a2 	ldur	x2, [x29, #-24]
    5dc0:	f8000022 	stur	x2, [x1]
    5dc4:	d4200500 	brk	#0x28
    5dc8:	d4200500 	brk	#0x28
    5dcc:	52800243 	mov	w3, #0x12                  	// #18
    5dd0:	72a00003 	movk	w3, #0x0, lsl #16
    5dd4:	d42001c0 	brk	#0xe
    5dd8:	f8410044 	ldur	x4, [x2, #16]
    5ddc:	52800003 	mov	w3, #0x0                   	// #0
    5de0:	72a00003 	movk	w3, #0x0, lsl #16
    5de4:	d4200500 	brk	#0x28
    5de8:	52800005 	mov	w5, #0x0                   	// #0
    5dec:	72a00005 	movk	w5, #0x0, lsl #16
    5df0:	f81d03a0 	stur	x0, [x29, #-48]
    5df4:	f81f03a1 	stur	x1, [x29, #-16]
    5df8:	f81e83a2 	stur	x2, [x29, #-24]
    5dfc:	b81e03a3 	stur	w3, [x29, #-32]
    5e00:	f81c03a4 	stur	x4, [x29, #-64]
    5e04:	b81b43a5 	stur	w5, [x29, #-76]
    5e08:	f85c03a0 	ldur	x0, [x29, #-64]
    5e0c:	b85e03a1 	ldur	w1, [x29, #-32]
    5e10:	f85b83a2 	ldur	x2, [x29, #-72]
    5e14:	b85b43a3 	ldur	w3, [x29, #-76]
    5e18:	b85e43a4 	ldur	w4, [x29, #-28]
    5e1c:	d2906d91 	mov	x17, #0x836c                	// #33644
    5e20:	f2a031b1 	movk	x17, #0x18d, lsl #16
    5e24:	f2c00ab1 	movk	x17, #0x55, lsl #32
    5e28:	f2e00011 	movk	x17, #0x0, lsl #48
    5e2c:	d63f0220 	blr	x17
    5e30:	d4200500 	brk	#0x28
    5e34:	f85e83a0 	ldur	x0, [x29, #-24]
    5e38:	f8410001 	ldur	x1, [x0, #16]
    5e3c:	f85f03a2 	ldur	x2, [x29, #-16]
    5e40:	f8410043 	ldur	x3, [x2, #16]
    5e44:	52800004 	mov	w4, #0x0                   	// #0
    5e48:	72a00004 	movk	w4, #0x0, lsl #16
    5e4c:	f8408045 	ldur	x5, [x2, #8]
    5e50:	52800246 	mov	w6, #0x12                  	// #18
    5e54:	72a00006 	movk	w6, #0x0, lsl #16
    5e58:	d42001c0 	brk	#0xe
    5e5c:	f81e83a0 	stur	x0, [x29, #-24]
    5e60:	f81b83a1 	stur	x1, [x29, #-72]
    5e64:	f81f03a2 	stur	x2, [x29, #-16]
    5e68:	f81a83a3 	stur	x3, [x29, #-88]
    5e6c:	b81b43a4 	stur	w4, [x29, #-76]
    5e70:	b81b03a5 	stur	w5, [x29, #-80]
    5e74:	b81a43a6 	stur	w6, [x29, #-92]
    5e78:	f85b83a0 	ldur	x0, [x29, #-72]
    5e7c:	b85e43a1 	ldur	w1, [x29, #-28]
    5e80:	f85a83a2 	ldur	x2, [x29, #-88]
    5e84:	b85b43a3 	ldur	w3, [x29, #-76]
    5e88:	b85b03a4 	ldur	w4, [x29, #-80]
    5e8c:	d2906d91 	mov	x17, #0x836c                	// #33644
    5e90:	f2a031b1 	movk	x17, #0x18d, lsl #16
    5e94:	f2c00ab1 	movk	x17, #0x55, lsl #32
    5e98:	f2e00011 	movk	x17, #0x0, lsl #48
    5e9c:	d63f0220 	blr	x17
    5ea0:	910183ff 	add	sp, sp, #0x60
    5ea4:	a8c17bfd 	ldp	x29, x30, [sp], #16
    5ea8:	d65f03c0 	ret
    5eac:	d503201f 	nop
    5eb0:	a9bf7bfd 	stp	x29, x30, [sp, #-16]!
    5eb4:	910003fd 	mov	x29, sp
    5eb8:	d10143ff 	sub	sp, sp, #0x50
    5ebc:	f81f83a0 	stur	x0, [x29, #-8]
    5ec0:	f81f03a1 	stur	x1, [x29, #-16]
    5ec4:	d2878100 	mov	x0, #0x3c08                	// #15368
    5ec8:	f2a000c0 	movk	x0, #0x6, lsl #16
    5ecc:	f2c00aa0 	movk	x0, #0x55, lsl #32
    5ed0:	f2e00000 	movk	x0, #0x0, lsl #48
    5ed4:	d287fa11 	mov	x17, #0x3fd0                	// #16336
    5ed8:	f2a031b1 	movk	x17, #0x18d, lsl #16
    5edc:	f2c00ab1 	movk	x17, #0x55, lsl #32
    5ee0:	f2e00011 	movk	x17, #0x0, lsl #48
    5ee4:	d63f0220 	blr	x17
    5ee8:	f81e83a0 	stur	x0, [x29, #-24]
    5eec:	f85e83a0 	ldur	x0, [x29, #-24]
    5ef0:	97fff0a8 	bl	0x2190
    5ef4:	52800000 	mov	w0, #0x0                   	// #0
    5ef8:	72a00000 	movk	w0, #0x0, lsl #16
    5efc:	d4200500 	brk	#0x28
    5f00:	b85e03a1 	ldur	w1, [x29, #-32]
    5f04:	6b00003f 	cmp	w1, w0
    5f08:	540005aa 	b.ge	0x5fbc  // b.tcont
    5f0c:	b81dc3a0 	stur	w0, [x29, #-36]
    5f10:	f85f83a2 	ldur	x2, [x29, #-8]
    5f14:	11000440 	add	w0, w2, #0x1
    5f18:	52800003 	mov	w3, #0x0                   	// #0
    5f1c:	72a00003 	movk	w3, #0x0, lsl #16
    5f20:	b85dc3a4 	ldur	w4, [x29, #-36]
    5f24:	6b03009f 	cmp	w4, w3
    5f28:	5400022a 	b.ge	0x5f6c  // b.tcont
    5f2c:	f85e83a5 	ldur	x5, [x29, #-24]
    5f30:	710000bf 	cmp	w5, #0x0
    5f34:	54000601 	b.ne	0x5ff4  // b.any
    5f38:	b81e43a0 	stur	w0, [x29, #-28]
    5f3c:	b81e03a1 	stur	w1, [x29, #-32]
    5f40:	f81f83a2 	stur	x2, [x29, #-8]
    5f44:	b81d83a3 	stur	w3, [x29, #-40]
    5f48:	b81dc3a4 	stur	w4, [x29, #-36]
    5f4c:	f81e83a5 	stur	x5, [x29, #-24]
    5f50:	d298b091 	mov	x17, #0xc584                	// #50564
    5f54:	f2a031b1 	movk	x17, #0x18d, lsl #16
    5f58:	f2c00ab1 	movk	x17, #0x55, lsl #32
    5f5c:	f2e00011 	movk	x17, #0x0, lsl #48
    5f60:	d63f0220 	blr	x17
    5f64:	f85e83a0 	ldur	x0, [x29, #-24]
    5f68:	f85f03a1 	ldur	x1, [x29, #-16]
    5f6c:	97fff0a1 	bl	0x21f0
    5f70:	d4200500 	brk	#0x28
    5f74:	f85e83a0 	ldur	x0, [x29, #-24]
    5f78:	7100001f 	cmp	w0, #0x0
    5f7c:	54000381 	b.ne	0x5fec  // b.any
    5f80:	f81e83a0 	stur	x0, [x29, #-24]
    5f84:	d298b091 	mov	x17, #0xc584                	// #50564
    5f88:	f2a031b1 	movk	x17, #0x18d, lsl #16
    5f8c:	f2c00ab1 	movk	x17, #0x55, lsl #32
    5f90:	f2e00011 	movk	x17, #0x0, lsl #48
    5f94:	d63f0220 	blr	x17
    5f98:	52800240 	mov	w0, #0x12                  	// #18
    5f9c:	72a00000 	movk	w0, #0x0, lsl #16
    5fa0:	d42001c0 	brk	#0xe
    5fa4:	d4200980 	brk	#0x4c
    5fa8:	d4200760 	brk	#0x3b
    5fac:	b81d83a0 	stur	w0, [x29, #-40]
    5fb0:	f85e83a0 	ldur	x0, [x29, #-24]
    5fb4:	f85b83a1 	ldur	x1, [x29, #-72]
    5fb8:	97fff08e 	bl	0x21f0
    5fbc:	17ffffd0 	b	0x5efc
    5fc0:	f85e83a0 	ldur	x0, [x29, #-24]
    5fc4:	7100001f 	cmp	w0, #0x0
    5fc8:	54000381 	b.ne	0x6038  // b.any
    5fcc:	f81e83a0 	stur	x0, [x29, #-24]
    5fd0:	d298b091 	mov	x17, #0xc584                	// #50564
    5fd4:	f2a031b1 	movk	x17, #0x18d, lsl #16
    5fd8:	f2c00ab1 	movk	x17, #0x55, lsl #32
    5fdc:	f2e00011 	movk	x17, #0x0, lsl #48
    5fe0:	d63f0220 	blr	x17
    5fe4:	f85e83a0 	ldur	x0, [x29, #-24]
    5fe8:	97fff236 	bl	0x28c0
    5fec:	910143ff 	add	sp, sp, #0x50
    5ff0:	a8c17bfd 	ldp	x29, x30, [sp], #16
    5ff4:	d65f03c0 	ret
    5ff8:	d503201f 	nop
    5ffc:	d503201f 	nop
    6000:	a9bf7bfd 	stp	x29, x30, [sp, #-16]!
    6004:	910003fd 	mov	x29, sp
    6008:	d100c3ff 	sub	sp, sp, #0x30
    600c:	d4200500 	brk	#0x28
    6010:	52800001 	mov	w1, #0x0                   	// #0
    6014:	72a00001 	movk	w1, #0x0, lsl #16
    6018:	b85f43a2 	ldur	w2, [x29, #-12]
    601c:	6b02003f 	cmp	w1, w2
    6020:	54000081 	b.ne	0x6030  // b.any
    6024:	aa1f03e3 	mov	x3, xzr
    6028:	9100c3ff 	add	sp, sp, #0x30
    602c:	a8c17bfd 	ldp	x29, x30, [sp], #16
    6030:	d65f03c0 	ret
    6034:	f8408002 	ldur	x2, [x0, #8]
    6038:	51000402 	sub	w2, w0, #0x1
    603c:	f8010000 	stur	x0, [x0, #16]
    6040:	d4200500 	brk	#0x28
    6044:	d4200500 	brk	#0x28
    6048:	52800244 	mov	w4, #0x12                  	// #18
    604c:	72a00004 	movk	w4, #0x0, lsl #16
    6050:	d42001c0 	brk	#0xe
    6054:	d4200980 	brk	#0x4c
    6058:	d4200760 	brk	#0x3b
    605c:	9100c3ff 	add	sp, sp, #0x30
    6060:	a8c17bfd 	ldp	x29, x30, [sp], #16
    6064:	d65f03c0 	ret
    6068:	d503201f 	nop
    606c:	d503201f 	nop
    6070:	a9bf7bfd 	stp	x29, x30, [sp, #-16]!
    6074:	910003fd 	mov	x29, sp
    6078:	d100c3ff 	sub	sp, sp, #0x30
    607c:	d4200500 	brk	#0x28
    6080:	d4200500 	brk	#0x28
    6084:	b85e83a2 	ldur	w2, [x29, #-24]
    6088:	b85ec3a3 	ldur	w3, [x29, #-20]
    608c:	6b02007f 	cmp	w3, w2
    6090:	54000101 	b.ne	0x60b0  // b.any
    6094:	f81f83a0 	stur	x0, [x29, #-8]
    6098:	fc1f03a1 	stur	d1, [x29, #-16]
    609c:	b81e83a2 	stur	w2, [x29, #-24]
    60a0:	b81ec3a3 	stur	w3, [x29, #-20]
    60a4:	f85f83a0 	ldur	x0, [x29, #-8]
    60a8:	b85ec3a1 	ldur	w1, [x29, #-20]
    60ac:	94000045 	bl	0x61c0
    60b0:	14000004 	b	0x60c0
    60b4:	f85f83a0 	ldur	x0, [x29, #-8]
    60b8:	f8408001 	ldur	x1, [x0, #8]
    60bc:	11000401 	add	w1, w0, #0x1
    60c0:	f8004000 	stur	x0, [x0, #4]
    60c4:	d4200500 	brk	#0x28
    60c8:	52800242 	mov	w2, #0x12                  	// #18
    60cc:	72a00002 	movk	w2, #0x0, lsl #16
    60d0:	d42001c0 	brk	#0xe
    60d4:	d4200a00 	brk	#0x50
    60d8:	d4200500 	brk	#0x28
    60dc:	9100c3ff 	add	sp, sp, #0x30
    60e0:	a8c17bfd 	ldp	x29, x30, [sp], #16
    60e4:	d65f03c0 	ret
    60e8:	d503201f 	nop
    60ec:	d503201f 	nop
    60f0:	a9bf7bfd 	stp	x29, x30, [sp, #-16]!
    60f4:	910003fd 	mov	x29, sp
    60f8:	d10143ff 	sub	sp, sp, #0x50
    60fc:	52800001 	mov	w1, #0x0                   	// #0
    6100:	72a00001 	movk	w1, #0x0, lsl #16
    6104:	d4200500 	brk	#0x28
    6108:	528000e2 	mov	w2, #0x7                   	// #7
    610c:	72a00002 	movk	w2, #0x0, lsl #16
    6110:	d42001e0 	brk	#0xf
    6114:	b85f03a3 	ldur	w3, [x29, #-16]
    6118:	6b01007f 	cmp	w3, w1
    611c:	5400038a 	b.ge	0x618c  // b.tcont
    6120:	2a0103e2 	mov	w2, w1
    6124:	11000401 	add	w1, w0, #0x1
    6128:	d4200500 	brk	#0x28
    612c:	528000e4 	mov	w4, #0x7                   	// #7
    6130:	72a00004 	movk	w4, #0x0, lsl #16
    6134:	d4200100 	brk	#0x8
    6138:	d4200100 	brk	#0x8
    613c:	d4200500 	brk	#0x28
    6140:	52800245 	mov	w5, #0x12                  	// #18
    6144:	72a00005 	movk	w5, #0x0, lsl #16
    6148:	d42001c0 	brk	#0xe
    614c:	d4200980 	brk	#0x4c
    6150:	d4200500 	brk	#0x28
    6154:	d4200500 	brk	#0x28
    6158:	52800245 	mov	w5, #0x12                  	// #18
    615c:	72a00005 	movk	w5, #0x0, lsl #16
    6160:	d42001c0 	brk	#0xe
    6164:	d4200980 	brk	#0x4c
    6168:	52800245 	mov	w5, #0x12                  	// #18
    616c:	72a00005 	movk	w5, #0x0, lsl #16
    6170:	d42001c0 	brk	#0xe
    6174:	d4200a00 	brk	#0x50
    6178:	d4200500 	brk	#0x28
    617c:	52800245 	mov	w5, #0x12                  	// #18
    6180:	72a00005 	movk	w5, #0x0, lsl #16
    6184:	d42001c0 	brk	#0xe
    6188:	d4200a00 	brk	#0x50
    618c:	17ffffe1 	b	0x6110
    6190:	910143ff 	add	sp, sp, #0x50
    6194:	a8c17bfd 	ldp	x29, x30, [sp], #16
    6198:	d65f03c0 	ret
    619c:	d503201f 	nop
    61a0:	a9bf7bfd 	stp	x29, x30, [sp, #-16]!
    61a4:	910003fd 	mov	x29, sp
    61a8:	d10143ff 	sub	sp, sp, #0x50
    61ac:	d4200500 	brk	#0x28
    61b0:	52800001 	mov	w1, #0x0                   	// #0
    61b4:	72a00001 	movk	w1, #0x0, lsl #16
    61b8:	b85f43a2 	ldur	w2, [x29, #-12]
    61bc:	6b02003f 	cmp	w1, w2
    61c0:	54000081 	b.ne	0x61d0  // b.any
    61c4:	aa1f03e3 	mov	x3, xzr
    61c8:	910143ff 	add	sp, sp, #0x50
    61cc:	a8c17bfd 	ldp	x29, x30, [sp], #16
    61d0:	d65f03c0 	ret
    61d4:	d4200500 	brk	#0x28
    61d8:	52800002 	mov	w2, #0x0                   	// #0
    61dc:	72a00002 	movk	w2, #0x0, lsl #16
    61e0:	52800241 	mov	w1, #0x12                  	// #18
    61e4:	72a00001 	movk	w1, #0x0, lsl #16
    61e8:	d42001c0 	brk	#0xe
    61ec:	d4200980 	brk	#0x4c
    61f0:	f8408002 	ldur	x2, [x0, #8]
    61f4:	51000402 	sub	w2, w0, #0x1
    61f8:	f8018000 	stur	x0, [x0, #24]
    61fc:	d4200500 	brk	#0x28
    6200:	d4200500 	brk	#0x28
    6204:	d4200500 	brk	#0x28
    6208:	528000e2 	mov	w2, #0x7                   	// #7
    620c:	72a00002 	movk	w2, #0x0, lsl #16
    6210:	52800241 	mov	w1, #0x12                  	// #18
    6214:	72a00001 	movk	w1, #0x0, lsl #16
    6218:	d42001c0 	brk	#0xe
    621c:	d4200500 	brk	#0x28
    6220:	52800001 	mov	w1, #0x0                   	// #0
    6224:	72a00001 	movk	w1, #0x0, lsl #16
    6228:	d4200500 	brk	#0x28
    622c:	52800244 	mov	w4, #0x12                  	// #18
    6230:	72a00004 	movk	w4, #0x0, lsl #16
    6234:	d42001c0 	brk	#0xe
    6238:	f81f83a0 	stur	x0, [x29, #-8]
    623c:	b81f03a1 	stur	w1, [x29, #-16]
    6240:	b81f43a2 	stur	w2, [x29, #-12]
    6244:	f81e83a3 	stur	x3, [x29, #-24]
    6248:	b81b03a4 	stur	w4, [x29, #-80]
    624c:	f85d83a0 	ldur	x0, [x29, #-40]
    6250:	b85f03a1 	ldur	w1, [x29, #-16]
    6254:	f85c83a2 	ldur	x2, [x29, #-56]
    6258:	b85f43a3 	ldur	w3, [x29, #-12]
    625c:	b85b43a4 	ldur	w4, [x29, #-76]
    6260:	d2906d91 	mov	x17, #0x836c                	// #33644
    6264:	f2a031b1 	movk	x17, #0x18d, lsl #16
    6268:	f2c00ab1 	movk	x17, #0x55, lsl #32
    626c:	f2e00011 	movk	x17, #0x0, lsl #48
    6270:	d63f0220 	blr	x17
    6274:	d4200760 	brk	#0x3b
    6278:	910143ff 	add	sp, sp, #0x50
    627c:	a8c17bfd 	ldp	x29, x30, [sp], #16
    6280:	d65f03c0 	ret
    6284:	d503201f 	nop
    6288:	d503201f 	nop
    628c:	d503201f 	nop
    6290:	a9bf7bfd 	stp	x29, x30, [sp, #-16]!
    6294:	910003fd 	mov	x29, sp
    6298:	d10203ff 	sub	sp, sp, #0x80
    629c:	f81f83a0 	stur	x0, [x29, #-8]
    62a0:	b81f43a1 	stur	w1, [x29, #-12]
    62a4:	f81e83a2 	stur	x2, [x29, #-24]
    62a8:	b81e43a3 	stur	w3, [x29, #-28]
    62ac:	b81e03a4 	stur	w4, [x29, #-32]
    62b0:	d13fa3e0 	sub	x0, sp, #0xfe8
    62b4:	d2856d01 	mov	x1, #0x2b68                	// #11112
    62b8:	f2a000c1 	movk	x1, #0x6, lsl #16
    62bc:	f2c00aa1 	movk	x1, #0x55, lsl #32
    62c0:	f2e00001 	movk	x1, #0x0, lsl #48
    62c4:	d2858d02 	mov	x2, #0x2c68                	// #11368
    62c8:	f2a000c2 	movk	x2, #0x6, lsl #16
    62cc:	f2c00aa2 	movk	x2, #0x55, lsl #32
    62d0:	f2e00002 	movk	x2, #0x0, lsl #48
    62d4:	d2942991 	mov	x17, #0xa14c                	// #41292
    62d8:	f2a031b1 	movk	x17, #0x18d, lsl #16
    62dc:	f2c00ab1 	movk	x17, #0x55, lsl #32
    62e0:	f2e00011 	movk	x17, #0x0, lsl #48
    62e4:	d63f0220 	blr	x17
    62e8:	52800000 	mov	w0, #0x0                   	// #0
    62ec:	72a00000 	movk	w0, #0x0, lsl #16
    62f0:	b85f43a1 	ldur	w1, [x29, #-12]
    62f4:	6b01001f 	cmp	w0, w1
    62f8:	5400046b 	b.lt	0x6384  // b.tstop
    62fc:	52800000 	mov	w0, #0x0                   	// #0
    6300:	72a00000 	movk	w0, #0x0, lsl #16
    6304:	b85e43a2 	ldur	w2, [x29, #-28]
    6308:	6b02001f 	cmp	w0, w2
    630c:	540003cb 	b.lt	0x6384  // b.tstop
    6310:	52800000 	mov	w0, #0x0                   	// #0
    6314:	72a00000 	movk	w0, #0x0, lsl #16
    6318:	b85e03a3 	ldur	w3, [x29, #-32]
    631c:	6b03001f 	cmp	w0, w3
    6320:	5400032b 	b.lt	0x6384  // b.tstop
    6324:	d42000e0 	brk	#0x7
    6328:	d4200500 	brk	#0x28
    632c:	b85d43a4 	ldur	w4, [x29, #-44]
    6330:	6b00009f 	cmp	w4, w0
    6334:	5400028b 	b.lt	0x6384  // b.tstop
    6338:	d42000e0 	brk	#0x7
    633c:	f85d83a5 	ldur	x5, [x29, #-40]
    6340:	710000bf 	cmp	w5, #0x0
    6344:	54000601 	b.ne	0x6404  // b.any
    6348:	b81d03a0 	stur	w0, [x29, #-48]
    634c:	b81f43a1 	stur	w1, [x29, #-12]
    6350:	b81e43a2 	stur	w2, [x29, #-28]
    6354:	b81e03a3 	stur	w3, [x29, #-32]
    6358:	b81d43a4 	stur	w4, [x29, #-44]
    635c:	f81d83a5 	stur	x5, [x29, #-40]
    6360:	d298b091 	mov	x17, #0xc584                	// #50564
    6364:	f2a031b1 	movk	x17, #0x18d, lsl #16
    6368:	f2c00ab1 	movk	x17, #0x55, lsl #32
    636c:	f2e00011 	movk	x17, #0x0, lsl #48
    6370:	d63f0220 	blr	x17
    6374:	f85d83a0 	ldur	x0, [x29, #-40]
    6378:	f8408001 	ldur	x1, [x0, #8]
    637c:	b85d43a2 	ldur	w2, [x29, #-44]
    6380:	6b01005f 	cmp	w2, w1
    6384:	5400018a 	b.ge	0x63b4  // b.tcont
    6388:	d295b204 	mov	x4, #0xad90                	// #44432
    638c:	f2a000c4 	movk	x4, #0x6, lsl #16
    6390:	f2c00aa4 	movk	x4, #0x55, lsl #32
    6394:	f2e00004 	movk	x4, #0x0, lsl #48
    6398:	f8400083 	ldur	x3, [x4]
    639c:	f81d83a0 	stur	x0, [x29, #-40]
    63a0:	b81d03a1 	stur	w1, [x29, #-48]
    63a4:	b81d43a2 	stur	w2, [x29, #-44]
    63a8:	f81c03a3 	stur	x3, [x29, #-64]
    63ac:	f85c03a0 	ldur	x0, [x29, #-64]
    63b0:	97fff3ec 	bl	0x3360
    63b4:	d4200880 	brk	#0x44
    63b8:	d4200500 	brk	#0x28
    63bc:	d4200500 	brk	#0x28
    63c0:	52800241 	mov	w1, #0x12                  	// #18
    63c4:	72a00001 	movk	w1, #0x0, lsl #16
    63c8:	d42001c0 	brk	#0xe
    63cc:	f85d83a2 	ldur	x2, [x29, #-40]
    63d0:	f8410043 	ldur	x3, [x2, #16]
    63d4:	d4200500 	brk	#0x28
    63d8:	52800244 	mov	w4, #0x12                  	// #18
    63dc:	72a00004 	movk	w4, #0x0, lsl #16
    63e0:	d42001c0 	brk	#0xe
    63e4:	d4200500 	brk	#0x28
    63e8:	52800245 	mov	w5, #0x12                  	// #18
    63ec:	72a00005 	movk	w5, #0x0, lsl #16
    63f0:	d42001c0 	brk	#0xe
    63f4:	f81c83a0 	stur	x0, [x29, #-56]
    63f8:	b81d03a1 	stur	w1, [x29, #-48]
    63fc:	f81d83a2 	stur	x2, [x29, #-40]
    6400:	f81a83a3 	stur	x3, [x29, #-88]
    6404:	b819c3a4 	stur	w4, [x29, #-100]
    6408:	b81883a5 	stur	w5, [x29, #-120]
    640c:	f85b83a0 	ldur	x0, [x29, #-72]
    6410:	b85d43a1 	ldur	w1, [x29, #-44]
    6414:	f85a83a2 	ldur	x2, [x29, #-88]
    6418:	b85d03a3 	ldur	w3, [x29, #-48]
    641c:	b858c3a4 	ldur	w4, [x29, #-116]
    6420:	d2906d91 	mov	x17, #0x836c                	// #33644
    6424:	f2a031b1 	movk	x17, #0x18d, lsl #16
    6428:	f2c00ab1 	movk	x17, #0x55, lsl #32
    642c:	f2e00011 	movk	x17, #0x0, lsl #48
    6430:	d63f0220 	blr	x17
    6434:	910203ff 	add	sp, sp, #0x80
    6438:	a8c17bfd 	ldp	x29, x30, [sp], #16
    643c:	d65f03c0 	ret
    6440:	a9bf7bfd 	stp	x29, x30, [sp, #-16]!
    6444:	910003fd 	mov	x29, sp
    6448:	d10183ff 	sub	sp, sp, #0x60
    644c:	52800003 	mov	w3, #0x0                   	// #0
    6450:	72a00003 	movk	w3, #0x0, lsl #16
    6454:	6b01007f 	cmp	w3, w1
    6458:	5400016a 	b.ge	0x6484  // b.tcont
    645c:	d4200500 	brk	#0x28
    6460:	d42000e0 	brk	#0x7
    6464:	b85e43a4 	ldur	w4, [x29, #-28]
    6468:	2a0403e1 	mov	w1, w4
    646c:	52800003 	mov	w3, #0x0                   	// #0
    6470:	72a00003 	movk	w3, #0x0, lsl #16
    6474:	6b04007f 	cmp	w3, w4
    6478:	5400006a 	b.ge	0x6484  // b.tcont
    647c:	52800004 	mov	w4, #0x0                   	// #0
    6480:	72a00004 	movk	w4, #0x0, lsl #16
    6484:	2a0403e1 	mov	w1, w4
    6488:	7100005f 	cmp	w2, #0x0
    648c:	54000041 	b.ne	0x6494  // b.any
    6490:	d4200500 	brk	#0x28
    6494:	1400001e 	b	0x650c
    6498:	f81f83a0 	stur	x0, [x29, #-8]
    649c:	b81f43a1 	stur	w1, [x29, #-12]
    64a0:	f81e83a2 	stur	x2, [x29, #-24]
    64a4:	b81e03a3 	stur	w3, [x29, #-32]
    64a8:	b81e43a4 	stur	w4, [x29, #-28]
    64ac:	d13fa3e0 	sub	x0, sp, #0xfe8
    64b0:	d2876101 	mov	x1, #0x3b08                	// #15112
    64b4:	f2a000c1 	movk	x1, #0x6, lsl #16
    64b8:	f2c00aa1 	movk	x1, #0x55, lsl #32
    64bc:	f2e00001 	movk	x1, #0x0, lsl #48
    64c0:	d2851102 	mov	x2, #0x2888                	// #10376
    64c4:	f2a000c2 	movk	x2, #0x6, lsl #16
    64c8:	f2c00aa2 	movk	x2, #0x55, lsl #32
    64cc:	f2e00002 	movk	x2, #0x0, lsl #48
    64d0:	d293ee91 	mov	x17, #0x9f74                	// #40820
    64d4:	f2a031b1 	movk	x17, #0x18d, lsl #16
    64d8:	f2c00ab1 	movk	x17, #0x55, lsl #32
    64dc:	f2e00011 	movk	x17, #0x0, lsl #48
    64e0:	d63f0220 	blr	x17
    64e4:	52800000 	mov	w0, #0x0                   	// #0
    64e8:	72a00000 	movk	w0, #0x0, lsl #16
    64ec:	b85e03a1 	ldur	w1, [x29, #-32]
    64f0:	6b01001f 	cmp	w0, w1
    64f4:	5400004a 	b.ge	0x64fc  // b.tcont
    64f8:	d4200500 	brk	#0x28
    64fc:	d42000e0 	brk	#0x7
    6500:	d4200500 	brk	#0x28
    6504:	6b00003f 	cmp	w1, w0
    6508:	5400002a 	b.ge	0x650c  // b.tcont
    650c:	d4200500 	brk	#0x28
    6510:	d4200100 	brk	#0x8
    6514:	52800002 	mov	w2, #0x0                   	// #0
    6518:	72a00002 	movk	w2, #0x0, lsl #16
    651c:	6b01005f 	cmp	w2, w1
    6520:	5400024a 	b.ge	0x6568  // b.tcont
    6524:	b81dc3a0 	stur	w0, [x29, #-36]
    6528:	b81e03a1 	stur	w1, [x29, #-32]
    652c:	b81d83a2 	stur	w2, [x29, #-40]
    6530:	d2858d00 	mov	x0, #0x2c68                	// #11368
    6534:	f2a000c0 	movk	x0, #0x6, lsl #16
    6538:	f2c00aa0 	movk	x0, #0x55, lsl #32
    653c:	f2e00000 	movk	x0, #0x0, lsl #48
    6540:	d287fa11 	mov	x17, #0x3fd0                	// #16336
    6544:	f2a031b1 	movk	x17, #0x18d, lsl #16
    6548:	f2c00ab1 	movk	x17, #0x55, lsl #32
    654c:	f2e00011 	movk	x17, #0x0, lsl #48
    6550:	d63f0220 	blr	x17
    6554:	f81d03a0 	stur	x0, [x29, #-48]
    6558:	f85d03a0 	ldur	x0, [x29, #-48]
    655c:	97fffdd9 	bl	0x5cc0
    6560:	910183ff 	add	sp, sp, #0x60
    6564:	a8c17bfd 	ldp	x29, x30, [sp], #16
    6568:	d65f03c0 	ret
    656c:	d2858d00 	mov	x0, #0x2c68                	// #11368
    6570:	f2a000c0 	movk	x0, #0x6, lsl #16
    6574:	f2c00aa0 	movk	x0, #0x55, lsl #32
    6578:	f2e00000 	movk	x0, #0x0, lsl #48
    657c:	d287fa11 	mov	x17, #0x3fd0                	// #16336
    6580:	f2a031b1 	movk	x17, #0x18d, lsl #16
    6584:	f2c00ab1 	movk	x17, #0x55, lsl #32
    6588:	f2e00011 	movk	x17, #0x0, lsl #48
    658c:	d63f0220 	blr	x17
    6590:	f81d03a0 	stur	x0, [x29, #-48]
    6594:	f85d03a0 	ldur	x0, [x29, #-48]
    6598:	97fffdca 	bl	0x5cc0
    659c:	f85e83a0 	ldur	x0, [x29, #-24]
    65a0:	f85d03a1 	ldur	x1, [x29, #-48]
    65a4:	f8000001 	stur	x1, [x0]
    65a8:	f85f83a2 	ldur	x2, [x29, #-8]
    65ac:	f8000041 	stur	x1, [x2]
    65b0:	d4200500 	brk	#0x28
    65b4:	d4200500 	brk	#0x28
    65b8:	52800243 	mov	w3, #0x12                  	// #18
    65bc:	72a00003 	movk	w3, #0x0, lsl #16
    65c0:	d42001c0 	brk	#0xe
    65c4:	d4200500 	brk	#0x28
    65c8:	52800244 	mov	w4, #0x12                  	// #18
    65cc:	72a00004 	movk	w4, #0x0, lsl #16
    65d0:	d42001c0 	brk	#0xe
    65d4:	f81e83a0 	stur	x0, [x29, #-24]
    65d8:	f81d03a1 	stur	x1, [x29, #-48]
    65dc:	f81f83a2 	stur	x2, [x29, #-8]
    65e0:	b81d83a3 	stur	w3, [x29, #-40]
    65e4:	b81a83a4 	stur	w4, [x29, #-88]
    65e8:	f85c83a0 	ldur	x0, [x29, #-56]
    65ec:	b85dc3a1 	ldur	w1, [x29, #-36]
    65f0:	b85ac3a2 	ldur	w2, [x29, #-84]
    65f4:	97fff153 	bl	0x2b40
    65f8:	b85f43a1 	ldur	w1, [x29, #-12]
    65fc:	f85d03a2 	ldur	x2, [x29, #-48]
    6600:	b8000022 	stur	w2, [x1]
    6604:	910183ff 	add	sp, sp, #0x60
    6608:	a8c17bfd 	ldp	x29, x30, [sp], #16
    660c:	d65f03c0 	ret
    6610:	a9bf7bfd 	stp	x29, x30, [sp, #-16]!
    6614:	910003fd 	mov	x29, sp
    6618:	d10083ff 	sub	sp, sp, #0x20
    661c:	d4200780 	brk	#0x3c
    6620:	d4200780 	brk	#0x3c
    6624:	d4200400 	brk	#0x20
    6628:	910083ff 	add	sp, sp, #0x20
    662c:	a8c17bfd 	ldp	x29, x30, [sp], #16
    6630:	d65f03c0 	ret
    6634:	d503201f 	nop
    6638:	d503201f 	nop
    663c:	d503201f 	nop
    6640:	a9bf7bfd 	stp	x29, x30, [sp, #-16]!
    6644:	910003fd 	mov	x29, sp
    6648:	d10103ff 	sub	sp, sp, #0x40
    664c:	d2851d02 	mov	x2, #0x28e8                	// #10472
    6650:	f2a000c2 	movk	x2, #0x6, lsl #16
    6654:	f2c00aa2 	movk	x2, #0x55, lsl #32
    6658:	f2e00002 	movk	x2, #0x0, lsl #48
    665c:	d2851103 	mov	x3, #0x2888                	// #10376
    6660:	f2a000c3 	movk	x3, #0x6, lsl #16
    6664:	f2c00aa3 	movk	x3, #0x55, lsl #32
    6668:	f2e00003 	movk	x3, #0x0, lsl #48
    666c:	6b02007f 	cmp	w3, w2
    6670:	54000321 	b.ne	0x66d4  // b.any
    6674:	d4200500 	brk	#0x28
    6678:	52800004 	mov	w4, #0x0                   	// #0
    667c:	72a00004 	movk	w4, #0x0, lsl #16
    6680:	d4200500 	brk	#0x28
    6684:	7100003f 	cmp	w1, #0x0
    6688:	54000041 	b.ne	0x6690  // b.any
    668c:	aa1f03e5 	mov	x5, xzr
    6690:	14000001 	b	0x6694
    6694:	d4200440 	brk	#0x22
    6698:	f81f83a0 	stur	x0, [x29, #-8]
    669c:	f81f03a1 	stur	x1, [x29, #-16]
    66a0:	f81e83a2 	stur	x2, [x29, #-24]
    66a4:	f81e03a3 	stur	x3, [x29, #-32]
    66a8:	b81d43a4 	stur	w4, [x29, #-44]
    66ac:	f81c83a5 	stur	x5, [x29, #-56]
    66b0:	f85d83a0 	ldur	x0, [x29, #-40]
    66b4:	b85d43a1 	ldur	w1, [x29, #-44]
    66b8:	b85d03a2 	ldur	w2, [x29, #-48]
    66bc:	f85c83a3 	ldur	x3, [x29, #-56]
    66c0:	d2910791 	mov	x17, #0x883c                	// #34876
    66c4:	f2a031b1 	movk	x17, #0x18d, lsl #16
    66c8:	f2c00ab1 	movk	x17, #0x55, lsl #32
    66cc:	f2e00011 	movk	x17, #0x0, lsl #48
    66d0:	d63f0220 	blr	x17
    66d4:	1400000e 	b	0x670c
    66d8:	d4200500 	brk	#0x28
    66dc:	52800000 	mov	w0, #0x0                   	// #0
    66e0:	72a00000 	movk	w0, #0x0, lsl #16
    66e4:	d4200500 	brk	#0x28
    66e8:	b81d43a0 	stur	w0, [x29, #-44]
    66ec:	f85d83a0 	ldur	x0, [x29, #-40]
    66f0:	b85d43a1 	ldur	w1, [x29, #-44]
    66f4:	b85d03a2 	ldur	w2, [x29, #-48]
    66f8:	f85f03a3 	ldur	x3, [x29, #-16]
    66fc:	d2913e91 	mov	x17, #0x89f4                	// #35316
    6700:	f2a031b1 	movk	x17, #0x18d, lsl #16
    6704:	f2c00ab1 	movk	x17, #0x55, lsl #32
    6708:	f2e00011 	movk	x17, #0x0, lsl #48
    670c:	d63f0220 	blr	x17
    6710:	910103ff 	add	sp, sp, #0x40
    6714:	a8c17bfd 	ldp	x29, x30, [sp], #16
    6718:	d65f03c0 	ret
    671c:	d503201f 	nop
    6720:	a9bf7bfd 	stp	x29, x30, [sp, #-16]!
    6724:	910003fd 	mov	x29, sp
    6728:	d10203ff 	sub	sp, sp, #0x80
    672c:	52800003 	mov	w3, #0x0                   	// #0
    6730:	72a00003 	movk	w3, #0x0, lsl #16
    6734:	6b02007f 	cmp	w3, w2
    6738:	5400026a 	b.ge	0x6784  // b.tcont
    673c:	f81f83a0 	stur	x0, [x29, #-8]
    6740:	b81f43a1 	stur	w1, [x29, #-12]
    6744:	b81f03a2 	stur	w2, [x29, #-16]
    6748:	b81e83a3 	stur	w3, [x29, #-24]
    674c:	d2858d00 	mov	x0, #0x2c68                	// #11368
    6750:	f2a000c0 	movk	x0, #0x6, lsl #16
    6754:	f2c00aa0 	movk	x0, #0x55, lsl #32
    6758:	f2e00000 	movk	x0, #0x0, lsl #48
    675c:	d287fa11 	mov	x17, #0x3fd0                	// #16336
    6760:	f2a031b1 	movk	x17, #0x18d, lsl #16
    6764:	f2c00ab1 	movk	x17, #0x55, lsl #32
    6768:	f2e00011 	movk	x17, #0x0, lsl #48
    676c:	d63f0220 	blr	x17
    6770:	f81e03a0 	stur	x0, [x29, #-32]
    6774:	f85e03a0 	ldur	x0, [x29, #-32]
    6778:	97fffd52 	bl	0x5cc0
    677c:	910203ff 	add	sp, sp, #0x80
    6780:	a8c17bfd 	ldp	x29, x30, [sp], #16
    6784:	d65f03c0 	ret
    6788:	52800000 	mov	w0, #0x0                   	// #0
    678c:	72a00000 	movk	w0, #0x0, lsl #16
    6790:	b85f43a1 	ldur	w1, [x29, #-12]
    6794:	6b01001f 	cmp	w0, w1
    6798:	5400016a 	b.ge	0x67c4  // b.tcont
    679c:	d4200500 	brk	#0x28
    67a0:	d42000e0 	brk	#0x7
    67a4:	b85ec3a2 	ldur	w2, [x29, #-20]
    67a8:	2a0203e1 	mov	w1, w2
    67ac:	52800000 	mov	w0, #0x0                   	// #0
    67b0:	72a00000 	movk	w0, #0x0, lsl #16
    67b4:	6b02001f 	cmp	w0, w2
    67b8:	5400006a 	b.ge	0x67c4  // b.tcont
    67bc:	52800002 	mov	w2, #0x0                   	// #0
    67c0:	72a00002 	movk	w2, #0x0, lsl #16
    67c4:	2a0203e1 	mov	w1, w2
    67c8:	d4200500 	brk	#0x28
    67cc:	6b00003f 	cmp	w1, w0
    67d0:	540000ea 	b.ge	0x67ec  // b.tcont
    67d4:	52800002 	mov	w2, #0x0                   	// #0
    67d8:	72a00002 	movk	w2, #0x0, lsl #16
    67dc:	2a0203e1 	mov	w1, w2
    67e0:	52800002 	mov	w2, #0x0                   	// #0
    67e4:	72a00002 	movk	w2, #0x0, lsl #16
    67e8:	b81f03a2 	stur	w2, [x29, #-16]
    67ec:	1400000e 	b	0x6824
    67f0:	d42000e0 	brk	#0x7
    67f4:	d4200500 	brk	#0x28
    67f8:	6b00005f 	cmp	w2, w0
    67fc:	5400014a 	b.ge	0x6824  // b.tcont
    6800:	d4200500 	brk	#0x28
    6804:	d4200100 	brk	#0x8
    6808:	b81f03a2 	stur	w2, [x29, #-16]
    680c:	52800000 	mov	w0, #0x0                   	// #0
    6810:	72a00000 	movk	w0, #0x0, lsl #16
    6814:	6b02001f 	cmp	w0, w2
    6818:	5400006a 	b.ge	0x6824  // b.tcont
    681c:	52800002 	mov	w2, #0x0                   	// #0
    6820:	72a00002 	movk	w2, #0x0, lsl #16
    6824:	b81f03a2 	stur	w2, [x29, #-16]
    6828:	52800000 	mov	w0, #0x0                   	// #0
    682c:	72a00000 	movk	w0, #0x0, lsl #16
    6830:	b85f03a3 	ldur	w3, [x29, #-16]
    6834:	6b03001f 	cmp	w0, w3
    6838:	54000261 	b.ne	0x6884  // b.any
    683c:	b81e83a0 	stur	w0, [x29, #-24]
    6840:	b81f43a1 	stur	w1, [x29, #-12]
    6844:	b81ec3a2 	stur	w2, [x29, #-20]
    6848:	b81f03a3 	stur	w3, [x29, #-16]
    684c:	d2858d00 	mov	x0, #0x2c68                	// #11368
    6850:	f2a000c0 	movk	x0, #0x6, lsl #16
    6854:	f2c00aa0 	movk	x0, #0x55, lsl #32
    6858:	f2e00000 	movk	x0, #0x0, lsl #48
    685c:	d287fa11 	mov	x17, #0x3fd0                	// #16336
    6860:	f2a031b1 	movk	x17, #0x18d, lsl #16
    6864:	f2c00ab1 	movk	x17, #0x55, lsl #32
    6868:	f2e00011 	movk	x17, #0x0, lsl #48
    686c:	d63f0220 	blr	x17
    6870:	f81e03a0 	stur	x0, [x29, #-32]
    6874:	f85e03a0 	ldur	x0, [x29, #-32]
    6878:	97fffd12 	bl	0x5cc0
    687c:	910203ff 	add	sp, sp, #0x80
    6880:	a8c17bfd 	ldp	x29, x30, [sp], #16
    6884:	d65f03c0 	ret
    6888:	d2858d00 	mov	x0, #0x2c68                	// #11368
    688c:	f2a000c0 	movk	x0, #0x6, lsl #16
    6890:	f2c00aa0 	movk	x0, #0x55, lsl #32
    6894:	f2e00000 	movk	x0, #0x0, lsl #48
    6898:	d287fa11 	mov	x17, #0x3fd0                	// #16336
    689c:	f2a031b1 	movk	x17, #0x18d, lsl #16
    68a0:	f2c00ab1 	movk	x17, #0x55, lsl #32
    68a4:	f2e00011 	movk	x17, #0x0, lsl #48
    68a8:	d63f0220 	blr	x17
    68ac:	f81e03a0 	stur	x0, [x29, #-32]
    68b0:	f85e03a0 	ldur	x0, [x29, #-32]
    68b4:	97fffd03 	bl	0x5cc0
    68b8:	d4200500 	brk	#0x28
    68bc:	d4200500 	brk	#0x28
    68c0:	52800240 	mov	w0, #0x12                  	// #18
    68c4:	72a00000 	movk	w0, #0x0, lsl #16
    68c8:	d42001c0 	brk	#0xe
    68cc:	d4200500 	brk	#0x28
    68d0:	52800241 	mov	w1, #0x12                  	// #18
    68d4:	72a00001 	movk	w1, #0x0, lsl #16
    68d8:	d42001c0 	brk	#0xe
    68dc:	b81e83a0 	stur	w0, [x29, #-24]
    68e0:	b81b83a1 	stur	w1, [x29, #-72]
    68e4:	f85d83a0 	ldur	x0, [x29, #-40]
    68e8:	b85ec3a1 	ldur	w1, [x29, #-20]
    68ec:	b85bc3a2 	ldur	w2, [x29, #-68]
    68f0:	97fff094 	bl	0x2b40
    68f4:	b85f43a1 	ldur	w1, [x29, #-12]
    68f8:	f85e03a2 	ldur	x2, [x29, #-32]
    68fc:	b8000022 	stur	w2, [x1]
    6900:	f85f83a3 	ldur	x3, [x29, #-8]
    6904:	f8018062 	stur	x2, [x3, #24]
    6908:	b85f03a4 	ldur	w4, [x29, #-16]
    690c:	b8018082 	stur	w2, [x4, #24]
    6910:	d42000e0 	brk	#0x7
    6914:	d4200500 	brk	#0x28
    6918:	d4200500 	brk	#0x28
    691c:	52800245 	mov	w5, #0x12                  	// #18
    6920:	72a00005 	movk	w5, #0x0, lsl #16
    6924:	d42001c0 	brk	#0xe
    6928:	d4200500 	brk	#0x28
    692c:	d4200500 	brk	#0x28
    6930:	52800246 	mov	w6, #0x12                  	// #18
    6934:	72a00006 	movk	w6, #0x0, lsl #16
    6938:	d42001c0 	brk	#0xe
    693c:	d4200500 	brk	#0x28
    6940:	d4200500 	brk	#0x28
    6944:	d4200100 	brk	#0x8
    6948:	52800247 	mov	w7, #0x12                  	// #18
    694c:	72a00007 	movk	w7, #0x0, lsl #16
    6950:	d42001c0 	brk	#0xe
    6954:	f81c03a0 	stur	x0, [x29, #-64]
    6958:	b81f43a1 	stur	w1, [x29, #-12]
    695c:	f81e03a2 	stur	x2, [x29, #-32]
    6960:	f81f83a3 	stur	x3, [x29, #-8]
    6964:	b81f03a4 	stur	w4, [x29, #-16]
    6968:	b81b83a5 	stur	w5, [x29, #-72]
    696c:	b819c3a6 	stur	w6, [x29, #-100]
    6970:	b81883a7 	stur	w7, [x29, #-120]
    6974:	f85c03a0 	ldur	x0, [x29, #-64]
    6978:	b85bc3a1 	ldur	w1, [x29, #-68]
    697c:	f85a83a2 	ldur	x2, [x29, #-88]
    6980:	b85b83a3 	ldur	w3, [x29, #-72]
    6984:	b858c3a4 	ldur	w4, [x29, #-116]
    6988:	d2906d91 	mov	x17, #0x836c                	// #33644
    698c:	f2a031b1 	movk	x17, #0x18d, lsl #16
    6990:	f2c00ab1 	movk	x17, #0x55, lsl #32
    6994:	f2e00011 	movk	x17, #0x0, lsl #48
    6998:	d63f0220 	blr	x17
    699c:	f85f83a0 	ldur	x0, [x29, #-8]
    69a0:	f8408001 	ldur	x1, [x0, #8]
    69a4:	d4200100 	brk	#0x8
    69a8:	f8000000 	stur	x0, [x0]
    69ac:	910203ff 	add	sp, sp, #0x80
    69b0:	a8c17bfd 	ldp	x29, x30, [sp], #16
    69b4:	d65f03c0 	ret
    69b8:	d503201f 	nop
    69bc:	d503201f 	nop
    69c0:	a9bf7bfd 	stp	x29, x30, [sp, #-16]!
    69c4:	910003fd 	mov	x29, sp
    69c8:	d10143ff 	sub	sp, sp, #0x50
    69cc:	f81f83a0 	stur	x0, [x29, #-8]
    69d0:	d2878100 	mov	x0, #0x3c08                	// #15368
    69d4:	f2a000c0 	movk	x0, #0x6, lsl #16
    69d8:	f2c00aa0 	movk	x0, #0x55, lsl #32
    69dc:	f2e00000 	movk	x0, #0x0, lsl #48
    69e0:	d287fa11 	mov	x17, #0x3fd0                	// #16336
    69e4:	f2a031b1 	movk	x17, #0x18d, lsl #16
    69e8:	f2c00ab1 	movk	x17, #0x55, lsl #32
    69ec:	f2e00011 	movk	x17, #0x0, lsl #48
    69f0:	d63f0220 	blr	x17
    69f4:	f81f03a0 	stur	x0, [x29, #-16]
    69f8:	f85f03a0 	ldur	x0, [x29, #-16]
    69fc:	97ffede5 	bl	0x2190
    6a00:	52800560 	mov	w0, #0x2b                  	// #43
    6a04:	72a00000 	movk	w0, #0x0, lsl #16
    6a08:	b81ec3a0 	stur	w0, [x29, #-20]
    6a0c:	f85f03a0 	ldur	x0, [x29, #-16]
    6a10:	b85ec3a1 	ldur	w1, [x29, #-20]
    6a14:	97ffeebf 	bl	0x2510
    6a18:	52800000 	mov	w0, #0x0                   	// #0
    6a1c:	72a00000 	movk	w0, #0x0, lsl #16
    6a20:	d4200500 	brk	#0x28
    6a24:	b85e83a1 	ldur	w1, [x29, #-24]
    6a28:	6b00003f 	cmp	w1, w0
    6a2c:	5400060a 	b.ge	0x6aec  // b.tcont
    6a30:	b81e43a0 	stur	w0, [x29, #-28]
    6a34:	f85f83a2 	ldur	x2, [x29, #-8]
    6a38:	11000440 	add	w0, w2, #0x1
    6a3c:	52800003 	mov	w3, #0x0                   	// #0
    6a40:	72a00003 	movk	w3, #0x0, lsl #16
    6a44:	b85e43a4 	ldur	w4, [x29, #-28]
    6a48:	6b03009f 	cmp	w4, w3
    6a4c:	5400028a 	b.ge	0x6a9c  // b.tcont
    6a50:	f85f03a5 	ldur	x5, [x29, #-16]
    6a54:	710000bf 	cmp	w5, #0x0
    6a58:	54000601 	b.ne	0x6b18  // b.any
    6a5c:	b81ec3a0 	stur	w0, [x29, #-20]
    6a60:	b81e83a1 	stur	w1, [x29, #-24]
    6a64:	f81f83a2 	stur	x2, [x29, #-8]
    6a68:	b81dc3a3 	stur	w3, [x29, #-36]
    6a6c:	b81e43a4 	stur	w4, [x29, #-28]
    6a70:	f81f03a5 	stur	x5, [x29, #-16]
    6a74:	d298b091 	mov	x17, #0xc584                	// #50564
    6a78:	f2a031b1 	movk	x17, #0x18d, lsl #16
    6a7c:	f2c00ab1 	movk	x17, #0x55, lsl #32
    6a80:	f2e00011 	movk	x17, #0x0, lsl #48
    6a84:	d63f0220 	blr	x17
    6a88:	52800580 	mov	w0, #0x2c                  	// #44
    6a8c:	72a00000 	movk	w0, #0x0, lsl #16
    6a90:	b81e03a0 	stur	w0, [x29, #-32]
    6a94:	f85f03a0 	ldur	x0, [x29, #-16]
    6a98:	b85e03a1 	ldur	w1, [x29, #-32]
    6a9c:	97ffee9d 	bl	0x2510
    6aa0:	d4200500 	brk	#0x28
    6aa4:	f85f03a0 	ldur	x0, [x29, #-16]
    6aa8:	7100001f 	cmp	w0, #0x0
    6aac:	54000381 	b.ne	0x6b1c  // b.any
    6ab0:	f81f03a0 	stur	x0, [x29, #-16]
    6ab4:	d298b091 	mov	x17, #0xc584                	// #50564
    6ab8:	f2a031b1 	movk	x17, #0x18d, lsl #16
    6abc:	f2c00ab1 	movk	x17, #0x55, lsl #32
    6ac0:	f2e00011 	movk	x17, #0x0, lsl #48
    6ac4:	d63f0220 	blr	x17
    6ac8:	52800240 	mov	w0, #0x12                  	// #18
    6acc:	72a00000 	movk	w0, #0x0, lsl #16
    6ad0:	d42001c0 	brk	#0xe
    6ad4:	d4200980 	brk	#0x4c
    6ad8:	d4200760 	brk	#0x3b
    6adc:	b81dc3a0 	stur	w0, [x29, #-36]
    6ae0:	f85f03a0 	ldur	x0, [x29, #-16]
    6ae4:	f85c03a1 	ldur	x1, [x29, #-64]
    6ae8:	97ffedc2 	bl	0x21f0
    6aec:	17ffffcd 	b	0x6a20
    6af0:	f85f03a0 	ldur	x0, [x29, #-16]
    6af4:	7100001f 	cmp	w0, #0x0
    6af8:	54000381 	b.ne	0x6b68  // b.any
    6afc:	f81f03a0 	stur	x0, [x29, #-16]
    6b00:	d298b091 	mov	x17, #0xc584                	// #50564
    6b04:	f2a031b1 	movk	x17, #0x18d, lsl #16
    6b08:	f2c00ab1 	movk	x17, #0x55, lsl #32
    6b0c:	f2e00011 	movk	x17, #0x0, lsl #48
    6b10:	d63f0220 	blr	x17
    6b14:	528004e0 	mov	w0, #0x27                  	// #39
    6b18:	72a00000 	movk	w0, #0x0, lsl #16
    6b1c:	b81ec3a0 	stur	w0, [x29, #-20]
    6b20:	f85f03a0 	ldur	x0, [x29, #-16]
    6b24:	b85ec3a1 	ldur	w1, [x29, #-20]
    6b28:	97ffee7a 	bl	0x2510
    6b2c:	f85f03a0 	ldur	x0, [x29, #-16]
    6b30:	97ffef64 	bl	0x28c0
    6b34:	910143ff 	add	sp, sp, #0x50
    6b38:	a8c17bfd 	ldp	x29, x30, [sp], #16
    6b3c:	d65f03c0 	ret
    6b40:	a9bf7bfd 	stp	x29, x30, [sp, #-16]!
    6b44:	910003fd 	mov	x29, sp
    6b48:	d10143ff 	sub	sp, sp, #0x50
    6b4c:	d4200500 	brk	#0x28
    6b50:	d4200500 	brk	#0x28
    6b54:	b85ec3a2 	ldur	w2, [x29, #-20]
    6b58:	b85e83a3 	ldur	w3, [x29, #-24]
    6b5c:	6b02007f 	cmp	w3, w2
    6b60:	54000121 	b.ne	0x6b84  // b.any
    6b64:	d4200500 	brk	#0x28
    6b68:	f81f83a0 	stur	x0, [x29, #-8]
    6b6c:	fc1f03a1 	stur	d1, [x29, #-16]
    6b70:	b81ec3a2 	stur	w2, [x29, #-20]
    6b74:	b81e83a3 	stur	w3, [x29, #-24]
    6b78:	f85f83a0 	ldur	x0, [x29, #-8]
    6b7c:	b85ec3a1 	ldur	w1, [x29, #-20]
    6b80:	94000090 	bl	0x6dc0
    6b84:	14000004 	b	0x6b94
    6b88:	f85f83a0 	ldur	x0, [x29, #-8]
    6b8c:	f8408001 	ldur	x1, [x0, #8]
    6b90:	11000401 	add	w1, w0, #0x1
    6b94:	f8000000 	stur	x0, [x0]
    6b98:	d4200500 	brk	#0x28
    6b9c:	d4200500 	brk	#0x28
    6ba0:	528000e1 	mov	w1, #0x7                   	// #7
    6ba4:	72a00001 	movk	w1, #0x0, lsl #16
    6ba8:	52800242 	mov	w2, #0x12                  	// #18
    6bac:	72a00002 	movk	w2, #0x0, lsl #16
    6bb0:	d42001c0 	brk	#0xe
    6bb4:	d4200500 	brk	#0x28
    6bb8:	d4200500 	brk	#0x28
    6bbc:	52800003 	mov	w3, #0x0                   	// #0
    6bc0:	72a00003 	movk	w3, #0x0, lsl #16
    6bc4:	d4200500 	brk	#0x28
    6bc8:	528000e4 	mov	w4, #0x7                   	// #7
    6bcc:	72a00004 	movk	w4, #0x0, lsl #16
    6bd0:	d4200100 	brk	#0x8
    6bd4:	52800244 	mov	w4, #0x12                  	// #18
    6bd8:	72a00004 	movk	w4, #0x0, lsl #16
    6bdc:	d42001c0 	brk	#0xe
    6be0:	f81f83a0 	stur	x0, [x29, #-8]
    6be4:	b81ec3a1 	stur	w1, [x29, #-20]
    6be8:	b81e83a2 	stur	w2, [x29, #-24]
    6bec:	b81bc3a3 	stur	w3, [x29, #-68]
    6bf0:	b81b43a4 	stur	w4, [x29, #-76]
    6bf4:	f85e03a0 	ldur	x0, [x29, #-32]
    6bf8:	b85ec3a1 	ldur	w1, [x29, #-20]
    6bfc:	f85c03a2 	ldur	x2, [x29, #-64]
    6c00:	b85bc3a3 	ldur	w3, [x29, #-68]
    6c04:	b85b83a4 	ldur	w4, [x29, #-72]
    6c08:	d2906d91 	mov	x17, #0x836c                	// #33644
    6c0c:	f2a031b1 	movk	x17, #0x18d, lsl #16
    6c10:	f2c00ab1 	movk	x17, #0x55, lsl #32
    6c14:	f2e00011 	movk	x17, #0x0, lsl #48
    6c18:	d63f0220 	blr	x17
    6c1c:	d4200500 	brk	#0x28
    6c20:	52800000 	mov	w0, #0x0                   	// #0
    6c24:	72a00000 	movk	w0, #0x0, lsl #16
    6c28:	52800241 	mov	w1, #0x12                  	// #18
    6c2c:	72a00001 	movk	w1, #0x0, lsl #16
    6c30:	d42001c0 	brk	#0xe
    6c34:	d4200a00 	brk	#0x50
    6c38:	910143ff 	add	sp, sp, #0x50
    6c3c:	a8c17bfd 	ldp	x29, x30, [sp], #16
    6c40:	d65f03c0 	ret
    6c44:	d503201f 	nop
    6c48:	d503201f 	nop
    6c4c:	d503201f 	nop
    6c50:	a9bf7bfd 	stp	x29, x30, [sp, #-16]!
    6c54:	910003fd 	mov	x29, sp
    6c58:	d101c3ff 	sub	sp, sp, #0x70
    6c5c:	52800003 	mov	w3, #0x0                   	// #0
    6c60:	72a00003 	movk	w3, #0x0, lsl #16
    6c64:	6b01007f 	cmp	w3, w1
    6c68:	5400018a 	b.ge	0x6c98  // b.tcont
    6c6c:	d4200500 	brk	#0x28
    6c70:	d42000e0 	brk	#0x7
    6c74:	b85e43a4 	ldur	w4, [x29, #-28]
    6c78:	2a0403e1 	mov	w1, w4
    6c7c:	52800003 	mov	w3, #0x0                   	// #0
    6c80:	72a00003 	movk	w3, #0x0, lsl #16
    6c84:	6b04007f 	cmp	w3, w4
    6c88:	5400006a 	b.ge	0x6c94  // b.tcont
    6c8c:	52800004 	mov	w4, #0x0                   	// #0
    6c90:	72a00004 	movk	w4, #0x0, lsl #16
    6c94:	2a0403e1 	mov	w1, w4
    6c98:	14000005 	b	0x6cac
    6c9c:	d4200500 	brk	#0x28
    6ca0:	6b03003f 	cmp	w1, w3
    6ca4:	5400004a 	b.ge	0x6cac  // b.tcont
    6ca8:	d4200500 	brk	#0x28
    6cac:	2a0403e1 	mov	w1, w4
    6cb0:	d4200500 	brk	#0x28
    6cb4:	d4200500 	brk	#0x28
    6cb8:	6b04007f 	cmp	w3, w4
    6cbc:	54000141 	b.ne	0x6ce4  // b.any
    6cc0:	d4200500 	brk	#0x28
    6cc4:	f81f83a0 	stur	x0, [x29, #-8]
    6cc8:	b81f43a1 	stur	w1, [x29, #-12]
    6ccc:	fc1e83a2 	stur	d2, [x29, #-24]
    6cd0:	b81e03a3 	stur	w3, [x29, #-32]
    6cd4:	b81e43a4 	stur	w4, [x29, #-28]
    6cd8:	f85f83a0 	ldur	x0, [x29, #-8]
    6cdc:	b85e43a1 	ldur	w1, [x29, #-28]
    6ce0:	94000038 	bl	0x6dc0
    6ce4:	14000004 	b	0x6cf4
    6ce8:	f85f83a0 	ldur	x0, [x29, #-8]
    6cec:	f8408001 	ldur	x1, [x0, #8]
    6cf0:	11000401 	add	w1, w0, #0x1
    6cf4:	f8004000 	stur	x0, [x0, #4]
    6cf8:	d4200500 	brk	#0x28
    6cfc:	d4200500 	brk	#0x28
    6d00:	528000e2 	mov	w2, #0x7                   	// #7
    6d04:	72a00002 	movk	w2, #0x0, lsl #16
    6d08:	d42000e0 	brk	#0x7
    6d0c:	52800242 	mov	w2, #0x12                  	// #18
    6d10:	72a00002 	movk	w2, #0x0, lsl #16
    6d14:	d42001c0 	brk	#0xe
    6d18:	d4200500 	brk	#0x28
    6d1c:	d4200500 	brk	#0x28
    6d20:	52800243 	mov	w3, #0x12                  	// #18
    6d24:	72a00003 	movk	w3, #0x0, lsl #16
    6d28:	d42001c0 	brk	#0xe
    6d2c:	d4200500 	brk	#0x28
    6d30:	d4200500 	brk	#0x28
    6d34:	d4200100 	brk	#0x8
    6d38:	528000e4 	mov	w4, #0x7                   	// #7
    6d3c:	72a00004 	movk	w4, #0x0, lsl #16
    6d40:	d4200100 	brk	#0x8
    6d44:	52800244 	mov	w4, #0x12                  	// #18
    6d48:	72a00004 	movk	w4, #0x0, lsl #16
    6d4c:	d42001c0 	brk	#0xe
    6d50:	f81f83a0 	stur	x0, [x29, #-8]
    6d54:	b81e43a1 	stur	w1, [x29, #-28]
    6d58:	b81e03a2 	stur	w2, [x29, #-32]
    6d5c:	b81bc3a3 	stur	w3, [x29, #-68]
    6d60:	b819c3a4 	stur	w4, [x29, #-100]
    6d64:	f85d83a0 	ldur	x0, [x29, #-40]
    6d68:	b85e43a1 	ldur	w1, [x29, #-28]
    6d6c:	f85c83a2 	ldur	x2, [x29, #-56]
    6d70:	b85e03a3 	ldur	w3, [x29, #-32]
    6d74:	b85a03a4 	ldur	w4, [x29, #-96]
    6d78:	d2906d91 	mov	x17, #0x836c                	// #33644
    6d7c:	f2a031b1 	movk	x17, #0x18d, lsl #16
    6d80:	f2c00ab1 	movk	x17, #0x55, lsl #32
    6d84:	f2e00011 	movk	x17, #0x0, lsl #48
    6d88:	d63f0220 	blr	x17
    6d8c:	d4200500 	brk	#0x28
    6d90:	52800240 	mov	w0, #0x12                  	// #18
    6d94:	72a00000 	movk	w0, #0x0, lsl #16
    6d98:	d42001c0 	brk	#0xe
    6d9c:	d4200a00 	brk	#0x50
    6da0:	9101c3ff 	add	sp, sp, #0x70
    6da4:	a8c17bfd 	ldp	x29, x30, [sp], #16
    6da8:	d65f03c0 	ret
    6dac:	d503201f 	nop
    6db0:	a9bf7bfd 	stp	x29, x30, [sp, #-16]!
    6db4:	910003fd 	mov	x29, sp
    6db8:	d100c3ff 	sub	sp, sp, #0x30
    6dbc:	aa1f03e2 	mov	x2, xzr
    6dc0:	f81f83a0 	stur	x0, [x29, #-8]
    6dc4:	fc1f03a1 	stur	d1, [x29, #-16]
    6dc8:	f81e03a2 	stur	x2, [x29, #-32]
    6dcc:	f85f83a0 	ldur	x0, [x29, #-8]
    6dd0:	fc5f03a0 	ldur	d0, [x29, #-16]
    6dd4:	f85e03a1 	ldur	x1, [x29, #-32]
    6dd8:	9400004e 	bl	0x6f10
    6ddc:	52800201 	mov	w1, #0x10                  	// #16
    6de0:	72a00001 	movk	w1, #0x0, lsl #16
    6de4:	6b00003f 	cmp	w1, w0
    6de8:	54000041 	b.ne	0x6df0  // b.any
    6dec:	110003e2 	mov	w2, wsp
    6df0:	14000001 	b	0x6df4
    6df4:	110007e2 	add	w2, wsp, #0x1
    6df8:	9100c3ff 	add	sp, sp, #0x30
    6dfc:	a8c17bfd 	ldp	x29, x30, [sp], #16
    6e00:	d65f03c0 	ret
    6e04:	d503201f 	nop
    6e08:	d503201f 	nop
    6e0c:	d503201f 	nop
    6e10:	a9bf7bfd 	stp	x29, x30, [sp, #-16]!
    6e14:	910003fd 	mov	x29, sp
    6e18:	d101c3ff 	sub	sp, sp, #0x70
    6e1c:	aa1f03e2 	mov	x2, xzr
    6e20:	f81f83a0 	stur	x0, [x29, #-8]
    6e24:	fc1f03a1 	stur	d1, [x29, #-16]
    6e28:	f81e03a2 	stur	x2, [x29, #-32]
    6e2c:	f85f83a0 	ldur	x0, [x29, #-8]
    6e30:	fc5f03a0 	ldur	d0, [x29, #-16]
    6e34:	f85e03a1 	ldur	x1, [x29, #-32]
    6e38:	94000036 	bl	0x6f10
    6e3c:	52800001 	mov	w1, #0x0                   	// #0
    6e40:	72a00001 	movk	w1, #0x0, lsl #16
    6e44:	6b00003f 	cmp	w1, w0
    6e48:	5400008a 	b.ge	0x6e58  // b.tcont
    6e4c:	110003e2 	mov	w2, wsp
    6e50:	9101c3ff 	add	sp, sp, #0x70
    6e54:	a8c17bfd 	ldp	x29, x30, [sp], #16
    6e58:	d65f03c0 	ret
    6e5c:	f85f83a3 	ldur	x3, [x29, #-8]
    6e60:	f8408064 	ldur	x4, [x3, #8]
    6e64:	51000464 	sub	w4, w3, #0x1
    6e68:	f8000063 	stur	x3, [x3]
    6e6c:	d4200500 	brk	#0x28
    6e70:	d4200500 	brk	#0x28
    6e74:	52800241 	mov	w1, #0x12                  	// #18
    6e78:	72a00001 	movk	w1, #0x0, lsl #16
    6e7c:	d42001c0 	brk	#0xe
    6e80:	d4200500 	brk	#0x28
    6e84:	d4200500 	brk	#0x28
    6e88:	528000e5 	mov	w5, #0x7                   	// #7
    6e8c:	72a00005 	movk	w5, #0x0, lsl #16
    6e90:	d42000e0 	brk	#0x7
    6e94:	52800245 	mov	w5, #0x12                  	// #18
    6e98:	72a00005 	movk	w5, #0x0, lsl #16
    6e9c:	d42001c0 	brk	#0xe
    6ea0:	d4200500 	brk	#0x28
    6ea4:	d4200500 	brk	#0x28
    6ea8:	d4200100 	brk	#0x8
    6eac:	52800246 	mov	w6, #0x12                  	// #18
    6eb0:	72a00006 	movk	w6, #0x0, lsl #16
    6eb4:	d42001c0 	brk	#0xe
    6eb8:	b81ec3a0 	stur	w0, [x29, #-20]
    6ebc:	b81d83a1 	stur	w1, [x29, #-40]
    6ec0:	381d73a2 	sturb	w2, [x29, #-41]
    6ec4:	f81f83a3 	stur	x3, [x29, #-8]
    6ec8:	b81dc3a4 	stur	w4, [x29, #-36]
    6ecc:	b81ac3a5 	stur	w5, [x29, #-84]
    6ed0:	b81983a6 	stur	w6, [x29, #-104]
    6ed4:	f85c83a0 	ldur	x0, [x29, #-56]
    6ed8:	b85dc3a1 	ldur	w1, [x29, #-36]
    6edc:	f85b83a2 	ldur	x2, [x29, #-72]
    6ee0:	b85d83a3 	ldur	w3, [x29, #-40]
    6ee4:	b859c3a4 	ldur	w4, [x29, #-100]
    6ee8:	d2906d91 	mov	x17, #0x836c                	// #33644
    6eec:	f2a031b1 	movk	x17, #0x18d, lsl #16
    6ef0:	f2c00ab1 	movk	x17, #0x55, lsl #32
    6ef4:	f2e00011 	movk	x17, #0x0, lsl #48
    6ef8:	d63f0220 	blr	x17
    6efc:	110007e0 	add	w0, wsp, #0x1
    6f00:	9101c3ff 	add	sp, sp, #0x70
    6f04:	a8c17bfd 	ldp	x29, x30, [sp], #16
    6f08:	d65f03c0 	ret
    6f0c:	d503201f 	nop
    6f10:	a9bf7bfd 	stp	x29, x30, [sp, #-16]!
    6f14:	910003fd 	mov	x29, sp
    6f18:	d10103ff 	sub	sp, sp, #0x40
    6f1c:	7100005f 	cmp	w2, #0x0
    6f20:	54000061 	b.ne	0x6f2c  // b.any
    6f24:	52800003 	mov	w3, #0x0                   	// #0
    6f28:	72a00003 	movk	w3, #0x0, lsl #16
    6f2c:	14000012 	b	0x6f74
    6f30:	f81f83a0 	stur	x0, [x29, #-8]
    6f34:	fc1f03a1 	stur	d1, [x29, #-16]
    6f38:	f81e83a2 	stur	x2, [x29, #-24]
    6f3c:	b81e43a3 	stur	w3, [x29, #-28]
    6f40:	d13fa3e0 	sub	x0, sp, #0xfe8
    6f44:	d2876101 	mov	x1, #0x3b08                	// #15112
    6f48:	f2a000c1 	movk	x1, #0x6, lsl #16
    6f4c:	f2c00aa1 	movk	x1, #0x55, lsl #32
    6f50:	f2e00001 	movk	x1, #0x0, lsl #48
    6f54:	d2851102 	mov	x2, #0x2888                	// #10376
    6f58:	f2a000c2 	movk	x2, #0x6, lsl #16
    6f5c:	f2c00aa2 	movk	x2, #0x55, lsl #32
    6f60:	f2e00002 	movk	x2, #0x0, lsl #48
    6f64:	d293ee91 	mov	x17, #0x9f74                	// #40820
    6f68:	f2a031b1 	movk	x17, #0x18d, lsl #16
    6f6c:	f2c00ab1 	movk	x17, #0x55, lsl #32
    6f70:	f2e00011 	movk	x17, #0x0, lsl #48
    6f74:	d63f0220 	blr	x17
    6f78:	52800000 	mov	w0, #0x0                   	// #0
    6f7c:	72a00000 	movk	w0, #0x0, lsl #16
    6f80:	b85e43a1 	ldur	w1, [x29, #-28]
    6f84:	6b01001f 	cmp	w0, w1
    6f88:	5400016a 	b.ge	0x6fb4  // b.tcont
    6f8c:	d4200500 	brk	#0x28
    6f90:	d42000e0 	brk	#0x7
    6f94:	b85e03a2 	ldur	w2, [x29, #-32]
    6f98:	2a0203e1 	mov	w1, w2
    6f9c:	52800000 	mov	w0, #0x0                   	// #0
    6fa0:	72a00000 	movk	w0, #0x0, lsl #16
    6fa4:	6b02001f 	cmp	w0, w2
    6fa8:	5400006a 	b.ge	0x6fb4  // b.tcont
    6fac:	52800002 	mov	w2, #0x0                   	// #0
    6fb0:	72a00002 	movk	w2, #0x0, lsl #16
    6fb4:	2a0203e1 	mov	w1, w2
    6fb8:	2a0103e2 	mov	w2, w1
    6fbc:	d4200500 	brk	#0x28
    6fc0:	6b02001f 	cmp	w0, w2
    6fc4:	5400020a 	b.ge	0x7004  // b.tcont
    6fc8:	b81d83a2 	stur	w2, [x29, #-40]
    6fcc:	f85f83a3 	ldur	x3, [x29, #-8]
    6fd0:	11000462 	add	w2, w3, #0x1
    6fd4:	d4200500 	brk	#0x28
    6fd8:	52800244 	mov	w4, #0x12                  	// #18
    6fdc:	72a00004 	movk	w4, #0x0, lsl #16
    6fe0:	d42001c0 	brk	#0xe
    6fe4:	d4200980 	brk	#0x4c
    6fe8:	fc5c83a0 	ldur	d0, [x29, #-56]
    6fec:	fc5f03a1 	ldur	d1, [x29, #-16]
    6ff0:	6b00003f 	cmp	w1, w0
    6ff4:	54000061 	b.ne	0x7000  // b.any
    6ff8:	910103ff 	add	sp, sp, #0x40
    6ffc:	a8c17bfd 	ldp	x29, x30, [sp], #16
    7000:	d65f03c0 	ret
    7004:	17ffffee 	b	0x6fbc
    7008:	52800202 	mov	w2, #0x10                  	// #16
    700c:	72a00002 	movk	w2, #0x0, lsl #16
    7010:	910103ff 	add	sp, sp, #0x40
    7014:	a8c17bfd 	ldp	x29, x30, [sp], #16
    7018:	d65f03c0 	ret
    701c:	d503201f 	nop
    7020:	a9bf7bfd 	stp	x29, x30, [sp, #-16]!
    7024:	910003fd 	mov	x29, sp
    7028:	d10103ff 	sub	sp, sp, #0x40
    702c:	d4200500 	brk	#0x28
    7030:	7100005f 	cmp	w2, #0x0
    7034:	54000240 	b.eq	0x707c  // b.none
    7038:	f81f83a0 	stur	x0, [x29, #-8]
    703c:	fc1f03a1 	stur	d1, [x29, #-16]
    7040:	f81e83a2 	stur	x2, [x29, #-24]
    7044:	d13fa3e0 	sub	x0, sp, #0xfe8
    7048:	d2876101 	mov	x1, #0x3b08                	// #15112
    704c:	f2a000c1 	movk	x1, #0x6, lsl #16
    7050:	f2c00aa1 	movk	x1, #0x55, lsl #32
    7054:	f2e00001 	movk	x1, #0x0, lsl #48
    7058:	d2851102 	mov	x2, #0x2888                	// #10376
    705c:	f2a000c2 	movk	x2, #0x6, lsl #16
    7060:	f2c00aa2 	movk	x2, #0x55, lsl #32
    7064:	f2e00002 	movk	x2, #0x0, lsl #48
    7068:	d293ee91 	mov	x17, #0x9f74                	// #40820
    706c:	f2a031b1 	movk	x17, #0x18d, lsl #16
    7070:	f2c00ab1 	movk	x17, #0x55, lsl #32
    7074:	f2e00011 	movk	x17, #0x0, lsl #48
    7078:	d63f0220 	blr	x17
    707c:	14000003 	b	0x7088
    7080:	528000e0 	mov	w0, #0x7                   	// #7
    7084:	72a00000 	movk	w0, #0x0, lsl #16
    7088:	d4200100 	brk	#0x8
    708c:	b85e03a1 	ldur	w1, [x29, #-32]
    7090:	b85e43a2 	ldur	w2, [x29, #-28]
    7094:	6b01005f 	cmp	w2, w1
    7098:	540000ab 	b.lt	0x70ac  // b.tstop
    709c:	528000e3 	mov	w3, #0x7                   	// #7
    70a0:	72a00003 	movk	w3, #0x0, lsl #16
    70a4:	d4200100 	brk	#0x8
    70a8:	2a0003e1 	mov	w1, w0
    70ac:	14000006 	b	0x70c4
    70b0:	52800003 	mov	w3, #0x0                   	// #0
    70b4:	72a00003 	movk	w3, #0x0, lsl #16
    70b8:	6b01007f 	cmp	w3, w1
    70bc:	5400004a 	b.ge	0x70c4  // b.tcont
    70c0:	d42000e0 	brk	#0x7
    70c4:	2a0003e1 	mov	w1, w0
    70c8:	52800003 	mov	w3, #0x0                   	// #0
    70cc:	72a00003 	movk	w3, #0x0, lsl #16
    70d0:	6b01007f 	cmp	w3, w1
    70d4:	540001eb 	b.lt	0x7110  // b.tstop
    70d8:	d4200500 	brk	#0x28
    70dc:	52800243 	mov	w3, #0x12                  	// #18
    70e0:	72a00003 	movk	w3, #0x0, lsl #16
    70e4:	d42001c0 	brk	#0xe
    70e8:	d4200980 	brk	#0x4c
    70ec:	fc5c83a0 	ldur	d0, [x29, #-56]
    70f0:	fc5f03a1 	ldur	d1, [x29, #-16]
    70f4:	6b00003f 	cmp	w1, w0
    70f8:	54000061 	b.ne	0x7104  // b.any
    70fc:	910103ff 	add	sp, sp, #0x40
    7100:	a8c17bfd 	ldp	x29, x30, [sp], #16
    7104:	d65f03c0 	ret
    7108:	f85f83a4 	ldur	x4, [x29, #-8]
    710c:	51000481 	sub	w1, w4, #0x1
    7110:	17ffffed 	b	0x70c4
    7114:	52800200 	mov	w0, #0x10                  	// #16
    7118:	72a00000 	movk	w0, #0x0, lsl #16
    711c:	910103ff 	add	sp, sp, #0x40
    7120:	a8c17bfd 	ldp	x29, x30, [sp], #16
    7124:	d65f03c0 	ret
    7128:	d503201f 	nop
    712c:	d503201f 	nop
    7130:	a9bf7bfd 	stp	x29, x30, [sp, #-16]!
    7134:	910003fd 	mov	x29, sp
    7138:	d10143ff 	sub	sp, sp, #0x50
    713c:	f81f83a0 	stur	x0, [x29, #-8]
    7140:	d2858d00 	mov	x0, #0x2c68                	// #11368
    7144:	f2a000c0 	movk	x0, #0x6, lsl #16
    7148:	f2c00aa0 	movk	x0, #0x55, lsl #32
    714c:	f2e00000 	movk	x0, #0x0, lsl #48
    7150:	d287fa11 	mov	x17, #0x3fd0                	// #16336
    7154:	f2a031b1 	movk	x17, #0x18d, lsl #16
    7158:	f2c00ab1 	movk	x17, #0x55, lsl #32
    715c:	f2e00011 	movk	x17, #0x0, lsl #48
    7160:	d63f0220 	blr	x17
    7164:	f81f03a0 	stur	x0, [x29, #-16]
    7168:	f85f03a0 	ldur	x0, [x29, #-16]
    716c:	97fffad5 	bl	0x5cc0
    7170:	d4200500 	brk	#0x28
    7174:	f85f03a1 	ldur	x1, [x29, #-16]
    7178:	f85f83a2 	ldur	x2, [x29, #-8]
    717c:	f8000041 	stur	x1, [x2]
    7180:	d4200500 	brk	#0x28
    7184:	d4200500 	brk	#0x28
    7188:	52800243 	mov	w3, #0x12                  	// #18
    718c:	72a00003 	movk	w3, #0x0, lsl #16
    7190:	d42001c0 	brk	#0xe
    7194:	f81f03a1 	stur	x1, [x29, #-16]
    7198:	f81f83a2 	stur	x2, [x29, #-8]
    719c:	b81d43a3 	stur	w3, [x29, #-44]
    71a0:	b85ec3a0 	ldur	w0, [x29, #-20]
    71a4:	d2905f91 	mov	x17, #0x82fc                	// #33532
    71a8:	f2a031b1 	movk	x17, #0x18d, lsl #16
    71ac:	f2c00ab1 	movk	x17, #0x55, lsl #32
    71b0:	f2e00011 	movk	x17, #0x0, lsl #48
    71b4:	d63f0220 	blr	x17
    71b8:	f85f03a1 	ldur	x1, [x29, #-16]
    71bc:	f8000021 	stur	x1, [x1]
    71c0:	d4200500 	brk	#0x28
    71c4:	f8410022 	ldur	x2, [x1, #16]
    71c8:	52800003 	mov	w3, #0x0                   	// #0
    71cc:	72a00003 	movk	w3, #0x0, lsl #16
    71d0:	d4200500 	brk	#0x28
    71d4:	52800004 	mov	w4, #0x0                   	// #0
    71d8:	72a00004 	movk	w4, #0x0, lsl #16
    71dc:	d4200500 	brk	#0x28
    71e0:	52800245 	mov	w5, #0x12                  	// #18
    71e4:	72a00005 	movk	w5, #0x0, lsl #16
    71e8:	d42001c0 	brk	#0xe
    71ec:	f81d83a0 	stur	x0, [x29, #-40]
    71f0:	f81f03a1 	stur	x1, [x29, #-16]
    71f4:	f81c03a2 	stur	x2, [x29, #-64]
    71f8:	b81ec3a3 	stur	w3, [x29, #-20]
    71fc:	b81d43a4 	stur	w4, [x29, #-44]
    7200:	b81b03a5 	stur	w5, [x29, #-80]
    7204:	f85c03a0 	ldur	x0, [x29, #-64]
    7208:	b85ec3a1 	ldur	w1, [x29, #-20]
    720c:	f85b83a2 	ldur	x2, [x29, #-72]
    7210:	b85d43a3 	ldur	w3, [x29, #-44]
    7214:	b85b43a4 	ldur	w4, [x29, #-76]
    7218:	d2906d91 	mov	x17, #0x836c                	// #33644
    721c:	f2a031b1 	movk	x17, #0x18d, lsl #16
    7220:	f2c00ab1 	movk	x17, #0x55, lsl #32
    7224:	f2e00011 	movk	x17, #0x0, lsl #48
    7228:	d63f0220 	blr	x17
    722c:	910143ff 	add	sp, sp, #0x50
    7230:	a8c17bfd 	ldp	x29, x30, [sp], #16
    7234:	d65f03c0 	ret
    7238:	d503201f 	nop
    723c:	d503201f 	nop
    7240:	a9bf7bfd 	stp	x29, x30, [sp, #-16]!
    7244:	910003fd 	mov	x29, sp
    7248:	d10043ff 	sub	sp, sp, #0x10
    724c:	f81f83a0 	stur	x0, [x29, #-8]
    7250:	d288a100 	mov	x0, #0x4508                	// #17672
    7254:	f2a000c0 	movk	x0, #0x6, lsl #16
    7258:	f2c00aa0 	movk	x0, #0x55, lsl #32
    725c:	f2e00000 	movk	x0, #0x0, lsl #48
    7260:	d287fa11 	mov	x17, #0x3fd0                	// #16336
    7264:	f2a031b1 	movk	x17, #0x18d, lsl #16
    7268:	f2c00ab1 	movk	x17, #0x55, lsl #32
    726c:	f2e00011 	movk	x17, #0x0, lsl #48
    7270:	d63f0220 	blr	x17
    7274:	f81f03a0 	stur	x0, [x29, #-16]
    7278:	f85f03a0 	ldur	x0, [x29, #-16]
    727c:	f85f83a1 	ldur	x1, [x29, #-8]
    7280:	940000bc 	bl	0x7570
    7284:	910043ff 	add	sp, sp, #0x10
    7288:	a8c17bfd 	ldp	x29, x30, [sp], #16
    728c:	d65f03c0 	ret
    7290:	a9bf7bfd 	stp	x29, x30, [sp, #-16]!
    7294:	910003fd 	mov	x29, sp
    7298:	d10043ff 	sub	sp, sp, #0x10
    729c:	f81f83a0 	stur	x0, [x29, #-8]
    72a0:	d288a900 	mov	x0, #0x4548                	// #17736
    72a4:	f2a000c0 	movk	x0, #0x6, lsl #16
    72a8:	f2c00aa0 	movk	x0, #0x55, lsl #32
    72ac:	f2e00000 	movk	x0, #0x0, lsl #48
    72b0:	d287fa11 	mov	x17, #0x3fd0                	// #16336
    72b4:	f2a031b1 	movk	x17, #0x18d, lsl #16
    72b8:	f2c00ab1 	movk	x17, #0x55, lsl #32
    72bc:	f2e00011 	movk	x17, #0x0, lsl #48
    72c0:	d63f0220 	blr	x17
    72c4:	f81f03a0 	stur	x0, [x29, #-16]
    72c8:	f85f03a0 	ldur	x0, [x29, #-16]
    72cc:	f85f83a1 	ldur	x1, [x29, #-8]
    72d0:	94000008 	bl	0x72f0
    72d4:	910043ff 	add	sp, sp, #0x10
    72d8:	a8c17bfd 	ldp	x29, x30, [sp], #16
    72dc:	d65f03c0 	ret
    72e0:	a9bf7bfd 	stp	x29, x30, [sp, #-16]!
    72e4:	910003fd 	mov	x29, sp
    72e8:	d101c3ff 	sub	sp, sp, #0x70
    72ec:	f81f83a0 	stur	x0, [x29, #-8]
    72f0:	f81f03a1 	stur	x1, [x29, #-16]
    72f4:	d285e900 	mov	x0, #0x2f48                	// #12104
    72f8:	f2a000c0 	movk	x0, #0x6, lsl #16
    72fc:	f2c00aa0 	movk	x0, #0x55, lsl #32
    7300:	f2e00000 	movk	x0, #0x0, lsl #48
    7304:	d287fa11 	mov	x17, #0x3fd0                	// #16336
    7308:	f2a031b1 	movk	x17, #0x18d, lsl #16
    730c:	f2c00ab1 	movk	x17, #0x55, lsl #32
    7310:	f2e00011 	movk	x17, #0x0, lsl #48
    7314:	d63f0220 	blr	x17
    7318:	f81e83a0 	stur	x0, [x29, #-24]
    731c:	f85e83a0 	ldur	x0, [x29, #-24]
    7320:	940000ec 	bl	0x76d0
    7324:	d4200500 	brk	#0x28
    7328:	52800000 	mov	w0, #0x0                   	// #0
    732c:	72a00000 	movk	w0, #0x0, lsl #16
    7330:	b85e43a1 	ldur	w1, [x29, #-28]
    7334:	6b00003f 	cmp	w1, w0
    7338:	5400012a 	b.ge	0x735c  // b.tcont
    733c:	d4200500 	brk	#0x28
    7340:	528000e0 	mov	w0, #0x7                   	// #7
    7344:	72a00000 	movk	w0, #0x0, lsl #16
    7348:	d4200100 	brk	#0x8
    734c:	b81e03a0 	stur	w0, [x29, #-32]
    7350:	b81e43a1 	stur	w1, [x29, #-28]
    7354:	f85e83a0 	ldur	x0, [x29, #-24]
    7358:	b85e43a1 	ldur	w1, [x29, #-28]
    735c:	9400008d 	bl	0x7590
    7360:	52800000 	mov	w0, #0x0                   	// #0
    7364:	72a00000 	movk	w0, #0x0, lsl #16
    7368:	d4200500 	brk	#0x28
    736c:	b85e03a1 	ldur	w1, [x29, #-32]
    7370:	6b00003f 	cmp	w1, w0
    7374:	5400048a 	b.ge	0x7404  // b.tcont
    7378:	b81dc3a0 	stur	w0, [x29, #-36]
    737c:	f85f83a2 	ldur	x2, [x29, #-8]
    7380:	11000440 	add	w0, w2, #0x1
    7384:	f85e83a3 	ldur	x3, [x29, #-24]
    7388:	7100007f 	cmp	w3, #0x0
    738c:	54000501 	b.ne	0x742c  // b.any
    7390:	b81e43a0 	stur	w0, [x29, #-28]
    7394:	b81e03a1 	stur	w1, [x29, #-32]
    7398:	f81f83a2 	stur	x2, [x29, #-8]
    739c:	f81e83a3 	stur	x3, [x29, #-24]
    73a0:	d298b091 	mov	x17, #0xc584                	// #50564
    73a4:	f2a031b1 	movk	x17, #0x18d, lsl #16
    73a8:	f2c00ab1 	movk	x17, #0x55, lsl #32
    73ac:	f2e00011 	movk	x17, #0x0, lsl #48
    73b0:	d63f0220 	blr	x17
    73b4:	f85e83a0 	ldur	x0, [x29, #-24]
    73b8:	f8410001 	ldur	x1, [x0, #16]
    73bc:	d4200500 	brk	#0x28
    73c0:	f85f03a2 	ldur	x2, [x29, #-16]
    73c4:	7100005f 	cmp	w2, #0x0
    73c8:	54000481 	b.ne	0x7458  // b.any
    73cc:	f81e83a0 	stur	x0, [x29, #-24]
    73d0:	f81d03a1 	stur	x1, [x29, #-48]
    73d4:	f81f03a2 	stur	x2, [x29, #-16]
    73d8:	d298b091 	mov	x17, #0xc584                	// #50564
    73dc:	f2a031b1 	movk	x17, #0x18d, lsl #16
    73e0:	f2c00ab1 	movk	x17, #0x55, lsl #32
    73e4:	f2e00011 	movk	x17, #0x0, lsl #48
    73e8:	d63f0220 	blr	x17
    73ec:	52800240 	mov	w0, #0x12                  	// #18
    73f0:	72a00000 	movk	w0, #0x0, lsl #16
    73f4:	d42001c0 	brk	#0xe
    73f8:	d4200980 	brk	#0x4c
    73fc:	d4200400 	brk	#0x20
    7400:	d4200a20 	brk	#0x51
    7404:	17ffffd9 	b	0x7368
    7408:	110007e1 	add	w1, wsp, #0x1
    740c:	d4200ae0 	brk	#0x57
    7410:	b81b43a0 	stur	w0, [x29, #-76]
    7414:	381a73a1 	sturb	w1, [x29, #-89]
    7418:	f85e83a0 	ldur	x0, [x29, #-24]
    741c:	f85983a1 	ldur	x1, [x29, #-104]
    7420:	940000d0 	bl	0x7760
    7424:	9101c3ff 	add	sp, sp, #0x70
    7428:	a8c17bfd 	ldp	x29, x30, [sp], #16
    742c:	d65f03c0 	ret
    7430:	a9bf7bfd 	stp	x29, x30, [sp, #-16]!
    7434:	910003fd 	mov	x29, sp
    7438:	d10103ff 	sub	sp, sp, #0x40
    743c:	f81f83a0 	stur	x0, [x29, #-8]
    7440:	f81f03a1 	stur	x1, [x29, #-16]
    7444:	d2858d00 	mov	x0, #0x2c68                	// #11368
    7448:	f2a000c0 	movk	x0, #0x6, lsl #16
    744c:	f2c00aa0 	movk	x0, #0x55, lsl #32
    7450:	f2e00000 	movk	x0, #0x0, lsl #48
    7454:	d287fa11 	mov	x17, #0x3fd0                	// #16336
    7458:	f2a031b1 	movk	x17, #0x18d, lsl #16
    745c:	f2c00ab1 	movk	x17, #0x55, lsl #32
    7460:	f2e00011 	movk	x17, #0x0, lsl #48
    7464:	d63f0220 	blr	x17
    7468:	f81e83a0 	stur	x0, [x29, #-24]
    746c:	f85e83a0 	ldur	x0, [x29, #-24]
    7470:	97fffa14 	bl	0x5cc0
    7474:	52800000 	mov	w0, #0x0                   	// #0
    7478:	72a00000 	movk	w0, #0x0, lsl #16
    747c:	d4200500 	brk	#0x28
    7480:	b85e03a1 	ldur	w1, [x29, #-32]
    7484:	6b00003f 	cmp	w1, w0
    7488:	540004ea 	b.ge	0x7524  // b.tcont
    748c:	b81dc3a0 	stur	w0, [x29, #-36]
    7490:	f85f83a2 	ldur	x2, [x29, #-8]
    7494:	11000440 	add	w0, w2, #0x1
    7498:	d4200500 	brk	#0x28
    749c:	52800243 	mov	w3, #0x12                  	// #18
    74a0:	72a00003 	movk	w3, #0x0, lsl #16
    74a4:	d42001c0 	brk	#0xe
    74a8:	d4200980 	brk	#0x4c
    74ac:	f85f03a4 	ldur	x4, [x29, #-16]
    74b0:	7100009f 	cmp	w4, #0x0
    74b4:	54000581 	b.ne	0x7564  // b.any
    74b8:	b81e43a0 	stur	w0, [x29, #-28]
    74bc:	b81e03a1 	stur	w1, [x29, #-32]
    74c0:	f81f83a2 	stur	x2, [x29, #-8]
    74c4:	b81c43a3 	stur	w3, [x29, #-60]
    74c8:	f81f03a4 	stur	x4, [x29, #-16]
    74cc:	d298b091 	mov	x17, #0xc584                	// #50564
    74d0:	f2a031b1 	movk	x17, #0x18d, lsl #16
    74d4:	f2c00ab1 	movk	x17, #0x55, lsl #32
    74d8:	f2e00011 	movk	x17, #0x0, lsl #48
    74dc:	d63f0220 	blr	x17
    74e0:	d4200400 	brk	#0x20
    74e4:	385c33a0 	ldurb	w0, [x29, #-61]
    74e8:	7100001f 	cmp	w0, #0x0
    74ec:	540001a0 	b.eq	0x7520  // b.none
    74f0:	f85e83a1 	ldur	x1, [x29, #-24]
    74f4:	7100003f 	cmp	w1, #0x0
    74f8:	54000401 	b.ne	0x7578  // b.any
    74fc:	381c33a0 	sturb	w0, [x29, #-61]
    7500:	f81e83a1 	stur	x1, [x29, #-24]
    7504:	d298b091 	mov	x17, #0xc584                	// #50564
    7508:	f2a031b1 	movk	x17, #0x18d, lsl #16
    750c:	f2c00ab1 	movk	x17, #0x55, lsl #32
    7510:	f2e00011 	movk	x17, #0x0, lsl #48
    7514:	d63f0220 	blr	x17
    7518:	f85e83a0 	ldur	x0, [x29, #-24]
    751c:	fc5c83a0 	ldur	d0, [x29, #-56]
    7520:	97fffad4 	bl	0x6070
    7524:	17ffffd6 	b	0x747c
    7528:	910103ff 	add	sp, sp, #0x40
    752c:	a8c17bfd 	ldp	x29, x30, [sp], #16
    7530:	d65f03c0 	ret
    7534:	d503201f 	nop
    7538:	d503201f 	nop
    753c:	d503201f 	nop
    7540:	a9bf7bfd 	stp	x29, x30, [sp, #-16]!
    7544:	910003fd 	mov	x29, sp
    7548:	d10103ff 	sub	sp, sp, #0x40
    754c:	d4200500 	brk	#0x28
    7550:	b85f03a2 	ldur	w2, [x29, #-16]
    7554:	6b02003f 	cmp	w1, w2
    7558:	5400016a 	b.ge	0x7584  // b.tcont
    755c:	528000e3 	mov	w3, #0x7                   	// #7
    7560:	72a00003 	movk	w3, #0x0, lsl #16
    7564:	d4200100 	brk	#0x8
    7568:	f81f83a0 	stur	x0, [x29, #-8]
    756c:	b81f43a1 	stur	w1, [x29, #-12]
    7570:	b81f03a2 	stur	w2, [x29, #-16]
    7574:	b81ec3a3 	stur	w3, [x29, #-20]
    7578:	f85f83a0 	ldur	x0, [x29, #-8]
    757c:	b85f03a1 	ldur	w1, [x29, #-16]
    7580:	94000010 	bl	0x75c0
    7584:	14000020 	b	0x7604
    7588:	d4200500 	brk	#0x28
    758c:	b85f43a0 	ldur	w0, [x29, #-12]
    7590:	b85f03a1 	ldur	w1, [x29, #-16]
    7594:	6b00003f 	cmp	w1, w0
    7598:	5400036a 	b.ge	0x7604  // b.tcont
    759c:	d4200500 	brk	#0x28
    75a0:	d4200500 	brk	#0x28
    75a4:	52800242 	mov	w2, #0x12                  	// #18
    75a8:	72a00002 	movk	w2, #0x0, lsl #16
    75ac:	d42001c0 	brk	#0xe
    75b0:	d4200500 	brk	#0x28
    75b4:	d4200500 	brk	#0x28
    75b8:	d4200100 	brk	#0x8
    75bc:	52800243 	mov	w3, #0x12                  	// #18
    75c0:	72a00003 	movk	w3, #0x0, lsl #16
    75c4:	d42001c0 	brk	#0xe
    75c8:	52800003 	mov	w3, #0x0                   	// #0
    75cc:	72a00003 	movk	w3, #0x0, lsl #16
    75d0:	b81f43a0 	stur	w0, [x29, #-12]
    75d4:	b81f03a1 	stur	w1, [x29, #-16]
    75d8:	b81ec3a2 	stur	w2, [x29, #-20]
    75dc:	b81c83a3 	stur	w3, [x29, #-56]
    75e0:	f85e03a0 	ldur	x0, [x29, #-32]
    75e4:	b85f03a1 	ldur	w1, [x29, #-16]
    75e8:	b85cc3a2 	ldur	w2, [x29, #-52]
    75ec:	b85c83a3 	ldur	w3, [x29, #-56]
    75f0:	d290ff91 	mov	x17, #0x87fc                	// #34812
    75f4:	f2a031b1 	movk	x17, #0x18d, lsl #16
    75f8:	f2c00ab1 	movk	x17, #0x55, lsl #32
    75fc:	f2e00011 	movk	x17, #0x0, lsl #48
    7600:	d63f0220 	blr	x17
    7604:	d4200520 	brk	#0x29
    7608:	910103ff 	add	sp, sp, #0x40
    760c:	a8c17bfd 	ldp	x29, x30, [sp], #16
    7610:	d65f03c0 	ret
    7614:	d503201f 	nop
    7618:	d503201f 	nop
    761c:	d503201f 	nop
    7620:	a9bf7bfd 	stp	x29, x30, [sp, #-16]!
    7624:	910003fd 	mov	x29, sp
    7628:	d100c3ff 	sub	sp, sp, #0x30
    762c:	d4200500 	brk	#0x28
    7630:	b85f03a2 	ldur	w2, [x29, #-16]
    7634:	6b01005f 	cmp	w2, w1
    7638:	540000ab 	b.lt	0x764c  // b.tstop
    763c:	d4200500 	brk	#0x28
    7640:	d4200760 	brk	#0x3b
    7644:	9100c3ff 	add	sp, sp, #0x30
    7648:	a8c17bfd 	ldp	x29, x30, [sp], #16
    764c:	d65f03c0 	ret
    7650:	d4200500 	brk	#0x28
    7654:	52800242 	mov	w2, #0x12                  	// #18
    7658:	72a00002 	movk	w2, #0x0, lsl #16
    765c:	d42001c0 	brk	#0xe
    7660:	d4200980 	brk	#0x4c
    7664:	d4200760 	brk	#0x3b
    7668:	9100c3ff 	add	sp, sp, #0x30
    766c:	a8c17bfd 	ldp	x29, x30, [sp], #16
    7670:	d65f03c0 	ret
    7674:	d503201f 	nop
    7678:	d503201f 	nop
    767c:	d503201f 	nop
    7680:	a9bf7bfd 	stp	x29, x30, [sp, #-16]!
    7684:	910003fd 	mov	x29, sp
    7688:	d100c3ff 	sub	sp, sp, #0x30
    768c:	d4200500 	brk	#0x28
    7690:	b85e43a3 	ldur	w3, [x29, #-28]
    7694:	6b01007f 	cmp	w3, w1
    7698:	540000eb 	b.lt	0x76b4  // b.tstop
    769c:	f81f83a0 	stur	x0, [x29, #-8]
    76a0:	b81f43a1 	stur	w1, [x29, #-12]
    76a4:	f81e83a2 	stur	x2, [x29, #-24]
    76a8:	b81e43a3 	stur	w3, [x29, #-28]
    76ac:	f85f83a0 	ldur	x0, [x29, #-8]
    76b0:	b85f43a1 	ldur	w1, [x29, #-12]
    76b4:	940000c3 	bl	0x79c0
    76b8:	d4200500 	brk	#0x28
    76bc:	d13fa3e0 	sub	x0, sp, #0xfe8
    76c0:	d2852901 	mov	x1, #0x2948                	// #10568
    76c4:	f2a000c1 	movk	x1, #0x6, lsl #16
    76c8:	f2c00aa1 	movk	x1, #0x55, lsl #32
    76cc:	f2e00001 	movk	x1, #0x0, lsl #48
    76d0:	d2952111 	mov	x17, #0xa908                	// #43272
    76d4:	f2a031b1 	movk	x17, #0x18d, lsl #16
    76d8:	f2c00ab1 	movk	x17, #0x55, lsl #32
    76dc:	f2e00011 	movk	x17, #0x0, lsl #48
    76e0:	d63f0220 	blr	x17
    76e4:	52800240 	mov	w0, #0x12                  	// #18
    76e8:	72a00000 	movk	w0, #0x0, lsl #16
    76ec:	d42001c0 	brk	#0xe
    76f0:	d4200a00 	brk	#0x50
    76f4:	9100c3ff 	add	sp, sp, #0x30
    76f8:	a8c17bfd 	ldp	x29, x30, [sp], #16
    76fc:	d65f03c0 	ret
    7700:	a9bf7bfd 	stp	x29, x30, [sp, #-16]!
    7704:	910003fd 	mov	x29, sp
    7708:	d10083ff 	sub	sp, sp, #0x20
    770c:	f81f83a0 	stur	x0, [x29, #-8]
    7710:	f81f03a1 	stur	x1, [x29, #-16]
    7714:	d13fc3e0 	sub	x0, sp, #0xff0
    7718:	d2852901 	mov	x1, #0x2948                	// #10568
    771c:	f2a000c1 	movk	x1, #0x6, lsl #16
    7720:	f2c00aa1 	movk	x1, #0x55, lsl #32
    7724:	f2e00001 	movk	x1, #0x0, lsl #48
    7728:	d2952111 	mov	x17, #0xa908                	// #43272
    772c:	f2a031b1 	movk	x17, #0x18d, lsl #16
    7730:	f2c00ab1 	movk	x17, #0x55, lsl #32
    7734:	f2e00011 	movk	x17, #0x0, lsl #48
    7738:	d63f0220 	blr	x17
    773c:	f85f83a0 	ldur	x0, [x29, #-8]
    7740:	fc5e03a0 	ldur	d0, [x29, #-32]
    7744:	97fffa4b 	bl	0x6070
    7748:	910083ff 	add	sp, sp, #0x20
    774c:	a8c17bfd 	ldp	x29, x30, [sp], #16
    7750:	d65f03c0 	ret
    7754:	d503201f 	nop
    7758:	d503201f 	nop
    775c:	d503201f 	nop
    7760:	a9bf7bfd 	stp	x29, x30, [sp, #-16]!
    7764:	910003fd 	mov	x29, sp
    7768:	d10043ff 	sub	sp, sp, #0x10
    776c:	f81f83a0 	stur	x0, [x29, #-8]
    7770:	f85f83a0 	ldur	x0, [x29, #-8]
    7774:	97fffa23 	bl	0x6000
    7778:	910043ff 	add	sp, sp, #0x10
    777c:	a8c17bfd 	ldp	x29, x30, [sp], #16
    7780:	d65f03c0 	ret
    7784:	d503201f 	nop
    7788:	d503201f 	nop
    778c:	d503201f 	nop
    7790:	a9bf7bfd 	stp	x29, x30, [sp, #-16]!
    7794:	910003fd 	mov	x29, sp
    7798:	d10043ff 	sub	sp, sp, #0x10
    779c:	f81f83a0 	stur	x0, [x29, #-8]
    77a0:	f85f83a0 	ldur	x0, [x29, #-8]
    77a4:	97fffa7f 	bl	0x61a0
    77a8:	910043ff 	add	sp, sp, #0x10
    77ac:	a8c17bfd 	ldp	x29, x30, [sp], #16
    77b0:	d65f03c0 	ret
    77b4:	d503201f 	nop
    77b8:	d503201f 	nop
    77bc:	d503201f 	nop
    77c0:	a9bf7bfd 	stp	x29, x30, [sp, #-16]!
    77c4:	910003fd 	mov	x29, sp
    77c8:	d10083ff 	sub	sp, sp, #0x20
    77cc:	f81f83a0 	stur	x0, [x29, #-8]
    77d0:	f81f03a1 	stur	x1, [x29, #-16]
    77d4:	d13fc3e0 	sub	x0, sp, #0xff0
    77d8:	d2852901 	mov	x1, #0x2948                	// #10568
    77dc:	f2a000c1 	movk	x1, #0x6, lsl #16
    77e0:	f2c00aa1 	movk	x1, #0x55, lsl #32
    77e4:	f2e00001 	movk	x1, #0x0, lsl #48
    77e8:	d2952111 	mov	x17, #0xa908                	// #43272
    77ec:	f2a031b1 	movk	x17, #0x18d, lsl #16
    77f0:	f2c00ab1 	movk	x17, #0x55, lsl #32
    77f4:	f2e00011 	movk	x17, #0x0, lsl #48
    77f8:	d63f0220 	blr	x17
    77fc:	f85f83a0 	ldur	x0, [x29, #-8]
    7800:	fc5e83a0 	ldur	d0, [x29, #-24]
    7804:	97fffccf 	bl	0x6b40
    7808:	910083ff 	add	sp, sp, #0x20
    780c:	a8c17bfd 	ldp	x29, x30, [sp], #16
    7810:	d65f03c0 	ret
    7814:	d503201f 	nop
    7818:	d503201f 	nop
    781c:	d503201f 	nop
    7820:	a9bf7bfd 	stp	x29, x30, [sp, #-16]!
    7824:	910003fd 	mov	x29, sp
    7828:	d10083ff 	sub	sp, sp, #0x20
    782c:	f81f83a0 	stur	x0, [x29, #-8]
    7830:	b81f43a1 	stur	w1, [x29, #-12]
    7834:	f81e83a2 	stur	x2, [x29, #-24]
    7838:	d13fa3e0 	sub	x0, sp, #0xfe8
    783c:	d2852901 	mov	x1, #0x2948                	// #10568
    7840:	f2a000c1 	movk	x1, #0x6, lsl #16
    7844:	f2c00aa1 	movk	x1, #0x55, lsl #32
    7848:	f2e00001 	movk	x1, #0x0, lsl #48
    784c:	d2952111 	mov	x17, #0xa908                	// #43272
    7850:	f2a031b1 	movk	x17, #0x18d, lsl #16
    7854:	f2c00ab1 	movk	x17, #0x55, lsl #32
    7858:	f2e00011 	movk	x17, #0x0, lsl #48
    785c:	d63f0220 	blr	x17
    7860:	f85f83a0 	ldur	x0, [x29, #-8]
    7864:	b85f43a1 	ldur	w1, [x29, #-12]
    7868:	fc5e03a0 	ldur	d0, [x29, #-32]
    786c:	97fffcf9 	bl	0x6c50
    7870:	910083ff 	add	sp, sp, #0x20
    7874:	a8c17bfd 	ldp	x29, x30, [sp], #16
    7878:	d65f03c0 	ret
    787c:	d503201f 	nop
    7880:	a9bf7bfd 	stp	x29, x30, [sp, #-16]!
    7884:	910003fd 	mov	x29, sp
    7888:	d10083ff 	sub	sp, sp, #0x20
    788c:	f81f83a0 	stur	x0, [x29, #-8]
    7890:	f81f03a1 	stur	x1, [x29, #-16]
    7894:	d13fc3e0 	sub	x0, sp, #0xff0
    7898:	d2852901 	mov	x1, #0x2948                	// #10568
    789c:	f2a000c1 	movk	x1, #0x6, lsl #16
    78a0:	f2c00aa1 	movk	x1, #0x55, lsl #32
    78a4:	f2e00001 	movk	x1, #0x0, lsl #48
    78a8:	d2952111 	mov	x17, #0xa908                	// #43272
    78ac:	f2a031b1 	movk	x17, #0x18d, lsl #16
    78b0:	f2c00ab1 	movk	x17, #0x55, lsl #32
    78b4:	f2e00011 	movk	x17, #0x0, lsl #48
    78b8:	d63f0220 	blr	x17
    78bc:	f85f83a0 	ldur	x0, [x29, #-8]
    78c0:	fc5e03a0 	ldur	d0, [x29, #-32]
    78c4:	97fffd3b 	bl	0x6db0
    78c8:	910083ff 	add	sp, sp, #0x20
    78cc:	a8c17bfd 	ldp	x29, x30, [sp], #16
    78d0:	d65f03c0 	ret
    78d4:	d503201f 	nop
    78d8:	d503201f 	nop
    78dc:	d503201f 	nop
    78e0:	a9bf7bfd 	stp	x29, x30, [sp, #-16]!
    78e4:	910003fd 	mov	x29, sp
    78e8:	d10083ff 	sub	sp, sp, #0x20
    78ec:	f81f83a0 	stur	x0, [x29, #-8]
    78f0:	f81f03a1 	stur	x1, [x29, #-16]
    78f4:	d13fc3e0 	sub	x0, sp, #0xff0
    78f8:	d2852901 	mov	x1, #0x2948                	// #10568
    78fc:	f2a000c1 	movk	x1, #0x6, lsl #16
    7900:	f2c00aa1 	movk	x1, #0x55, lsl #32
    7904:	f2e00001 	movk	x1, #0x0, lsl #48
    7908:	d2952111 	mov	x17, #0xa908                	// #43272
    790c:	f2a031b1 	movk	x17, #0x18d, lsl #16
    7910:	f2c00ab1 	movk	x17, #0x55, lsl #32
    7914:	f2e00011 	movk	x17, #0x0, lsl #48
    7918:	d63f0220 	blr	x17
    791c:	f85f83a0 	ldur	x0, [x29, #-8]
    7920:	fc5e03a0 	ldur	d0, [x29, #-32]
    7924:	97fffd3b 	bl	0x6e10
    7928:	910083ff 	add	sp, sp, #0x20
    792c:	a8c17bfd 	ldp	x29, x30, [sp], #16
    7930:	d65f03c0 	ret
    7934:	d503201f 	nop
    7938:	d503201f 	nop
    793c:	d503201f 	nop
    7940:	a9bf7bfd 	stp	x29, x30, [sp, #-16]!
    7944:	910003fd 	mov	x29, sp
    7948:	d100c3ff 	sub	sp, sp, #0x30
    794c:	d4200760 	brk	#0x3b
    7950:	d4200760 	brk	#0x3b
    7954:	d4200400 	brk	#0x20
    7958:	9100c3ff 	add	sp, sp, #0x30
    795c:	a8c17bfd 	ldp	x29, x30, [sp], #16
    7960:	d65f03c0 	ret
    7964:	d503201f 	nop
    7968:	d503201f 	nop
    796c:	d503201f 	nop
    7970:	a9bf7bfd 	stp	x29, x30, [sp, #-16]!
    7974:	910003fd 	mov	x29, sp
    7978:	d10083ff 	sub	sp, sp, #0x20
    797c:	7100003f 	cmp	w1, #0x0
    7980:	54000041 	b.ne	0x7988  // b.any
    7984:	aa1f03e2 	mov	x2, xzr
    7988:	14000001 	b	0x798c
    798c:	d4200440 	brk	#0x22
    7990:	f81f83a0 	stur	x0, [x29, #-8]
    7994:	f81f03a1 	stur	x1, [x29, #-16]
    7998:	f81e83a2 	stur	x2, [x29, #-24]
    799c:	f85f83a0 	ldur	x0, [x29, #-8]
    79a0:	f85e83a1 	ldur	x1, [x29, #-24]
    79a4:	97fffb27 	bl	0x6640
    79a8:	910083ff 	add	sp, sp, #0x20
    79ac:	a8c17bfd 	ldp	x29, x30, [sp], #16
    79b0:	d65f03c0 	ret
    79b4:	d503201f 	nop
    79b8:	d503201f 	nop
    79bc:	d503201f 	nop
    79c0:	a9bf7bfd 	stp	x29, x30, [sp, #-16]!
    79c4:	910003fd 	mov	x29, sp
    79c8:	d101c3ff 	sub	sp, sp, #0x70
    79cc:	52800002 	mov	w2, #0x0                   	// #0
    79d0:	72a00002 	movk	w2, #0x0, lsl #16
    79d4:	6b01005f 	cmp	w2, w1
    79d8:	540003ca 	b.ge	0x7a50  // b.tcont
    79dc:	d295b504 	mov	x4, #0xada8                	// #44456
    79e0:	f2a000c4 	movk	x4, #0x6, lsl #16
    79e4:	f2c00aa4 	movk	x4, #0x55, lsl #32
    79e8:	f2e00004 	movk	x4, #0x0, lsl #48
    79ec:	f8400083 	ldur	x3, [x4]
    79f0:	b81f03a1 	stur	w1, [x29, #-16]
    79f4:	d4200ae0 	brk	#0x57
    79f8:	f81f83a0 	stur	x0, [x29, #-8]
    79fc:	b81f43a1 	stur	w1, [x29, #-12]
    7a00:	b81ec3a2 	stur	w2, [x29, #-20]
    7a04:	f81d83a3 	stur	x3, [x29, #-40]
    7a08:	b85f03a0 	ldur	w0, [x29, #-16]
    7a0c:	f85d03a1 	ldur	x1, [x29, #-48]
    7a10:	d292a211 	mov	x17, #0x9510                	// #38160
    7a14:	f2a031d1 	movk	x17, #0x18e, lsl #16
    7a18:	f2c00ab1 	movk	x17, #0x55, lsl #32
    7a1c:	f2e00011 	movk	x17, #0x0, lsl #48
    7a20:	d63f0220 	blr	x17
    7a24:	f81c83a0 	stur	x0, [x29, #-56]
    7a28:	f85c83a0 	ldur	x0, [x29, #-56]
    7a2c:	b85f03a1 	ldur	w1, [x29, #-16]
    7a30:	97ffe450 	bl	0xb70
    7a34:	f81c03a0 	stur	x0, [x29, #-64]
    7a38:	f85d83a0 	ldur	x0, [x29, #-40]
    7a3c:	f85c03a1 	ldur	x1, [x29, #-64]
    7a40:	97ffe4e0 	bl	0xdc0
    7a44:	f81d83a0 	stur	x0, [x29, #-40]
    7a48:	f85d83a0 	ldur	x0, [x29, #-40]
    7a4c:	97ffee45 	bl	0x3360
    7a50:	d4200880 	brk	#0x44
    7a54:	528000e1 	mov	w1, #0x7                   	// #7
    7a58:	72a00001 	movk	w1, #0x0, lsl #16
    7a5c:	d42000e0 	brk	#0x7
    7a60:	d4200500 	brk	#0x28
    7a64:	b85bc3a2 	ldur	w2, [x29, #-68]
    7a68:	b85f03a3 	ldur	w3, [x29, #-16]
    7a6c:	6b02007f 	cmp	w3, w2
    7a70:	5400086a 	b.ge	0x7b7c  // b.tcont
    7a74:	d4200500 	brk	#0x28
    7a78:	52800242 	mov	w2, #0x12                  	// #18
    7a7c:	72a00002 	movk	w2, #0x0, lsl #16
    7a80:	d4200120 	brk	#0x9
    7a84:	528000e2 	mov	w2, #0x7                   	// #7
    7a88:	72a00002 	movk	w2, #0x0, lsl #16
    7a8c:	d42001e0 	brk	#0xf
    7a90:	6b01007f 	cmp	w3, w1
    7a94:	5400002a 	b.ge	0x7a98  // b.tcont
    7a98:	2a0303e1 	mov	w1, w3
    7a9c:	d4200500 	brk	#0x28
    7aa0:	52800244 	mov	w4, #0x12                  	// #18
    7aa4:	72a00004 	movk	w4, #0x0, lsl #16
    7aa8:	d42001c0 	brk	#0xe
    7aac:	f81e03a0 	stur	x0, [x29, #-32]
    7ab0:	b81ec3a1 	stur	w1, [x29, #-20]
    7ab4:	b81bc3a2 	stur	w2, [x29, #-68]
    7ab8:	b81f03a3 	stur	w3, [x29, #-16]
    7abc:	b81b83a4 	stur	w4, [x29, #-72]
    7ac0:	b85bc3a0 	ldur	w0, [x29, #-68]
    7ac4:	d2905f91 	mov	x17, #0x82fc                	// #33532
    7ac8:	f2a031b1 	movk	x17, #0x18d, lsl #16
    7acc:	f2c00ab1 	movk	x17, #0x55, lsl #32
    7ad0:	f2e00011 	movk	x17, #0x0, lsl #48
    7ad4:	d63f0220 	blr	x17
    7ad8:	d4200500 	brk	#0x28
    7adc:	d4200500 	brk	#0x28
    7ae0:	52800241 	mov	w1, #0x12                  	// #18
    7ae4:	72a00001 	movk	w1, #0x0, lsl #16
    7ae8:	d42001c0 	brk	#0xe
    7aec:	52800001 	mov	w1, #0x0                   	// #0
    7af0:	72a00001 	movk	w1, #0x0, lsl #16
    7af4:	d4200500 	brk	#0x28
    7af8:	52800002 	mov	w2, #0x0                   	// #0
    7afc:	72a00002 	movk	w2, #0x0, lsl #16
    7b00:	f81b03a0 	stur	x0, [x29, #-80]
    7b04:	b81b83a1 	stur	w1, [x29, #-72]
    7b08:	b81943a2 	stur	w2, [x29, #-108]
    7b0c:	f85b03a0 	ldur	x0, [x29, #-80]
    7b10:	b85b83a1 	ldur	w1, [x29, #-72]
    7b14:	f85983a2 	ldur	x2, [x29, #-104]
    7b18:	b85943a3 	ldur	w3, [x29, #-108]
    7b1c:	b85bc3a4 	ldur	w4, [x29, #-68]
    7b20:	d2906d91 	mov	x17, #0x836c                	// #33644
    7b24:	f2a031b1 	movk	x17, #0x18d, lsl #16
    7b28:	f2c00ab1 	movk	x17, #0x55, lsl #32
    7b2c:	f2e00011 	movk	x17, #0x0, lsl #48
    7b30:	d63f0220 	blr	x17
    7b34:	d4200500 	brk	#0x28
    7b38:	52800240 	mov	w0, #0x12                  	// #18
    7b3c:	72a00000 	movk	w0, #0x0, lsl #16
    7b40:	d42001c0 	brk	#0xe
    7b44:	d4200100 	brk	#0x8
    7b48:	52800000 	mov	w0, #0x0                   	// #0
    7b4c:	72a00000 	movk	w0, #0x0, lsl #16
    7b50:	b81903a0 	stur	w0, [x29, #-112]
    7b54:	f85b03a0 	ldur	x0, [x29, #-80]
    7b58:	b85bc3a1 	ldur	w1, [x29, #-68]
    7b5c:	b85943a2 	ldur	w2, [x29, #-108]
    7b60:	b85903a3 	ldur	w3, [x29, #-112]
    7b64:	d290ff91 	mov	x17, #0x87fc                	// #34812
    7b68:	f2a031b1 	movk	x17, #0x18d, lsl #16
    7b6c:	f2c00ab1 	movk	x17, #0x55, lsl #32
    7b70:	f2e00011 	movk	x17, #0x0, lsl #48
    7b74:	d63f0220 	blr	x17
    7b78:	d4200520 	brk	#0x29
    7b7c:	d4200520 	brk	#0x29
    7b80:	d4200520 	brk	#0x29
    7b84:	9101c3ff 	add	sp, sp, #0x70
    7b88:	a8c17bfd 	ldp	x29, x30, [sp], #16
    7b8c:	d65f03c0 	ret
    7b90:	a9bf7bfd 	stp	x29, x30, [sp, #-16]!
    7b94:	910003fd 	mov	x29, sp
    7b98:	d10083ff 	sub	sp, sp, #0x20
    7b9c:	52800001 	mov	w1, #0x0                   	// #0
    7ba0:	72a00001 	movk	w1, #0x0, lsl #16
    7ba4:	d4200520 	brk	#0x29
    7ba8:	d4200520 	brk	#0x29
    7bac:	aa1f03e2 	mov	x2, xzr
    7bb0:	d4200520 	brk	#0x29
    7bb4:	910083ff 	add	sp, sp, #0x20
    7bb8:	a8c17bfd 	ldp	x29, x30, [sp], #16
    7bbc:	d65f03c0 	ret
    7bc0:	a9bf7bfd 	stp	x29, x30, [sp, #-16]!
    7bc4:	910003fd 	mov	x29, sp
    7bc8:	d10183ff 	sub	sp, sp, #0x60
    7bcc:	f81f83a0 	stur	x0, [x29, #-8]
    7bd0:	f81f03a1 	stur	x1, [x29, #-16]
    7bd4:	d2857500 	mov	x0, #0x2ba8                	// #11176
    7bd8:	f2a000c0 	movk	x0, #0x6, lsl #16
    7bdc:	f2c00aa0 	movk	x0, #0x55, lsl #32
    7be0:	f2e00000 	movk	x0, #0x0, lsl #48
    7be4:	d287fa11 	mov	x17, #0x3fd0                	// #16336
    7be8:	f2a031b1 	movk	x17, #0x18d, lsl #16
    7bec:	f2c00ab1 	movk	x17, #0x55, lsl #32
    7bf0:	f2e00011 	movk	x17, #0x0, lsl #48
    7bf4:	d63f0220 	blr	x17
    7bf8:	f81e83a0 	stur	x0, [x29, #-24]
    7bfc:	f85e83a0 	ldur	x0, [x29, #-24]
    7c00:	97ffffe4 	bl	0x7b90
    7c04:	d4200500 	brk	#0x28
    7c08:	f85f03a0 	ldur	x0, [x29, #-16]
    7c0c:	7100001f 	cmp	w0, #0x0
    7c10:	54000381 	b.ne	0x7c80  // b.any
    7c14:	f81f03a0 	stur	x0, [x29, #-16]
    7c18:	d298b091 	mov	x17, #0xc584                	// #50564
    7c1c:	f2a031b1 	movk	x17, #0x18d, lsl #16
    7c20:	f2c00ab1 	movk	x17, #0x55, lsl #32
    7c24:	f2e00011 	movk	x17, #0x0, lsl #48
    7c28:	d63f0220 	blr	x17
    7c2c:	f85f03a0 	ldur	x0, [x29, #-16]
    7c30:	f8408001 	ldur	x1, [x0, #8]
    7c34:	d42000e0 	brk	#0x7
    7c38:	f85e83a2 	ldur	x2, [x29, #-24]
    7c3c:	f8004042 	stur	x2, [x2, #4]
    7c40:	f85f83a3 	ldur	x3, [x29, #-8]
    7c44:	f8004062 	stur	x2, [x3, #4]
    7c48:	d4200500 	brk	#0x28
    7c4c:	f8408044 	ldur	x4, [x2, #8]
    7c50:	52800061 	mov	w1, #0x3                   	// #3
    7c54:	72a00001 	movk	w1, #0x0, lsl #16
    7c58:	d42001c0 	brk	#0xe
    7c5c:	f81f03a0 	stur	x0, [x29, #-16]
    7c60:	b81e03a1 	stur	w1, [x29, #-32]
    7c64:	f81e83a2 	stur	x2, [x29, #-24]
    7c68:	f81f83a3 	stur	x3, [x29, #-8]
    7c6c:	b81e43a4 	stur	w4, [x29, #-28]
    7c70:	b85e43a0 	ldur	w0, [x29, #-28]
    7c74:	d2905f91 	mov	x17, #0x82fc                	// #33532
    7c78:	f2a031b1 	movk	x17, #0x18d, lsl #16
    7c7c:	f2c00ab1 	movk	x17, #0x55, lsl #32
    7c80:	f2e00011 	movk	x17, #0x0, lsl #48
    7c84:	d63f0220 	blr	x17
    7c88:	f85f03a1 	ldur	x1, [x29, #-16]
    7c8c:	f85e83a2 	ldur	x2, [x29, #-24]
    7c90:	f8055022 	stur	x2, [x1, #85]
    7c94:	d4200500 	brk	#0x28
    7c98:	d4200500 	brk	#0x28
    7c9c:	52800063 	mov	w3, #0x3                   	// #3
    7ca0:	72a00003 	movk	w3, #0x0, lsl #16
    7ca4:	d42001c0 	brk	#0xe
    7ca8:	f8410044 	ldur	x4, [x2, #16]
    7cac:	52800003 	mov	w3, #0x0                   	// #0
    7cb0:	72a00003 	movk	w3, #0x0, lsl #16
    7cb4:	d4200500 	brk	#0x28
    7cb8:	52800005 	mov	w5, #0x0                   	// #0
    7cbc:	72a00005 	movk	w5, #0x0, lsl #16
    7cc0:	f81d03a0 	stur	x0, [x29, #-48]
    7cc4:	f81f03a1 	stur	x1, [x29, #-16]
    7cc8:	f81e83a2 	stur	x2, [x29, #-24]
    7ccc:	b81e03a3 	stur	w3, [x29, #-32]
    7cd0:	f81c03a4 	stur	x4, [x29, #-64]
    7cd4:	b81b43a5 	stur	w5, [x29, #-76]
    7cd8:	f85c03a0 	ldur	x0, [x29, #-64]
    7cdc:	b85e03a1 	ldur	w1, [x29, #-32]
    7ce0:	f85b83a2 	ldur	x2, [x29, #-72]
    7ce4:	b85b43a3 	ldur	w3, [x29, #-76]
    7ce8:	b85e43a4 	ldur	w4, [x29, #-28]
    7cec:	d2906d91 	mov	x17, #0x836c                	// #33644
    7cf0:	f2a031b1 	movk	x17, #0x18d, lsl #16
    7cf4:	f2c00ab1 	movk	x17, #0x55, lsl #32
    7cf8:	f2e00011 	movk	x17, #0x0, lsl #48
    7cfc:	d63f0220 	blr	x17
    7d00:	d4200500 	brk	#0x28
    7d04:	f85e83a0 	ldur	x0, [x29, #-24]
    7d08:	f8410001 	ldur	x1, [x0, #16]
    7d0c:	f85f03a2 	ldur	x2, [x29, #-16]
    7d10:	f8410043 	ldur	x3, [x2, #16]
    7d14:	52800004 	mov	w4, #0x0                   	// #0
    7d18:	72a00004 	movk	w4, #0x0, lsl #16
    7d1c:	f8408045 	ldur	x5, [x2, #8]
    7d20:	52800066 	mov	w6, #0x3                   	// #3
    7d24:	72a00006 	movk	w6, #0x0, lsl #16
    7d28:	d42001c0 	brk	#0xe
    7d2c:	f81e83a0 	stur	x0, [x29, #-24]
    7d30:	f81b83a1 	stur	x1, [x29, #-72]
    7d34:	f81f03a2 	stur	x2, [x29, #-16]
    7d38:	f81a83a3 	stur	x3, [x29, #-88]
    7d3c:	b81b43a4 	stur	w4, [x29, #-76]
    7d40:	b81b03a5 	stur	w5, [x29, #-80]
    7d44:	b81a43a6 	stur	w6, [x29, #-92]
    7d48:	f85b83a0 	ldur	x0, [x29, #-72]
    7d4c:	b85e43a1 	ldur	w1, [x29, #-28]
    7d50:	f85a83a2 	ldur	x2, [x29, #-88]
    7d54:	b85b43a3 	ldur	w3, [x29, #-76]
    7d58:	b85b03a4 	ldur	w4, [x29, #-80]
    7d5c:	d2906d91 	mov	x17, #0x836c                	// #33644
    7d60:	f2a031b1 	movk	x17, #0x18d, lsl #16
    7d64:	f2c00ab1 	movk	x17, #0x55, lsl #32
    7d68:	f2e00011 	movk	x17, #0x0, lsl #48
    7d6c:	d63f0220 	blr	x17
    7d70:	910183ff 	add	sp, sp, #0x60
    7d74:	a8c17bfd 	ldp	x29, x30, [sp], #16
    7d78:	d65f03c0 	ret
    7d7c:	d503201f 	nop
    7d80:	a9bf7bfd 	stp	x29, x30, [sp, #-16]!
    7d84:	910003fd 	mov	x29, sp
    7d88:	d10143ff 	sub	sp, sp, #0x50
    7d8c:	f81f83a0 	stur	x0, [x29, #-8]
    7d90:	f81f03a1 	stur	x1, [x29, #-16]
    7d94:	d2878100 	mov	x0, #0x3c08                	// #15368
    7d98:	f2a000c0 	movk	x0, #0x6, lsl #16
    7d9c:	f2c00aa0 	movk	x0, #0x55, lsl #32
    7da0:	f2e00000 	movk	x0, #0x0, lsl #48
    7da4:	d287fa11 	mov	x17, #0x3fd0                	// #16336
    7da8:	f2a031b1 	movk	x17, #0x18d, lsl #16
    7dac:	f2c00ab1 	movk	x17, #0x55, lsl #32
    7db0:	f2e00011 	movk	x17, #0x0, lsl #48
    7db4:	d63f0220 	blr	x17
    7db8:	f81e83a0 	stur	x0, [x29, #-24]
    7dbc:	f85e83a0 	ldur	x0, [x29, #-24]
    7dc0:	97ffe8f4 	bl	0x2190
    7dc4:	52800000 	mov	w0, #0x0                   	// #0
    7dc8:	72a00000 	movk	w0, #0x0, lsl #16
    7dcc:	d4200500 	brk	#0x28
    7dd0:	b85e03a1 	ldur	w1, [x29, #-32]
    7dd4:	6b00003f 	cmp	w1, w0
    7dd8:	540005aa 	b.ge	0x7e8c  // b.tcont
    7ddc:	b81dc3a0 	stur	w0, [x29, #-36]
    7de0:	f85f83a2 	ldur	x2, [x29, #-8]
    7de4:	11000440 	add	w0, w2, #0x1
    7de8:	52800003 	mov	w3, #0x0                   	// #0
    7dec:	72a00003 	movk	w3, #0x0, lsl #16
    7df0:	b85dc3a4 	ldur	w4, [x29, #-36]
    7df4:	6b03009f 	cmp	w4, w3
    7df8:	5400022a 	b.ge	0x7e3c  // b.tcont
    7dfc:	f85e83a5 	ldur	x5, [x29, #-24]
    7e00:	710000bf 	cmp	w5, #0x0
    7e04:	54000601 	b.ne	0x7ec4  // b.any
    7e08:	b81e43a0 	stur	w0, [x29, #-28]
    7e0c:	b81e03a1 	stur	w1, [x29, #-32]
    7e10:	f81f83a2 	stur	x2, [x29, #-8]
    7e14:	b81d43a3 	stur	w3, [x29, #-44]
    7e18:	b81dc3a4 	stur	w4, [x29, #-36]
    7e1c:	f81e83a5 	stur	x5, [x29, #-24]
    7e20:	d298b091 	mov	x17, #0xc584                	// #50564
    7e24:	f2a031b1 	movk	x17, #0x18d, lsl #16
    7e28:	f2c00ab1 	movk	x17, #0x55, lsl #32
    7e2c:	f2e00011 	movk	x17, #0x0, lsl #48
    7e30:	d63f0220 	blr	x17
    7e34:	f85e83a0 	ldur	x0, [x29, #-24]
    7e38:	f85f03a1 	ldur	x1, [x29, #-16]
    7e3c:	97ffe8ed 	bl	0x21f0
    7e40:	d4200500 	brk	#0x28
    7e44:	f85e83a0 	ldur	x0, [x29, #-24]
    7e48:	7100001f 	cmp	w0, #0x0
    7e4c:	54000381 	b.ne	0x7ebc  // b.any
    7e50:	f81e83a0 	stur	x0, [x29, #-24]
    7e54:	d298b091 	mov	x17, #0xc584                	// #50564
    7e58:	f2a031b1 	movk	x17, #0x18d, lsl #16
    7e5c:	f2c00ab1 	movk	x17, #0x55, lsl #32
    7e60:	f2e00011 	movk	x17, #0x0, lsl #48
    7e64:	d63f0220 	blr	x17
    7e68:	52800060 	mov	w0, #0x3                   	// #3
    7e6c:	72a00000 	movk	w0, #0x0, lsl #16
    7e70:	d42001c0 	brk	#0xe
    7e74:	d4200980 	brk	#0x4c
    7e78:	d4200760 	brk	#0x3b
    7e7c:	b81d43a0 	stur	w0, [x29, #-44]
    7e80:	f85e83a0 	ldur	x0, [x29, #-24]
    7e84:	f85b83a1 	ldur	x1, [x29, #-72]
    7e88:	97ffe8da 	bl	0x21f0
    7e8c:	17ffffd0 	b	0x7dcc
    7e90:	f85e83a0 	ldur	x0, [x29, #-24]
    7e94:	7100001f 	cmp	w0, #0x0
    7e98:	54000381 	b.ne	0x7f08  // b.any
    7e9c:	f81e83a0 	stur	x0, [x29, #-24]
    7ea0:	d298b091 	mov	x17, #0xc584                	// #50564
    7ea4:	f2a031b1 	movk	x17, #0x18d, lsl #16
    7ea8:	f2c00ab1 	movk	x17, #0x55, lsl #32
    7eac:	f2e00011 	movk	x17, #0x0, lsl #48
    7eb0:	d63f0220 	blr	x17
    7eb4:	f85e83a0 	ldur	x0, [x29, #-24]
    7eb8:	97ffea82 	bl	0x28c0
    7ebc:	910143ff 	add	sp, sp, #0x50
    7ec0:	a8c17bfd 	ldp	x29, x30, [sp], #16
    7ec4:	d65f03c0 	ret
    7ec8:	d503201f 	nop
    7ecc:	d503201f 	nop
    7ed0:	a9bf7bfd 	stp	x29, x30, [sp, #-16]!
    7ed4:	910003fd 	mov	x29, sp
    7ed8:	d100c3ff 	sub	sp, sp, #0x30
    7edc:	d4200500 	brk	#0x28
    7ee0:	52800001 	mov	w1, #0x0                   	// #0
    7ee4:	72a00001 	movk	w1, #0x0, lsl #16
    7ee8:	b85f43a2 	ldur	w2, [x29, #-12]
    7eec:	6b02003f 	cmp	w1, w2
    7ef0:	54000081 	b.ne	0x7f00  // b.any
    7ef4:	aa1f03e3 	mov	x3, xzr
    7ef8:	9100c3ff 	add	sp, sp, #0x30
    7efc:	a8c17bfd 	ldp	x29, x30, [sp], #16
    7f00:	d65f03c0 	ret
    7f04:	f8408002 	ldur	x2, [x0, #8]
    7f08:	51000402 	sub	w2, w0, #0x1
    7f0c:	f8010000 	stur	x0, [x0, #16]
    7f10:	d4200500 	brk	#0x28
    7f14:	d4200500 	brk	#0x28
    7f18:	52800064 	mov	w4, #0x3                   	// #3
    7f1c:	72a00004 	movk	w4, #0x0, lsl #16
    7f20:	d42001c0 	brk	#0xe
    7f24:	d4200980 	brk	#0x4c
    7f28:	d4200760 	brk	#0x3b
    7f2c:	9100c3ff 	add	sp, sp, #0x30
    7f30:	a8c17bfd 	ldp	x29, x30, [sp], #16
    7f34:	d65f03c0 	ret
    7f38:	d503201f 	nop
    7f3c:	d503201f 	nop
    7f40:	a9bf7bfd 	stp	x29, x30, [sp, #-16]!
    7f44:	910003fd 	mov	x29, sp
    7f48:	d100c3ff 	sub	sp, sp, #0x30
    7f4c:	d4200500 	brk	#0x28
    7f50:	d4200500 	brk	#0x28
    7f54:	b85ec3a2 	ldur	w2, [x29, #-20]
    7f58:	b85f03a3 	ldur	w3, [x29, #-16]
    7f5c:	6b02007f 	cmp	w3, w2
    7f60:	54000101 	b.ne	0x7f80  // b.any
    7f64:	f81f83a0 	stur	x0, [x29, #-8]
    7f68:	b81f43a1 	stur	w1, [x29, #-12]
    7f6c:	b81ec3a2 	stur	w2, [x29, #-20]
    7f70:	b81f03a3 	stur	w3, [x29, #-16]
    7f74:	f85f83a0 	ldur	x0, [x29, #-8]
    7f78:	b85f03a1 	ldur	w1, [x29, #-16]
    7f7c:	94000061 	bl	0x8100
    7f80:	14000004 	b	0x7f90
    7f84:	f85f83a0 	ldur	x0, [x29, #-8]
    7f88:	f8408001 	ldur	x1, [x0, #8]
    7f8c:	11000401 	add	w1, w0, #0x1
    7f90:	f8004000 	stur	x0, [x0, #4]
    7f94:	d4200500 	brk	#0x28
    7f98:	52800062 	mov	w2, #0x3                   	// #3
    7f9c:	72a00002 	movk	w2, #0x0, lsl #16
    7fa0:	d42001c0 	brk	#0xe
    7fa4:	d4200a00 	brk	#0x50
    7fa8:	d4200500 	brk	#0x28
    7fac:	9100c3ff 	add	sp, sp, #0x30
    7fb0:	a8c17bfd 	ldp	x29, x30, [sp], #16
    7fb4:	d65f03c0 	ret
    7fb8:	d503201f 	nop
    7fbc:	d503201f 	nop
    7fc0:	a9bf7bfd 	stp	x29, x30, [sp, #-16]!
    7fc4:	910003fd 	mov	x29, sp
    7fc8:	d10143ff 	sub	sp, sp, #0x50
    7fcc:	52800001 	mov	w1, #0x0                   	// #0
    7fd0:	72a00001 	movk	w1, #0x0, lsl #16
    7fd4:	d4200500 	brk	#0x28
    7fd8:	528000e2 	mov	w2, #0x7                   	// #7
    7fdc:	72a00002 	movk	w2, #0x0, lsl #16
    7fe0:	d42001e0 	brk	#0xf
    7fe4:	b85f03a3 	ldur	w3, [x29, #-16]
    7fe8:	6b01007f 	cmp	w3, w1
    7fec:	5400038a 	b.ge	0x805c  // b.tcont
    7ff0:	2a0103e2 	mov	w2, w1
    7ff4:	11000401 	add	w1, w0, #0x1
    7ff8:	d4200500 	brk	#0x28
    7ffc:	528000e4 	mov	w4, #0x7                   	// #7
    8000:	72a00004 	movk	w4, #0x0, lsl #16
    8004:	d4200100 	brk	#0x8
    8008:	d4200100 	brk	#0x8
    800c:	d4200500 	brk	#0x28
    8010:	52800065 	mov	w5, #0x3                   	// #3
    8014:	72a00005 	movk	w5, #0x0, lsl #16
    8018:	d42001c0 	brk	#0xe
    801c:	d4200980 	brk	#0x4c
    8020:	d4200500 	brk	#0x28
    8024:	d4200500 	brk	#0x28
    8028:	52800066 	mov	w6, #0x3                   	// #3
    802c:	72a00006 	movk	w6, #0x0, lsl #16
    8030:	d42001c0 	brk	#0xe
    8034:	d4200980 	brk	#0x4c
    8038:	52800067 	mov	w7, #0x3                   	// #3
    803c:	72a00007 	movk	w7, #0x0, lsl #16
    8040:	d42001c0 	brk	#0xe
    8044:	d4200a00 	brk	#0x50
    8048:	d4200500 	brk	#0x28
    804c:	52800068 	mov	w8, #0x3                   	// #3
    8050:	72a00008 	movk	w8, #0x0, lsl #16
    8054:	d42001c0 	brk	#0xe
    8058:	d4200a00 	brk	#0x50
    805c:	17ffffe1 	b	0x7fe0
    8060:	910143ff 	add	sp, sp, #0x50
    8064:	a8c17bfd 	ldp	x29, x30, [sp], #16
    8068:	d65f03c0 	ret
    806c:	d503201f 	nop
    8070:	a9bf7bfd 	stp	x29, x30, [sp, #-16]!
    8074:	910003fd 	mov	x29, sp
    8078:	d10143ff 	sub	sp, sp, #0x50
    807c:	d4200500 	brk	#0x28
    8080:	52800001 	mov	w1, #0x0                   	// #0
    8084:	72a00001 	movk	w1, #0x0, lsl #16
    8088:	b85f43a2 	ldur	w2, [x29, #-12]
    808c:	6b02003f 	cmp	w1, w2
    8090:	54000081 	b.ne	0x80a0  // b.any
    8094:	aa1f03e3 	mov	x3, xzr
    8098:	910143ff 	add	sp, sp, #0x50
    809c:	a8c17bfd 	ldp	x29, x30, [sp], #16
    80a0:	d65f03c0 	ret
    80a4:	d4200500 	brk	#0x28
    80a8:	52800002 	mov	w2, #0x0                   	// #0
    80ac:	72a00002 	movk	w2, #0x0, lsl #16
    80b0:	52800061 	mov	w1, #0x3                   	// #3
    80b4:	72a00001 	movk	w1, #0x0, lsl #16
    80b8:	d42001c0 	brk	#0xe
    80bc:	d4200980 	brk	#0x4c
    80c0:	f8408001 	ldur	x1, [x0, #8]
    80c4:	51000401 	sub	w1, w0, #0x1
    80c8:	f8155000 	stur	x0, [x0, #-171]
    80cc:	d4200500 	brk	#0x28
    80d0:	d4200500 	brk	#0x28
    80d4:	d4200500 	brk	#0x28
    80d8:	528000e1 	mov	w1, #0x7                   	// #7
    80dc:	72a00001 	movk	w1, #0x0, lsl #16
    80e0:	52800064 	mov	w4, #0x3                   	// #3
    80e4:	72a00004 	movk	w4, #0x0, lsl #16
    80e8:	d42001c0 	brk	#0xe
    80ec:	d4200500 	brk	#0x28
    80f0:	52800004 	mov	w4, #0x0                   	// #0
    80f4:	72a00004 	movk	w4, #0x0, lsl #16
    80f8:	d4200500 	brk	#0x28
    80fc:	52800065 	mov	w5, #0x3                   	// #3
    8100:	72a00005 	movk	w5, #0x0, lsl #16
    8104:	d42001c0 	brk	#0xe
    8108:	f81f83a0 	stur	x0, [x29, #-8]
    810c:	b81f03a1 	stur	w1, [x29, #-16]
    8110:	b81f43a2 	stur	w2, [x29, #-12]
    8114:	f81e83a3 	stur	x3, [x29, #-24]
    8118:	b81d43a4 	stur	w4, [x29, #-44]
    811c:	b81b03a5 	stur	w5, [x29, #-80]
    8120:	f85d83a0 	ldur	x0, [x29, #-40]
    8124:	b85d43a1 	ldur	w1, [x29, #-44]
    8128:	f85c83a2 	ldur	x2, [x29, #-56]
    812c:	b85f03a3 	ldur	w3, [x29, #-16]
    8130:	b85b43a4 	ldur	w4, [x29, #-76]
    8134:	d2906d91 	mov	x17, #0x836c                	// #33644
    8138:	f2a031b1 	movk	x17, #0x18d, lsl #16
    813c:	f2c00ab1 	movk	x17, #0x55, lsl #32
    8140:	f2e00011 	movk	x17, #0x0, lsl #48
    8144:	d63f0220 	blr	x17
    8148:	d4200760 	brk	#0x3b
    814c:	910143ff 	add	sp, sp, #0x50
    8150:	a8c17bfd 	ldp	x29, x30, [sp], #16
    8154:	d65f03c0 	ret
    8158:	d503201f 	nop
    815c:	d503201f 	nop
    8160:	a9bf7bfd 	stp	x29, x30, [sp, #-16]!
    8164:	910003fd 	mov	x29, sp
    8168:	d10203ff 	sub	sp, sp, #0x80
    816c:	f81f83a0 	stur	x0, [x29, #-8]
    8170:	b81f43a1 	stur	w1, [x29, #-12]
    8174:	f81e83a2 	stur	x2, [x29, #-24]
    8178:	b81e43a3 	stur	w3, [x29, #-28]
    817c:	b81e03a4 	stur	w4, [x29, #-32]
    8180:	d13fa3e0 	sub	x0, sp, #0xfe8
    8184:	d2856d01 	mov	x1, #0x2b68                	// #11112
    8188:	f2a000c1 	movk	x1, #0x6, lsl #16
    818c:	f2c00aa1 	movk	x1, #0x55, lsl #32
    8190:	f2e00001 	movk	x1, #0x0, lsl #48
    8194:	d2857502 	mov	x2, #0x2ba8                	// #11176
    8198:	f2a000c2 	movk	x2, #0x6, lsl #16
    819c:	f2c00aa2 	movk	x2, #0x55, lsl #32
    81a0:	f2e00002 	movk	x2, #0x0, lsl #48
    81a4:	d2942991 	mov	x17, #0xa14c                	// #41292
    81a8:	f2a031b1 	movk	x17, #0x18d, lsl #16
    81ac:	f2c00ab1 	movk	x17, #0x55, lsl #32
    81b0:	f2e00011 	movk	x17, #0x0, lsl #48
    81b4:	d63f0220 	blr	x17
    81b8:	52800000 	mov	w0, #0x0                   	// #0
    81bc:	72a00000 	movk	w0, #0x0, lsl #16
    81c0:	b85f43a1 	ldur	w1, [x29, #-12]
    81c4:	6b01001f 	cmp	w0, w1
    81c8:	5400046b 	b.lt	0x8254  // b.tstop
    81cc:	52800000 	mov	w0, #0x0                   	// #0
    81d0:	72a00000 	movk	w0, #0x0, lsl #16
    81d4:	b85e43a2 	ldur	w2, [x29, #-28]
    81d8:	6b02001f 	cmp	w0, w2
    81dc:	540003cb 	b.lt	0x8254  // b.tstop
    81e0:	52800000 	mov	w0, #0x0                   	// #0
    81e4:	72a00000 	movk	w0, #0x0, lsl #16
    81e8:	b85e03a3 	ldur	w3, [x29, #-32]
    81ec:	6b03001f 	cmp	w0, w3
    81f0:	5400032b 	b.lt	0x8254  // b.tstop
    81f4:	d42000e0 	brk	#0x7
    81f8:	d4200500 	brk	#0x28
    81fc:	b85d43a4 	ldur	w4, [x29, #-44]
    8200:	6b00009f 	cmp	w4, w0
    8204:	5400028b 	b.lt	0x8254  // b.tstop
    8208:	d42000e0 	brk	#0x7
    820c:	f85d83a5 	ldur	x5, [x29, #-40]
    8210:	710000bf 	cmp	w5, #0x0
    8214:	54000601 	b.ne	0x82d4  // b.any
    8218:	b81d03a0 	stur	w0, [x29, #-48]
    821c:	b81f43a1 	stur	w1, [x29, #-12]
    8220:	b81e43a2 	stur	w2, [x29, #-28]
    8224:	b81e03a3 	stur	w3, [x29, #-32]
    8228:	b81d43a4 	stur	w4, [x29, #-44]
    822c:	f81d83a5 	stur	x5, [x29, #-40]
    8230:	d298b091 	mov	x17, #0xc584                	// #50564
    8234:	f2a031b1 	movk	x17, #0x18d, lsl #16
    8238:	f2c00ab1 	movk	x17, #0x55, lsl #32
    823c:	f2e00011 	movk	x17, #0x0, lsl #48
    8240:	d63f0220 	blr	x17
    8244:	f85d83a0 	ldur	x0, [x29, #-40]
    8248:	f8408001 	ldur	x1, [x0, #8]
    824c:	b85d43a2 	ldur	w2, [x29, #-44]
    8250:	6b01005f 	cmp	w2, w1
    8254:	5400018a 	b.ge	0x8284  // b.tcont
    8258:	d295b204 	mov	x4, #0xad90                	// #44432
    825c:	f2a000c4 	movk	x4, #0x6, lsl #16
    8260:	f2c00aa4 	movk	x4, #0x55, lsl #32
    8264:	f2e00004 	movk	x4, #0x0, lsl #48
    8268:	f8400083 	ldur	x3, [x4]
    826c:	f81d83a0 	stur	x0, [x29, #-40]
    8270:	b81d03a1 	stur	w1, [x29, #-48]
    8274:	b81d43a2 	stur	w2, [x29, #-44]
    8278:	f81c03a3 	stur	x3, [x29, #-64]
    827c:	f85c03a0 	ldur	x0, [x29, #-64]
    8280:	97ffec38 	bl	0x3360
    8284:	d4200880 	brk	#0x44
    8288:	d4200500 	brk	#0x28
    828c:	d4200500 	brk	#0x28
    8290:	52800061 	mov	w1, #0x3                   	// #3
    8294:	72a00001 	movk	w1, #0x0, lsl #16
    8298:	d42001c0 	brk	#0xe
    829c:	f85d83a2 	ldur	x2, [x29, #-40]
    82a0:	f8410043 	ldur	x3, [x2, #16]
    82a4:	d4200500 	brk	#0x28
    82a8:	52800064 	mov	w4, #0x3                   	// #3
    82ac:	72a00004 	movk	w4, #0x0, lsl #16
    82b0:	d42001c0 	brk	#0xe
    82b4:	d4200500 	brk	#0x28
    82b8:	52800065 	mov	w5, #0x3                   	// #3
    82bc:	72a00005 	movk	w5, #0x0, lsl #16
    82c0:	d42001c0 	brk	#0xe
    82c4:	f81c83a0 	stur	x0, [x29, #-56]
    82c8:	b81d03a1 	stur	w1, [x29, #-48]
    82cc:	f81d83a2 	stur	x2, [x29, #-40]
    82d0:	f81a83a3 	stur	x3, [x29, #-88]
    82d4:	b819c3a4 	stur	w4, [x29, #-100]
    82d8:	b81883a5 	stur	w5, [x29, #-120]
    82dc:	f85b83a0 	ldur	x0, [x29, #-72]
    82e0:	b85d43a1 	ldur	w1, [x29, #-44]
    82e4:	f85a83a2 	ldur	x2, [x29, #-88]
    82e8:	b85d03a3 	ldur	w3, [x29, #-48]
    82ec:	b858c3a4 	ldur	w4, [x29, #-116]
    82f0:	d2906d91 	mov	x17, #0x836c                	// #33644
    82f4:	f2a031b1 	movk	x17, #0x18d, lsl #16
    82f8:	f2c00ab1 	movk	x17, #0x55, lsl #32
    82fc:	f2e00011 	movk	x17, #0x0, lsl #48
    8300:	d63f0220 	blr	x17
    8304:	910203ff 	add	sp, sp, #0x80
    8308:	a8c17bfd 	ldp	x29, x30, [sp], #16
    830c:	d65f03c0 	ret
    8310:	a9bf7bfd 	stp	x29, x30, [sp, #-16]!
    8314:	910003fd 	mov	x29, sp
    8318:	d10183ff 	sub	sp, sp, #0x60
    831c:	52800003 	mov	w3, #0x0                   	// #0
    8320:	72a00003 	movk	w3, #0x0, lsl #16
    8324:	6b01007f 	cmp	w3, w1
    8328:	5400016a 	b.ge	0x8354  // b.tcont
    832c:	d4200500 	brk	#0x28
    8330:	d42000e0 	brk	#0x7
    8334:	b85e43a4 	ldur	w4, [x29, #-28]
    8338:	2a0403e1 	mov	w1, w4
    833c:	52800003 	mov	w3, #0x0                   	// #0
    8340:	72a00003 	movk	w3, #0x0, lsl #16
    8344:	6b04007f 	cmp	w3, w4
    8348:	5400006a 	b.ge	0x8354  // b.tcont
    834c:	52800004 	mov	w4, #0x0                   	// #0
    8350:	72a00004 	movk	w4, #0x0, lsl #16
    8354:	2a0403e1 	mov	w1, w4
    8358:	7100005f 	cmp	w2, #0x0
    835c:	54000041 	b.ne	0x8364  // b.any
    8360:	d4200500 	brk	#0x28
    8364:	1400001e 	b	0x83dc
    8368:	f81f83a0 	stur	x0, [x29, #-8]
    836c:	b81f43a1 	stur	w1, [x29, #-12]
    8370:	f81e83a2 	stur	x2, [x29, #-24]
    8374:	b81e03a3 	stur	w3, [x29, #-32]
    8378:	b81e43a4 	stur	w4, [x29, #-28]
    837c:	d13fa3e0 	sub	x0, sp, #0xfe8
    8380:	d2876101 	mov	x1, #0x3b08                	// #15112
    8384:	f2a000c1 	movk	x1, #0x6, lsl #16
    8388:	f2c00aa1 	movk	x1, #0x55, lsl #32
    838c:	f2e00001 	movk	x1, #0x0, lsl #48
    8390:	d2851102 	mov	x2, #0x2888                	// #10376
    8394:	f2a000c2 	movk	x2, #0x6, lsl #16
    8398:	f2c00aa2 	movk	x2, #0x55, lsl #32
    839c:	f2e00002 	movk	x2, #0x0, lsl #48
    83a0:	d293ee91 	mov	x17, #0x9f74                	// #40820
    83a4:	f2a031b1 	movk	x17, #0x18d, lsl #16
    83a8:	f2c00ab1 	movk	x17, #0x55, lsl #32
    83ac:	f2e00011 	movk	x17, #0x0, lsl #48
    83b0:	d63f0220 	blr	x17
    83b4:	52800000 	mov	w0, #0x0                   	// #0
    83b8:	72a00000 	movk	w0, #0x0, lsl #16
    83bc:	b85e03a1 	ldur	w1, [x29, #-32]
    83c0:	6b01001f 	cmp	w0, w1
    83c4:	5400004a 	b.ge	0x83cc  // b.tcont
    83c8:	d4200500 	brk	#0x28
    83cc:	d42000e0 	brk	#0x7
    83d0:	d4200500 	brk	#0x28
    83d4:	6b00003f 	cmp	w1, w0
    83d8:	5400002a 	b.ge	0x83dc  // b.tcont
    83dc:	d4200500 	brk	#0x28
    83e0:	d4200100 	brk	#0x8
    83e4:	52800002 	mov	w2, #0x0                   	// #0
    83e8:	72a00002 	movk	w2, #0x0, lsl #16
    83ec:	6b01005f 	cmp	w2, w1
    83f0:	5400024a 	b.ge	0x8438  // b.tcont
    83f4:	b81dc3a0 	stur	w0, [x29, #-36]
    83f8:	b81e03a1 	stur	w1, [x29, #-32]
    83fc:	b81d83a2 	stur	w2, [x29, #-40]
    8400:	d2857500 	mov	x0, #0x2ba8                	// #11176
    8404:	f2a000c0 	movk	x0, #0x6, lsl #16
    8408:	f2c00aa0 	movk	x0, #0x55, lsl #32
    840c:	f2e00000 	movk	x0, #0x0, lsl #48
    8410:	d287fa11 	mov	x17, #0x3fd0                	// #16336
    8414:	f2a031b1 	movk	x17, #0x18d, lsl #16
    8418:	f2c00ab1 	movk	x17, #0x55, lsl #32
    841c:	f2e00011 	movk	x17, #0x0, lsl #48
    8420:	d63f0220 	blr	x17
    8424:	f81d03a0 	stur	x0, [x29, #-48]
    8428:	f85d03a0 	ldur	x0, [x29, #-48]
    842c:	97fffdd9 	bl	0x7b90
    8430:	910183ff 	add	sp, sp, #0x60
    8434:	a8c17bfd 	ldp	x29, x30, [sp], #16
    8438:	d65f03c0 	ret
    843c:	d2857500 	mov	x0, #0x2ba8                	// #11176
    8440:	f2a000c0 	movk	x0, #0x6, lsl #16
    8444:	f2c00aa0 	movk	x0, #0x55, lsl #32
    8448:	f2e00000 	movk	x0, #0x0, lsl #48
    844c:	d287fa11 	mov	x17, #0x3fd0                	// #16336
    8450:	f2a031b1 	movk	x17, #0x18d, lsl #16
    8454:	f2c00ab1 	movk	x17, #0x55, lsl #32
    8458:	f2e00011 	movk	x17, #0x0, lsl #48
    845c:	d63f0220 	blr	x17
    8460:	f81d03a0 	stur	x0, [x29, #-48]
    8464:	f85d03a0 	ldur	x0, [x29, #-48]
    8468:	97fffdca 	bl	0x7b90
    846c:	f85e83a0 	ldur	x0, [x29, #-24]
    8470:	f85d03a1 	ldur	x1, [x29, #-48]
    8474:	f8003001 	stur	x1, [x0, #3]
    8478:	f85f83a2 	ldur	x2, [x29, #-8]
    847c:	f8003041 	stur	x1, [x2, #3]
    8480:	d4200500 	brk	#0x28
    8484:	d4200500 	brk	#0x28
    8488:	52800063 	mov	w3, #0x3                   	// #3
    848c:	72a00003 	movk	w3, #0x0, lsl #16
    8490:	d42001c0 	brk	#0xe
    8494:	d4200500 	brk	#0x28
    8498:	52800064 	mov	w4, #0x3                   	// #3
    849c:	72a00004 	movk	w4, #0x0, lsl #16
    84a0:	d42001c0 	brk	#0xe
    84a4:	f81e83a0 	stur	x0, [x29, #-24]
    84a8:	f81d03a1 	stur	x1, [x29, #-48]
    84ac:	f81f83a2 	stur	x2, [x29, #-8]
    84b0:	b81d83a3 	stur	w3, [x29, #-40]
    84b4:	b81a83a4 	stur	w4, [x29, #-88]
    84b8:	f85c83a0 	ldur	x0, [x29, #-56]
    84bc:	b85dc3a1 	ldur	w1, [x29, #-36]
    84c0:	b85ac3a2 	ldur	w2, [x29, #-84]
    84c4:	97ffe99f 	bl	0x2b40
    84c8:	b85f43a1 	ldur	w1, [x29, #-12]
    84cc:	f85d03a2 	ldur	x2, [x29, #-48]
    84d0:	b8000022 	stur	w2, [x1]
    84d4:	910183ff 	add	sp, sp, #0x60
    84d8:	a8c17bfd 	ldp	x29, x30, [sp], #16
    84dc:	d65f03c0 	ret
    84e0:	a9bf7bfd 	stp	x29, x30, [sp, #-16]!
    84e4:	910003fd 	mov	x29, sp
    84e8:	d10083ff 	sub	sp, sp, #0x20
    84ec:	d42007c0 	brk	#0x3e
    84f0:	d42007c0 	brk	#0x3e
    84f4:	d4200400 	brk	#0x20
    84f8:	910083ff 	add	sp, sp, #0x20
    84fc:	a8c17bfd 	ldp	x29, x30, [sp], #16
    8500:	d65f03c0 	ret
    8504:	d503201f 	nop
    8508:	d503201f 	nop
    850c:	d503201f 	nop
    8510:	a9bf7bfd 	stp	x29, x30, [sp, #-16]!
    8514:	910003fd 	mov	x29, sp
    8518:	d10103ff 	sub	sp, sp, #0x40
    851c:	d2851102 	mov	x2, #0x2888                	// #10376
    8520:	f2a000c2 	movk	x2, #0x6, lsl #16
    8524:	f2c00aa2 	movk	x2, #0x55, lsl #32
    8528:	f2e00002 	movk	x2, #0x0, lsl #48
    852c:	d2851103 	mov	x3, #0x2888                	// #10376
    8530:	f2a000c3 	movk	x3, #0x6, lsl #16
    8534:	f2c00aa3 	movk	x3, #0x55, lsl #32
    8538:	f2e00003 	movk	x3, #0x0, lsl #48
    853c:	6b02007f 	cmp	w3, w2
    8540:	54000261 	b.ne	0x858c  // b.any
    8544:	d4200500 	brk	#0x28
    8548:	52800004 	mov	w4, #0x0                   	// #0
    854c:	72a00004 	movk	w4, #0x0, lsl #16
    8550:	d4200500 	brk	#0x28
    8554:	f81f83a0 	stur	x0, [x29, #-8]
    8558:	f81f03a1 	stur	x1, [x29, #-16]
    855c:	f81e83a2 	stur	x2, [x29, #-24]
    8560:	f81e03a3 	stur	x3, [x29, #-32]
    8564:	b81d43a4 	stur	w4, [x29, #-44]
    8568:	f85d83a0 	ldur	x0, [x29, #-40]
    856c:	b85d43a1 	ldur	w1, [x29, #-44]
    8570:	b85d03a2 	ldur	w2, [x29, #-48]
    8574:	f85f03a3 	ldur	x3, [x29, #-16]
    8578:	d2910791 	mov	x17, #0x883c                	// #34876
    857c:	f2a031b1 	movk	x17, #0x18d, lsl #16
    8580:	f2c00ab1 	movk	x17, #0x55, lsl #32
    8584:	f2e00011 	movk	x17, #0x0, lsl #48
    8588:	d63f0220 	blr	x17
    858c:	14000016 	b	0x85e4
    8590:	d4200500 	brk	#0x28
    8594:	52800000 	mov	w0, #0x0                   	// #0
    8598:	72a00000 	movk	w0, #0x0, lsl #16
    859c:	d4200500 	brk	#0x28
    85a0:	f85f03a1 	ldur	x1, [x29, #-16]
    85a4:	7100003f 	cmp	w1, #0x0
    85a8:	54000041 	b.ne	0x85b0  // b.any
    85ac:	aa1f03e2 	mov	x2, xzr
    85b0:	14000001 	b	0x85b4
    85b4:	d4200440 	brk	#0x22
    85b8:	b81d43a0 	stur	w0, [x29, #-44]
    85bc:	f81f03a1 	stur	x1, [x29, #-16]
    85c0:	f81c83a2 	stur	x2, [x29, #-56]
    85c4:	f85d83a0 	ldur	x0, [x29, #-40]
    85c8:	b85d43a1 	ldur	w1, [x29, #-44]
    85cc:	b85d03a2 	ldur	w2, [x29, #-48]
    85d0:	f85c83a3 	ldur	x3, [x29, #-56]
    85d4:	d2913e91 	mov	x17, #0x89f4                	// #35316
    85d8:	f2a031b1 	movk	x17, #0x18d, lsl #16
    85dc:	f2c00ab1 	movk	x17, #0x55, lsl #32
    85e0:	f2e00011 	movk	x17, #0x0, lsl #48
    85e4:	d63f0220 	blr	x17
    85e8:	910103ff 	add	sp, sp, #0x40
    85ec:	a8c17bfd 	ldp	x29, x30, [sp], #16
    85f0:	d65f03c0 	ret
    85f4:	d503201f 	nop
    85f8:	d503201f 	nop
    85fc:	d503201f 	nop
    8600:	a9bf7bfd 	stp	x29, x30, [sp, #-16]!
    8604:	910003fd 	mov	x29, sp
    8608:	d10203ff 	sub	sp, sp, #0x80
    860c:	52800003 	mov	w3, #0x0                   	// #0
    8610:	72a00003 	movk	w3, #0x0, lsl #16
    8614:	6b02007f 	cmp	w3, w2
    8618:	5400026a 	b.ge	0x8664  // b.tcont
    861c:	f81f83a0 	stur	x0, [x29, #-8]
    8620:	b81f43a1 	stur	w1, [x29, #-12]
    8624:	b81f03a2 	stur	w2, [x29, #-16]
    8628:	b81e83a3 	stur	w3, [x29, #-24]
    862c:	d2857500 	mov	x0, #0x2ba8                	// #11176
    8630:	f2a000c0 	movk	x0, #0x6, lsl #16
    8634:	f2c00aa0 	movk	x0, #0x55, lsl #32
    8638:	f2e00000 	movk	x0, #0x0, lsl #48
    863c:	d287fa11 	mov	x17, #0x3fd0                	// #16336
    8640:	f2a031b1 	movk	x17, #0x18d, lsl #16
    8644:	f2c00ab1 	movk	x17, #0x55, lsl #32
    8648:	f2e00011 	movk	x17, #0x0, lsl #48
    864c:	d63f0220 	blr	x17
    8650:	f81e03a0 	stur	x0, [x29, #-32]
    8654:	f85e03a0 	ldur	x0, [x29, #-32]
    8658:	97fffd4e 	bl	0x7b90
    865c:	910203ff 	add	sp, sp, #0x80
    8660:	a8c17bfd 	ldp	x29, x30, [sp], #16
    8664:	d65f03c0 	ret
    8668:	52800000 	mov	w0, #0x0                   	// #0
    866c:	72a00000 	movk	w0, #0x0, lsl #16
    8670:	b85f43a1 	ldur	w1, [x29, #-12]
    8674:	6b01001f 	cmp	w0, w1
    8678:	5400016a 	b.ge	0x86a4  // b.tcont
    867c:	d4200500 	brk	#0x28
    8680:	d42000e0 	brk	#0x7
    8684:	b85ec3a2 	ldur	w2, [x29, #-20]
    8688:	2a0203e1 	mov	w1, w2
    868c:	52800000 	mov	w0, #0x0                   	// #0
    8690:	72a00000 	movk	w0, #0x0, lsl #16
    8694:	6b02001f 	cmp	w0, w2
    8698:	5400006a 	b.ge	0x86a4  // b.tcont
    869c:	52800002 	mov	w2, #0x0                   	// #0
    86a0:	72a00002 	movk	w2, #0x0, lsl #16
    86a4:	2a0203e1 	mov	w1, w2
    86a8:	d4200500 	brk	#0x28
    86ac:	6b00003f 	cmp	w1, w0
    86b0:	540000ea 	b.ge	0x86cc  // b.tcont
    86b4:	52800002 	mov	w2, #0x0                   	// #0
    86b8:	72a00002 	movk	w2, #0x0, lsl #16
    86bc:	2a0203e1 	mov	w1, w2
    86c0:	52800002 	mov	w2, #0x0                   	// #0
    86c4:	72a00002 	movk	w2, #0x0, lsl #16
    86c8:	b81f03a2 	stur	w2, [x29, #-16]
    86cc:	1400000e 	b	0x8704
    86d0:	d42000e0 	brk	#0x7
    86d4:	d4200500 	brk	#0x28
    86d8:	6b00005f 	cmp	w2, w0
    86dc:	5400014a 	b.ge	0x8704  // b.tcont
    86e0:	d4200500 	brk	#0x28
    86e4:	d4200100 	brk	#0x8
    86e8:	b81f03a2 	stur	w2, [x29, #-16]
    86ec:	52800000 	mov	w0, #0x0                   	// #0
    86f0:	72a00000 	movk	w0, #0x0, lsl #16
    86f4:	6b02001f 	cmp	w0, w2
    86f8:	5400006a 	b.ge	0x8704  // b.tcont
    86fc:	52800002 	mov	w2, #0x0                   	// #0
    8700:	72a00002 	movk	w2, #0x0, lsl #16
    8704:	b81f03a2 	stur	w2, [x29, #-16]
    8708:	52800000 	mov	w0, #0x0                   	// #0
    870c:	72a00000 	movk	w0, #0x0, lsl #16
    8710:	b85f03a3 	ldur	w3, [x29, #-16]
    8714:	6b03001f 	cmp	w0, w3
    8718:	54000261 	b.ne	0x8764  // b.any
    871c:	b81e83a0 	stur	w0, [x29, #-24]
    8720:	b81f43a1 	stur	w1, [x29, #-12]
    8724:	b81ec3a2 	stur	w2, [x29, #-20]
    8728:	b81f03a3 	stur	w3, [x29, #-16]
    872c:	d2857500 	mov	x0, #0x2ba8                	// #11176
    8730:	f2a000c0 	movk	x0, #0x6, lsl #16
    8734:	f2c00aa0 	movk	x0, #0x55, lsl #32
    8738:	f2e00000 	movk	x0, #0x0, lsl #48
    873c:	d287fa11 	mov	x17, #0x3fd0                	// #16336
    8740:	f2a031b1 	movk	x17, #0x18d, lsl #16
    8744:	f2c00ab1 	movk	x17, #0x55, lsl #32
    8748:	f2e00011 	movk	x17, #0x0, lsl #48
    874c:	d63f0220 	blr	x17
    8750:	f81e03a0 	stur	x0, [x29, #-32]
    8754:	f85e03a0 	ldur	x0, [x29, #-32]
    8758:	97fffd0e 	bl	0x7b90
    875c:	910203ff 	add	sp, sp, #0x80
    8760:	a8c17bfd 	ldp	x29, x30, [sp], #16
    8764:	d65f03c0 	ret
    8768:	d2857500 	mov	x0, #0x2ba8                	// #11176
    876c:	f2a000c0 	movk	x0, #0x6, lsl #16
    8770:	f2c00aa0 	movk	x0, #0x55, lsl #32
    8774:	f2e00000 	movk	x0, #0x0, lsl #48
    8778:	d287fa11 	mov	x17, #0x3fd0                	// #16336
    877c:	f2a031b1 	movk	x17, #0x18d, lsl #16
    8780:	f2c00ab1 	movk	x17, #0x55, lsl #32
    8784:	f2e00011 	movk	x17, #0x0, lsl #48
    8788:	d63f0220 	blr	x17
    878c:	f81e03a0 	stur	x0, [x29, #-32]
    8790:	f85e03a0 	ldur	x0, [x29, #-32]
    8794:	97fffcff 	bl	0x7b90
    8798:	d4200500 	brk	#0x28
    879c:	d4200500 	brk	#0x28
    87a0:	52800060 	mov	w0, #0x3                   	// #3
    87a4:	72a00000 	movk	w0, #0x0, lsl #16
    87a8:	d42001c0 	brk	#0xe
    87ac:	d4200500 	brk	#0x28
    87b0:	52800061 	mov	w1, #0x3                   	// #3
    87b4:	72a00001 	movk	w1, #0x0, lsl #16
    87b8:	d42001c0 	brk	#0xe
    87bc:	b81e83a0 	stur	w0, [x29, #-24]
    87c0:	b81b83a1 	stur	w1, [x29, #-72]
    87c4:	f85d83a0 	ldur	x0, [x29, #-40]
    87c8:	b85ec3a1 	ldur	w1, [x29, #-20]
    87cc:	b85bc3a2 	ldur	w2, [x29, #-68]
    87d0:	97ffe8dc 	bl	0x2b40
    87d4:	b85f43a1 	ldur	w1, [x29, #-12]
    87d8:	f85e03a2 	ldur	x2, [x29, #-32]
    87dc:	b801c022 	stur	w2, [x1, #28]
    87e0:	f85f83a3 	ldur	x3, [x29, #-8]
    87e4:	f8018062 	stur	x2, [x3, #24]
    87e8:	b85f03a4 	ldur	w4, [x29, #-16]
    87ec:	b8018082 	stur	w2, [x4, #24]
    87f0:	d42000e0 	brk	#0x7
    87f4:	d4200500 	brk	#0x28
    87f8:	d4200500 	brk	#0x28
    87fc:	52800065 	mov	w5, #0x3                   	// #3
    8800:	72a00005 	movk	w5, #0x0, lsl #16
    8804:	d42001c0 	brk	#0xe
    8808:	d4200500 	brk	#0x28
    880c:	d4200500 	brk	#0x28
    8810:	52800066 	mov	w6, #0x3                   	// #3
    8814:	72a00006 	movk	w6, #0x0, lsl #16
    8818:	d42001c0 	brk	#0xe
    881c:	d4200500 	brk	#0x28
    8820:	d4200500 	brk	#0x28
    8824:	d4200100 	brk	#0x8
    8828:	52800067 	mov	w7, #0x3                   	// #3
    882c:	72a00007 	movk	w7, #0x0, lsl #16
    8830:	d42001c0 	brk	#0xe
    8834:	f81c03a0 	stur	x0, [x29, #-64]
    8838:	b81f43a1 	stur	w1, [x29, #-12]
    883c:	f81e03a2 	stur	x2, [x29, #-32]
    8840:	f81f83a3 	stur	x3, [x29, #-8]
    8844:	b81f03a4 	stur	w4, [x29, #-16]
    8848:	b81b83a5 	stur	w5, [x29, #-72]
    884c:	b819c3a6 	stur	w6, [x29, #-100]
    8850:	b81883a7 	stur	w7, [x29, #-120]
    8854:	f85c03a0 	ldur	x0, [x29, #-64]
    8858:	b85bc3a1 	ldur	w1, [x29, #-68]
    885c:	f85a83a2 	ldur	x2, [x29, #-88]
    8860:	b85b83a3 	ldur	w3, [x29, #-72]
    8864:	b858c3a4 	ldur	w4, [x29, #-116]
    8868:	d2906d91 	mov	x17, #0x836c                	// #33644
    886c:	f2a031b1 	movk	x17, #0x18d, lsl #16
    8870:	f2c00ab1 	movk	x17, #0x55, lsl #32
    8874:	f2e00011 	movk	x17, #0x0, lsl #48
    8878:	d63f0220 	blr	x17
    887c:	f85f83a0 	ldur	x0, [x29, #-8]
    8880:	f8408001 	ldur	x1, [x0, #8]
    8884:	d4200100 	brk	#0x8
    8888:	f8130000 	stur	x0, [x0, #-208]
    888c:	910203ff 	add	sp, sp, #0x80
    8890:	a8c17bfd 	ldp	x29, x30, [sp], #16
    8894:	d65f03c0 	ret
    8898:	d503201f 	nop
    889c:	d503201f 	nop
    88a0:	a9bf7bfd 	stp	x29, x30, [sp, #-16]!
    88a4:	910003fd 	mov	x29, sp
    88a8:	d10103ff 	sub	sp, sp, #0x40
    88ac:	f81f83a0 	stur	x0, [x29, #-8]
    88b0:	d2878100 	mov	x0, #0x3c08                	// #15368
    88b4:	f2a000c0 	movk	x0, #0x6, lsl #16
    88b8:	f2c00aa0 	movk	x0, #0x55, lsl #32
    88bc:	f2e00000 	movk	x0, #0x0, lsl #48
    88c0:	d287fa11 	mov	x17, #0x3fd0                	// #16336
    88c4:	f2a031b1 	movk	x17, #0x18d, lsl #16
    88c8:	f2c00ab1 	movk	x17, #0x55, lsl #32
    88cc:	f2e00011 	movk	x17, #0x0, lsl #48
    88d0:	d63f0220 	blr	x17
    88d4:	f81f03a0 	stur	x0, [x29, #-16]
    88d8:	f85f03a0 	ldur	x0, [x29, #-16]
    88dc:	97ffe62d 	bl	0x2190
    88e0:	52800560 	mov	w0, #0x2b                  	// #43
    88e4:	72a00000 	movk	w0, #0x0, lsl #16
    88e8:	b81ec3a0 	stur	w0, [x29, #-20]
    88ec:	f85f03a0 	ldur	x0, [x29, #-16]
    88f0:	b85ec3a1 	ldur	w1, [x29, #-20]
    88f4:	97ffe707 	bl	0x2510
    88f8:	52800000 	mov	w0, #0x0                   	// #0
    88fc:	72a00000 	movk	w0, #0x0, lsl #16
    8900:	d4200500 	brk	#0x28
    8904:	b85e83a1 	ldur	w1, [x29, #-24]
    8908:	6b00003f 	cmp	w1, w0
    890c:	5400060a 	b.ge	0x89cc  // b.tcont
    8910:	b81e43a0 	stur	w0, [x29, #-28]
    8914:	f85f83a2 	ldur	x2, [x29, #-8]
    8918:	11000440 	add	w0, w2, #0x1
    891c:	52800003 	mov	w3, #0x0                   	// #0
    8920:	72a00003 	movk	w3, #0x0, lsl #16
    8924:	b85e43a4 	ldur	w4, [x29, #-28]
    8928:	6b03009f 	cmp	w4, w3
    892c:	5400028a 	b.ge	0x897c  // b.tcont
    8930:	f85f03a5 	ldur	x5, [x29, #-16]
    8934:	710000bf 	cmp	w5, #0x0
    8938:	54000601 	b.ne	0x89f8  // b.any
    893c:	b81ec3a0 	stur	w0, [x29, #-20]
    8940:	b81e83a1 	stur	w1, [x29, #-24]
    8944:	f81f83a2 	stur	x2, [x29, #-8]
    8948:	b81dc3a3 	stur	w3, [x29, #-36]
    894c:	b81e43a4 	stur	w4, [x29, #-28]
    8950:	f81f03a5 	stur	x5, [x29, #-16]
    8954:	d298b091 	mov	x17, #0xc584                	// #50564
    8958:	f2a031b1 	movk	x17, #0x18d, lsl #16
    895c:	f2c00ab1 	movk	x17, #0x55, lsl #32
    8960:	f2e00011 	movk	x17, #0x0, lsl #48
    8964:	d63f0220 	blr	x17
    8968:	52800580 	mov	w0, #0x2c                  	// #44
    896c:	72a00000 	movk	w0, #0x0, lsl #16
    8970:	b81e03a0 	stur	w0, [x29, #-32]
    8974:	f85f03a0 	ldur	x0, [x29, #-16]
    8978:	b85e03a1 	ldur	w1, [x29, #-32]
    897c:	97ffe6e5 	bl	0x2510
    8980:	d4200500 	brk	#0x28
    8984:	f85f03a0 	ldur	x0, [x29, #-16]
    8988:	7100001f 	cmp	w0, #0x0
    898c:	54000381 	b.ne	0x89fc  // b.any
    8990:	f81f03a0 	stur	x0, [x29, #-16]
    8994:	d298b091 	mov	x17, #0xc584                	// #50564
    8998:	f2a031b1 	movk	x17, #0x18d, lsl #16
    899c:	f2c00ab1 	movk	x17, #0x55, lsl #32
    89a0:	f2e00011 	movk	x17, #0x0, lsl #48
    89a4:	d63f0220 	blr	x17
    89a8:	52800060 	mov	w0, #0x3                   	// #3
    89ac:	72a00000 	movk	w0, #0x0, lsl #16
    89b0:	d42001c0 	brk	#0xe
    89b4:	d4200980 	brk	#0x4c
    89b8:	d4200760 	brk	#0x3b
    89bc:	b81dc3a0 	stur	w0, [x29, #-36]
    89c0:	f85f03a0 	ldur	x0, [x29, #-16]
    89c4:	f85c83a1 	ldur	x1, [x29, #-56]
    89c8:	97ffe60a 	bl	0x21f0
    89cc:	17ffffcd 	b	0x8900
    89d0:	f85f03a0 	ldur	x0, [x29, #-16]
    89d4:	7100001f 	cmp	w0, #0x0
    89d8:	54000381 	b.ne	0x8a48  // b.any
    89dc:	f81f03a0 	stur	x0, [x29, #-16]
    89e0:	d298b091 	mov	x17, #0xc584                	// #50564
    89e4:	f2a031b1 	movk	x17, #0x18d, lsl #16
    89e8:	f2c00ab1 	movk	x17, #0x55, lsl #32
    89ec:	f2e00011 	movk	x17, #0x0, lsl #48
    89f0:	d63f0220 	blr	x17
    89f4:	528004e0 	mov	w0, #0x27                  	// #39
    89f8:	72a00000 	movk	w0, #0x0, lsl #16
    89fc:	b81ec3a0 	stur	w0, [x29, #-20]
    8a00:	f85f03a0 	ldur	x0, [x29, #-16]
    8a04:	b85ec3a1 	ldur	w1, [x29, #-20]
    8a08:	97ffe6c2 	bl	0x2510
    8a0c:	f85f03a0 	ldur	x0, [x29, #-16]
    8a10:	97ffe7ac 	bl	0x28c0
    8a14:	910103ff 	add	sp, sp, #0x40
    8a18:	a8c17bfd 	ldp	x29, x30, [sp], #16
    8a1c:	d65f03c0 	ret
    8a20:	a9bf7bfd 	stp	x29, x30, [sp, #-16]!
    8a24:	910003fd 	mov	x29, sp
    8a28:	d10143ff 	sub	sp, sp, #0x50
    8a2c:	d4200500 	brk	#0x28
    8a30:	d4200500 	brk	#0x28
    8a34:	b85f03a2 	ldur	w2, [x29, #-16]
    8a38:	b85ec3a3 	ldur	w3, [x29, #-20]
    8a3c:	6b02007f 	cmp	w3, w2
    8a40:	54000121 	b.ne	0x8a64  // b.any
    8a44:	d4200500 	brk	#0x28
    8a48:	f81f83a0 	stur	x0, [x29, #-8]
    8a4c:	b81f43a1 	stur	w1, [x29, #-12]
    8a50:	b81f03a2 	stur	w2, [x29, #-16]
    8a54:	b81ec3a3 	stur	w3, [x29, #-20]
    8a58:	f85f83a0 	ldur	x0, [x29, #-8]
    8a5c:	b85f03a1 	ldur	w1, [x29, #-16]
    8a60:	940000a8 	bl	0x8d00
    8a64:	14000004 	b	0x8a74
    8a68:	f85f83a0 	ldur	x0, [x29, #-8]
    8a6c:	f8408001 	ldur	x1, [x0, #8]
    8a70:	11000401 	add	w1, w0, #0x1
    8a74:	f8155000 	stur	x0, [x0, #-171]
    8a78:	d4200500 	brk	#0x28
    8a7c:	d4200500 	brk	#0x28
    8a80:	528000e1 	mov	w1, #0x7                   	// #7
    8a84:	72a00001 	movk	w1, #0x0, lsl #16
    8a88:	52800062 	mov	w2, #0x3                   	// #3
    8a8c:	72a00002 	movk	w2, #0x0, lsl #16
    8a90:	d42001c0 	brk	#0xe
    8a94:	d4200500 	brk	#0x28
    8a98:	d4200500 	brk	#0x28
    8a9c:	52800003 	mov	w3, #0x0                   	// #0
    8aa0:	72a00003 	movk	w3, #0x0, lsl #16
    8aa4:	d4200500 	brk	#0x28
    8aa8:	528000e4 	mov	w4, #0x7                   	// #7
    8aac:	72a00004 	movk	w4, #0x0, lsl #16
    8ab0:	d4200100 	brk	#0x8
    8ab4:	52800064 	mov	w4, #0x3                   	// #3
    8ab8:	72a00004 	movk	w4, #0x0, lsl #16
    8abc:	d42001c0 	brk	#0xe
    8ac0:	f81f83a0 	stur	x0, [x29, #-8]
    8ac4:	b81f03a1 	stur	w1, [x29, #-16]
    8ac8:	b81ec3a2 	stur	w2, [x29, #-20]
    8acc:	b81bc3a3 	stur	w3, [x29, #-68]
    8ad0:	b81b43a4 	stur	w4, [x29, #-76]
    8ad4:	f85e03a0 	ldur	x0, [x29, #-32]
    8ad8:	b85f03a1 	ldur	w1, [x29, #-16]
    8adc:	f85c03a2 	ldur	x2, [x29, #-64]
    8ae0:	b85bc3a3 	ldur	w3, [x29, #-68]
    8ae4:	b85b83a4 	ldur	w4, [x29, #-72]
    8ae8:	d2906d91 	mov	x17, #0x836c                	// #33644
    8aec:	f2a031b1 	movk	x17, #0x18d, lsl #16
    8af0:	f2c00ab1 	movk	x17, #0x55, lsl #32
    8af4:	f2e00011 	movk	x17, #0x0, lsl #48
    8af8:	d63f0220 	blr	x17
    8afc:	d4200500 	brk	#0x28
    8b00:	52800000 	mov	w0, #0x0                   	// #0
    8b04:	72a00000 	movk	w0, #0x0, lsl #16
    8b08:	52800061 	mov	w1, #0x3                   	// #3
    8b0c:	72a00001 	movk	w1, #0x0, lsl #16
    8b10:	d42001c0 	brk	#0xe
    8b14:	d4200a00 	brk	#0x50
    8b18:	910143ff 	add	sp, sp, #0x50
    8b1c:	a8c17bfd 	ldp	x29, x30, [sp], #16
    8b20:	d65f03c0 	ret
    8b24:	d503201f 	nop
    8b28:	d503201f 	nop
    8b2c:	d503201f 	nop
    8b30:	a9bf7bfd 	stp	x29, x30, [sp, #-16]!
    8b34:	910003fd 	mov	x29, sp
    8b38:	d10183ff 	sub	sp, sp, #0x60
    8b3c:	52800003 	mov	w3, #0x0                   	// #0
    8b40:	72a00003 	movk	w3, #0x0, lsl #16
    8b44:	6b01007f 	cmp	w3, w1
    8b48:	5400018a 	b.ge	0x8b78  // b.tcont
    8b4c:	d4200500 	brk	#0x28
    8b50:	d42000e0 	brk	#0x7
    8b54:	b85ec3a4 	ldur	w4, [x29, #-20]
    8b58:	2a0403e1 	mov	w1, w4
    8b5c:	52800003 	mov	w3, #0x0                   	// #0
    8b60:	72a00003 	movk	w3, #0x0, lsl #16
    8b64:	6b04007f 	cmp	w3, w4
    8b68:	5400006a 	b.ge	0x8b74  // b.tcont
    8b6c:	52800004 	mov	w4, #0x0                   	// #0
    8b70:	72a00004 	movk	w4, #0x0, lsl #16
    8b74:	2a0403e1 	mov	w1, w4
    8b78:	14000005 	b	0x8b8c
    8b7c:	d4200500 	brk	#0x28
    8b80:	6b03003f 	cmp	w1, w3
    8b84:	5400004a 	b.ge	0x8b8c  // b.tcont
    8b88:	d4200500 	brk	#0x28
    8b8c:	2a0403e1 	mov	w1, w4
    8b90:	d4200500 	brk	#0x28
    8b94:	d4200500 	brk	#0x28
    8b98:	6b04007f 	cmp	w3, w4
    8b9c:	54000141 	b.ne	0x8bc4  // b.any
    8ba0:	d4200500 	brk	#0x28
    8ba4:	f81f83a0 	stur	x0, [x29, #-8]
    8ba8:	b81f43a1 	stur	w1, [x29, #-12]
    8bac:	b81f03a2 	stur	w2, [x29, #-16]
    8bb0:	b81e83a3 	stur	w3, [x29, #-24]
    8bb4:	b81ec3a4 	stur	w4, [x29, #-20]
    8bb8:	f85f83a0 	ldur	x0, [x29, #-8]
    8bbc:	b85ec3a1 	ldur	w1, [x29, #-20]
    8bc0:	94000050 	bl	0x8d00
    8bc4:	14000004 	b	0x8bd4
    8bc8:	f85f83a0 	ldur	x0, [x29, #-8]
    8bcc:	f8408001 	ldur	x1, [x0, #8]
    8bd0:	11000401 	add	w1, w0, #0x1
    8bd4:	f8004000 	stur	x0, [x0, #4]
    8bd8:	d4200500 	brk	#0x28
    8bdc:	d4200500 	brk	#0x28
    8be0:	528000e2 	mov	w2, #0x7                   	// #7
    8be4:	72a00002 	movk	w2, #0x0, lsl #16
    8be8:	d42000e0 	brk	#0x7
    8bec:	52800062 	mov	w2, #0x3                   	// #3
    8bf0:	72a00002 	movk	w2, #0x0, lsl #16
    8bf4:	d42001c0 	brk	#0xe
    8bf8:	d4200500 	brk	#0x28
    8bfc:	d4200500 	brk	#0x28
    8c00:	52800063 	mov	w3, #0x3                   	// #3
    8c04:	72a00003 	movk	w3, #0x0, lsl #16
    8c08:	d42001c0 	brk	#0xe
    8c0c:	d4200500 	brk	#0x28
    8c10:	d4200500 	brk	#0x28
    8c14:	d4200100 	brk	#0x8
    8c18:	528000e4 	mov	w4, #0x7                   	// #7
    8c1c:	72a00004 	movk	w4, #0x0, lsl #16
    8c20:	d4200100 	brk	#0x8
    8c24:	52800064 	mov	w4, #0x3                   	// #3
    8c28:	72a00004 	movk	w4, #0x0, lsl #16
    8c2c:	d42001c0 	brk	#0xe
    8c30:	f81f83a0 	stur	x0, [x29, #-8]
    8c34:	b81ec3a1 	stur	w1, [x29, #-20]
    8c38:	b81e83a2 	stur	w2, [x29, #-24]
    8c3c:	b81c43a3 	stur	w3, [x29, #-60]
    8c40:	b81a83a4 	stur	w4, [x29, #-88]
    8c44:	f85e03a0 	ldur	x0, [x29, #-32]
    8c48:	b85ec3a1 	ldur	w1, [x29, #-20]
    8c4c:	f85d03a2 	ldur	x2, [x29, #-48]
    8c50:	b85e83a3 	ldur	w3, [x29, #-24]
    8c54:	b85ac3a4 	ldur	w4, [x29, #-84]
    8c58:	d2906d91 	mov	x17, #0x836c                	// #33644
    8c5c:	f2a031b1 	movk	x17, #0x18d, lsl #16
    8c60:	f2c00ab1 	movk	x17, #0x55, lsl #32
    8c64:	f2e00011 	movk	x17, #0x0, lsl #48
    8c68:	d63f0220 	blr	x17
    8c6c:	d4200500 	brk	#0x28
    8c70:	52800060 	mov	w0, #0x3                   	// #3
    8c74:	72a00000 	movk	w0, #0x0, lsl #16
    8c78:	d42001c0 	brk	#0xe
    8c7c:	d4200a00 	brk	#0x50
    8c80:	910183ff 	add	sp, sp, #0x60
    8c84:	a8c17bfd 	ldp	x29, x30, [sp], #16
    8c88:	d65f03c0 	ret
    8c8c:	d503201f 	nop
    8c90:	a9bf7bfd 	stp	x29, x30, [sp, #-16]!
    8c94:	910003fd 	mov	x29, sp
    8c98:	d100c3ff 	sub	sp, sp, #0x30
    8c9c:	aa1f03e2 	mov	x2, xzr
    8ca0:	f81f83a0 	stur	x0, [x29, #-8]
    8ca4:	b81f43a1 	stur	w1, [x29, #-12]
    8ca8:	f81e03a2 	stur	x2, [x29, #-32]
    8cac:	f85f83a0 	ldur	x0, [x29, #-8]
    8cb0:	b85f43a1 	ldur	w1, [x29, #-12]
    8cb4:	f85e03a2 	ldur	x2, [x29, #-32]
    8cb8:	9400004e 	bl	0x8df0
    8cbc:	52800201 	mov	w1, #0x10                  	// #16
    8cc0:	72a00001 	movk	w1, #0x0, lsl #16
    8cc4:	6b00003f 	cmp	w1, w0
    8cc8:	54000041 	b.ne	0x8cd0  // b.any
    8ccc:	110003e2 	mov	w2, wsp
    8cd0:	14000001 	b	0x8cd4
    8cd4:	110007e2 	add	w2, wsp, #0x1
    8cd8:	9100c3ff 	add	sp, sp, #0x30
    8cdc:	a8c17bfd 	ldp	x29, x30, [sp], #16
    8ce0:	d65f03c0 	ret
    8ce4:	d503201f 	nop
    8ce8:	d503201f 	nop
    8cec:	d503201f 	nop
    8cf0:	a9bf7bfd 	stp	x29, x30, [sp, #-16]!
    8cf4:	910003fd 	mov	x29, sp
    8cf8:	d10183ff 	sub	sp, sp, #0x60
    8cfc:	aa1f03e2 	mov	x2, xzr
    8d00:	f81f83a0 	stur	x0, [x29, #-8]
    8d04:	b81f43a1 	stur	w1, [x29, #-12]
    8d08:	f81e83a2 	stur	x2, [x29, #-24]
    8d0c:	f85f83a0 	ldur	x0, [x29, #-8]
    8d10:	b85f43a1 	ldur	w1, [x29, #-12]
    8d14:	f85e83a2 	ldur	x2, [x29, #-24]
    8d18:	94000036 	bl	0x8df0
    8d1c:	52800001 	mov	w1, #0x0                   	// #0
    8d20:	72a00001 	movk	w1, #0x0, lsl #16
    8d24:	6b00003f 	cmp	w1, w0
    8d28:	5400008a 	b.ge	0x8d38  // b.tcont
    8d2c:	110003e2 	mov	w2, wsp
    8d30:	910183ff 	add	sp, sp, #0x60
    8d34:	a8c17bfd 	ldp	x29, x30, [sp], #16
    8d38:	d65f03c0 	ret
    8d3c:	f85f83a3 	ldur	x3, [x29, #-8]
    8d40:	f8408064 	ldur	x4, [x3, #8]
    8d44:	51000464 	sub	w4, w3, #0x1
    8d48:	f8003063 	stur	x3, [x3, #3]
    8d4c:	d4200500 	brk	#0x28
    8d50:	d4200500 	brk	#0x28
    8d54:	52800061 	mov	w1, #0x3                   	// #3
    8d58:	72a00001 	movk	w1, #0x0, lsl #16
    8d5c:	d42001c0 	brk	#0xe
    8d60:	d4200500 	brk	#0x28
    8d64:	d4200500 	brk	#0x28
    8d68:	528000e5 	mov	w5, #0x7                   	// #7
    8d6c:	72a00005 	movk	w5, #0x0, lsl #16
    8d70:	d42000e0 	brk	#0x7
    8d74:	52800065 	mov	w5, #0x3                   	// #3
    8d78:	72a00005 	movk	w5, #0x0, lsl #16
    8d7c:	d42001c0 	brk	#0xe
    8d80:	d4200500 	brk	#0x28
    8d84:	d4200500 	brk	#0x28
    8d88:	d4200100 	brk	#0x8
    8d8c:	52800066 	mov	w6, #0x3                   	// #3
    8d90:	72a00006 	movk	w6, #0x0, lsl #16
    8d94:	d42001c0 	brk	#0xe
    8d98:	b81f03a0 	stur	w0, [x29, #-16]
    8d9c:	b81e03a1 	stur	w1, [x29, #-32]
    8da0:	381df3a2 	sturb	w2, [x29, #-33]
    8da4:	f81f83a3 	stur	x3, [x29, #-8]
    8da8:	b81e43a4 	stur	w4, [x29, #-28]
    8dac:	b81b43a5 	stur	w5, [x29, #-76]
    8db0:	b81a03a6 	stur	w6, [x29, #-96]
    8db4:	f85d03a0 	ldur	x0, [x29, #-48]
    8db8:	b85e43a1 	ldur	w1, [x29, #-28]
    8dbc:	f85c03a2 	ldur	x2, [x29, #-64]
    8dc0:	b85e03a3 	ldur	w3, [x29, #-32]
    8dc4:	b85a43a4 	ldur	w4, [x29, #-92]
    8dc8:	d2906d91 	mov	x17, #0x836c                	// #33644
    8dcc:	f2a031b1 	movk	x17, #0x18d, lsl #16
    8dd0:	f2c00ab1 	movk	x17, #0x55, lsl #32
    8dd4:	f2e00011 	movk	x17, #0x0, lsl #48
    8dd8:	d63f0220 	blr	x17
    8ddc:	110007e0 	add	w0, wsp, #0x1
    8de0:	910183ff 	add	sp, sp, #0x60
    8de4:	a8c17bfd 	ldp	x29, x30, [sp], #16
    8de8:	d65f03c0 	ret
    8dec:	d503201f 	nop
    8df0:	a9bf7bfd 	stp	x29, x30, [sp, #-16]!
    8df4:	910003fd 	mov	x29, sp
    8df8:	d10103ff 	sub	sp, sp, #0x40
    8dfc:	7100005f 	cmp	w2, #0x0
    8e00:	54000061 	b.ne	0x8e0c  // b.any
    8e04:	52800003 	mov	w3, #0x0                   	// #0
    8e08:	72a00003 	movk	w3, #0x0, lsl #16
    8e0c:	14000012 	b	0x8e54
    8e10:	f81f83a0 	stur	x0, [x29, #-8]
    8e14:	b81f43a1 	stur	w1, [x29, #-12]
    8e18:	f81e83a2 	stur	x2, [x29, #-24]
    8e1c:	b81e43a3 	stur	w3, [x29, #-28]
    8e20:	d13fa3e0 	sub	x0, sp, #0xfe8
    8e24:	d2876101 	mov	x1, #0x3b08                	// #15112
    8e28:	f2a000c1 	movk	x1, #0x6, lsl #16
    8e2c:	f2c00aa1 	movk	x1, #0x55, lsl #32
    8e30:	f2e00001 	movk	x1, #0x0, lsl #48
    8e34:	d2851102 	mov	x2, #0x2888                	// #10376
    8e38:	f2a000c2 	movk	x2, #0x6, lsl #16
    8e3c:	f2c00aa2 	movk	x2, #0x55, lsl #32
    8e40:	f2e00002 	movk	x2, #0x0, lsl #48
    8e44:	d293ee91 	mov	x17, #0x9f74                	// #40820
    8e48:	f2a031b1 	movk	x17, #0x18d, lsl #16
    8e4c:	f2c00ab1 	movk	x17, #0x55, lsl #32
    8e50:	f2e00011 	movk	x17, #0x0, lsl #48
    8e54:	d63f0220 	blr	x17
    8e58:	52800000 	mov	w0, #0x0                   	// #0
    8e5c:	72a00000 	movk	w0, #0x0, lsl #16
    8e60:	b85e43a1 	ldur	w1, [x29, #-28]
    8e64:	6b01001f 	cmp	w0, w1
    8e68:	5400016a 	b.ge	0x8e94  // b.tcont
    8e6c:	d4200500 	brk	#0x28
    8e70:	d42000e0 	brk	#0x7
    8e74:	b85e03a2 	ldur	w2, [x29, #-32]
    8e78:	2a0203e1 	mov	w1, w2
    8e7c:	52800000 	mov	w0, #0x0                   	// #0
    8e80:	72a00000 	movk	w0, #0x0, lsl #16
    8e84:	6b02001f 	cmp	w0, w2
    8e88:	5400006a 	b.ge	0x8e94  // b.tcont
    8e8c:	52800002 	mov	w2, #0x0                   	// #0
    8e90:	72a00002 	movk	w2, #0x0, lsl #16
    8e94:	2a0203e1 	mov	w1, w2
    8e98:	2a0103e2 	mov	w2, w1
    8e9c:	d4200500 	brk	#0x28
    8ea0:	6b02001f 	cmp	w0, w2
    8ea4:	5400020a 	b.ge	0x8ee4  // b.tcont
    8ea8:	b81d83a2 	stur	w2, [x29, #-40]
    8eac:	f85f83a3 	ldur	x3, [x29, #-8]
    8eb0:	11000462 	add	w2, w3, #0x1
    8eb4:	d4200500 	brk	#0x28
    8eb8:	52800064 	mov	w4, #0x3                   	// #3
    8ebc:	72a00004 	movk	w4, #0x0, lsl #16
    8ec0:	d42001c0 	brk	#0xe
    8ec4:	d4200980 	brk	#0x4c
    8ec8:	b85d43a5 	ldur	w5, [x29, #-44]
    8ecc:	b85f43a6 	ldur	w6, [x29, #-12]
    8ed0:	6b0500df 	cmp	w6, w5
    8ed4:	54000061 	b.ne	0x8ee0  // b.any
    8ed8:	910103ff 	add	sp, sp, #0x40
    8edc:	a8c17bfd 	ldp	x29, x30, [sp], #16
    8ee0:	d65f03c0 	ret
    8ee4:	17ffffee 	b	0x8e9c
    8ee8:	52800202 	mov	w2, #0x10                  	// #16
    8eec:	72a00002 	movk	w2, #0x0, lsl #16
    8ef0:	910103ff 	add	sp, sp, #0x40
    8ef4:	a8c17bfd 	ldp	x29, x30, [sp], #16
    8ef8:	d65f03c0 	ret
    8efc:	d503201f 	nop
    8f00:	a9bf7bfd 	stp	x29, x30, [sp, #-16]!
    8f04:	910003fd 	mov	x29, sp
    8f08:	d100c3ff 	sub	sp, sp, #0x30
    8f0c:	d4200500 	brk	#0x28
    8f10:	7100005f 	cmp	w2, #0x0
    8f14:	54000240 	b.eq	0x8f5c  // b.none
    8f18:	f81f83a0 	stur	x0, [x29, #-8]
    8f1c:	b81f43a1 	stur	w1, [x29, #-12]
    8f20:	f81e83a2 	stur	x2, [x29, #-24]
    8f24:	d13fa3e0 	sub	x0, sp, #0xfe8
    8f28:	d2876101 	mov	x1, #0x3b08                	// #15112
    8f2c:	f2a000c1 	movk	x1, #0x6, lsl #16
    8f30:	f2c00aa1 	movk	x1, #0x55, lsl #32
    8f34:	f2e00001 	movk	x1, #0x0, lsl #48
    8f38:	d2851102 	mov	x2, #0x2888                	// #10376
    8f3c:	f2a000c2 	movk	x2, #0x6, lsl #16
    8f40:	f2c00aa2 	movk	x2, #0x55, lsl #32
    8f44:	f2e00002 	movk	x2, #0x0, lsl #48
    8f48:	d293ee91 	mov	x17, #0x9f74                	// #40820
    8f4c:	f2a031b1 	movk	x17, #0x18d, lsl #16
    8f50:	f2c00ab1 	movk	x17, #0x55, lsl #32
    8f54:	f2e00011 	movk	x17, #0x0, lsl #48
    8f58:	d63f0220 	blr	x17
    8f5c:	14000003 	b	0x8f68
    8f60:	528000e0 	mov	w0, #0x7                   	// #7
    8f64:	72a00000 	movk	w0, #0x0, lsl #16
    8f68:	d4200100 	brk	#0x8
    8f6c:	b85e03a1 	ldur	w1, [x29, #-32]
    8f70:	b85e43a2 	ldur	w2, [x29, #-28]
    8f74:	6b01005f 	cmp	w2, w1
    8f78:	540000ab 	b.lt	0x8f8c  // b.tstop
    8f7c:	528000e3 	mov	w3, #0x7                   	// #7
    8f80:	72a00003 	movk	w3, #0x0, lsl #16
    8f84:	d4200100 	brk	#0x8
    8f88:	2a0003e1 	mov	w1, w0
    8f8c:	14000006 	b	0x8fa4
    8f90:	52800003 	mov	w3, #0x0                   	// #0
    8f94:	72a00003 	movk	w3, #0x0, lsl #16
    8f98:	6b01007f 	cmp	w3, w1
    8f9c:	5400004a 	b.ge	0x8fa4  // b.tcont
    8fa0:	d42000e0 	brk	#0x7
    8fa4:	2a0003e1 	mov	w1, w0
    8fa8:	52800003 	mov	w3, #0x0                   	// #0
    8fac:	72a00003 	movk	w3, #0x0, lsl #16
    8fb0:	6b01007f 	cmp	w3, w1
    8fb4:	540001cb 	b.lt	0x8fec  // b.tstop
    8fb8:	d4200500 	brk	#0x28
    8fbc:	52800063 	mov	w3, #0x3                   	// #3
    8fc0:	72a00003 	movk	w3, #0x0, lsl #16
    8fc4:	d42001c0 	brk	#0xe
    8fc8:	d4200980 	brk	#0x4c
    8fcc:	b85f43a4 	ldur	w4, [x29, #-12]
    8fd0:	6b00009f 	cmp	w4, w0
    8fd4:	54000061 	b.ne	0x8fe0  // b.any
    8fd8:	9100c3ff 	add	sp, sp, #0x30
    8fdc:	a8c17bfd 	ldp	x29, x30, [sp], #16
    8fe0:	d65f03c0 	ret
    8fe4:	f85f83a5 	ldur	x5, [x29, #-8]
    8fe8:	510004a1 	sub	w1, w5, #0x1
    8fec:	17ffffee 	b	0x8fa4
    8ff0:	52800200 	mov	w0, #0x10                  	// #16
    8ff4:	72a00000 	movk	w0, #0x0, lsl #16
    8ff8:	9100c3ff 	add	sp, sp, #0x30
    8ffc:	a8c17bfd 	ldp	x29, x30, [sp], #16
    9000:	d65f03c0 	ret
    9004:	d503201f 	nop
    9008:	d503201f 	nop
    900c:	d503201f 	nop
    9010:	a9bf7bfd 	stp	x29, x30, [sp, #-16]!
    9014:	910003fd 	mov	x29, sp
    9018:	d10143ff 	sub	sp, sp, #0x50
    901c:	f81f83a0 	stur	x0, [x29, #-8]
    9020:	d2857500 	mov	x0, #0x2ba8                	// #11176
    9024:	f2a000c0 	movk	x0, #0x6, lsl #16
    9028:	f2c00aa0 	movk	x0, #0x55, lsl #32
    902c:	f2e00000 	movk	x0, #0x0, lsl #48
    9030:	d287fa11 	mov	x17, #0x3fd0                	// #16336
    9034:	f2a031b1 	movk	x17, #0x18d, lsl #16
    9038:	f2c00ab1 	movk	x17, #0x55, lsl #32
    903c:	f2e00011 	movk	x17, #0x0, lsl #48
    9040:	d63f0220 	blr	x17
    9044:	f81f03a0 	stur	x0, [x29, #-16]
    9048:	f85f03a0 	ldur	x0, [x29, #-16]
    904c:	97fffad1 	bl	0x7b90
    9050:	d4200500 	brk	#0x28
    9054:	f85f03a1 	ldur	x1, [x29, #-16]
    9058:	f85f83a2 	ldur	x2, [x29, #-8]
    905c:	f8155041 	stur	x1, [x2, #-171]
    9060:	d4200500 	brk	#0x28
    9064:	d4200500 	brk	#0x28
    9068:	52800063 	mov	w3, #0x3                   	// #3
    906c:	72a00003 	movk	w3, #0x0, lsl #16
    9070:	d42001c0 	brk	#0xe
    9074:	f81f03a1 	stur	x1, [x29, #-16]
    9078:	f81f83a2 	stur	x2, [x29, #-8]
    907c:	b81d43a3 	stur	w3, [x29, #-44]
    9080:	b85ec3a0 	ldur	w0, [x29, #-20]
    9084:	d2905f91 	mov	x17, #0x82fc                	// #33532
    9088:	f2a031b1 	movk	x17, #0x18d, lsl #16
    908c:	f2c00ab1 	movk	x17, #0x55, lsl #32
    9090:	f2e00011 	movk	x17, #0x0, lsl #48
    9094:	d63f0220 	blr	x17
    9098:	f85f03a1 	ldur	x1, [x29, #-16]
    909c:	f8003021 	stur	x1, [x1, #3]
    90a0:	d4200500 	brk	#0x28
    90a4:	f8410022 	ldur	x2, [x1, #16]
    90a8:	52800003 	mov	w3, #0x0                   	// #0
    90ac:	72a00003 	movk	w3, #0x0, lsl #16
    90b0:	d4200500 	brk	#0x28
    90b4:	52800004 	mov	w4, #0x0                   	// #0
    90b8:	72a00004 	movk	w4, #0x0, lsl #16
    90bc:	d4200500 	brk	#0x28
    90c0:	52800065 	mov	w5, #0x3                   	// #3
    90c4:	72a00005 	movk	w5, #0x0, lsl #16
    90c8:	d42001c0 	brk	#0xe
    90cc:	f81d83a0 	stur	x0, [x29, #-40]
    90d0:	f81f03a1 	stur	x1, [x29, #-16]
    90d4:	f81c03a2 	stur	x2, [x29, #-64]
    90d8:	b81ec3a3 	stur	w3, [x29, #-20]
    90dc:	b81d43a4 	stur	w4, [x29, #-44]
    90e0:	b81b03a5 	stur	w5, [x29, #-80]
    90e4:	f85c03a0 	ldur	x0, [x29, #-64]
    90e8:	b85ec3a1 	ldur	w1, [x29, #-20]
    90ec:	f85b83a2 	ldur	x2, [x29, #-72]
    90f0:	b85d43a3 	ldur	w3, [x29, #-44]
    90f4:	b85b43a4 	ldur	w4, [x29, #-76]
    90f8:	d2906d91 	mov	x17, #0x836c                	// #33644
    90fc:	f2a031b1 	movk	x17, #0x18d, lsl #16
    9100:	f2c00ab1 	movk	x17, #0x55, lsl #32
    9104:	f2e00011 	movk	x17, #0x0, lsl #48
    9108:	d63f0220 	blr	x17
    910c:	910143ff 	add	sp, sp, #0x50
    9110:	a8c17bfd 	ldp	x29, x30, [sp], #16
    9114:	d65f03c0 	ret
    9118:	d503201f 	nop
    911c:	d503201f 	nop
    9120:	a9bf7bfd 	stp	x29, x30, [sp, #-16]!
    9124:	910003fd 	mov	x29, sp
    9128:	d10043ff 	sub	sp, sp, #0x10
    912c:	f81f83a0 	stur	x0, [x29, #-8]
    9130:	d2892500 	mov	x0, #0x4928                	// #18728
    9134:	f2a000c0 	movk	x0, #0x6, lsl #16
    9138:	f2c00aa0 	movk	x0, #0x55, lsl #32
    913c:	f2e00000 	movk	x0, #0x0, lsl #48
    9140:	d287fa11 	mov	x17, #0x3fd0                	// #16336
    9144:	f2a031b1 	movk	x17, #0x18d, lsl #16
    9148:	f2c00ab1 	movk	x17, #0x55, lsl #32
    914c:	f2e00011 	movk	x17, #0x0, lsl #48
    9150:	d63f0220 	blr	x17
    9154:	f81f03a0 	stur	x0, [x29, #-16]
    9158:	f85f03a0 	ldur	x0, [x29, #-16]
    915c:	f85f83a1 	ldur	x1, [x29, #-8]
    9160:	9400005c 	bl	0x92d0
    9164:	910043ff 	add	sp, sp, #0x10
    9168:	a8c17bfd 	ldp	x29, x30, [sp], #16
    916c:	d65f03c0 	ret
    9170:	a9bf7bfd 	stp	x29, x30, [sp, #-16]!
    9174:	910003fd 	mov	x29, sp
    9178:	d10043ff 	sub	sp, sp, #0x10
    917c:	f81f83a0 	stur	x0, [x29, #-8]
    9180:	d2892d00 	mov	x0, #0x4968                	// #18792
    9184:	f2a000c0 	movk	x0, #0x6, lsl #16
    9188:	f2c00aa0 	movk	x0, #0x55, lsl #32
    918c:	f2e00000 	movk	x0, #0x0, lsl #48
    9190:	d287fa11 	mov	x17, #0x3fd0                	// #16336
    9194:	f2a031b1 	movk	x17, #0x18d, lsl #16
    9198:	f2c00ab1 	movk	x17, #0x55, lsl #32
    919c:	f2e00011 	movk	x17, #0x0, lsl #48
    91a0:	d63f0220 	blr	x17
    91a4:	f81f03a0 	stur	x0, [x29, #-16]
    91a8:	f85f03a0 	ldur	x0, [x29, #-16]
    91ac:	f85f83a1 	ldur	x1, [x29, #-8]
    91b0:	940000b4 	bl	0x9480
    91b4:	910043ff 	add	sp, sp, #0x10
    91b8:	a8c17bfd 	ldp	x29, x30, [sp], #16
    91bc:	d65f03c0 	ret
    91c0:	a9bf7bfd 	stp	x29, x30, [sp, #-16]!
    91c4:	910003fd 	mov	x29, sp
    91c8:	d10183ff 	sub	sp, sp, #0x60
    91cc:	f81f83a0 	stur	x0, [x29, #-8]
    91d0:	f81f03a1 	stur	x1, [x29, #-16]
    91d4:	d285e900 	mov	x0, #0x2f48                	// #12104
    91d8:	f2a000c0 	movk	x0, #0x6, lsl #16
    91dc:	f2c00aa0 	movk	x0, #0x55, lsl #32
    91e0:	f2e00000 	movk	x0, #0x0, lsl #48
    91e4:	d287fa11 	mov	x17, #0x3fd0                	// #16336
    91e8:	f2a031b1 	movk	x17, #0x18d, lsl #16
    91ec:	f2c00ab1 	movk	x17, #0x55, lsl #32
    91f0:	f2e00011 	movk	x17, #0x0, lsl #48
    91f4:	d63f0220 	blr	x17
    91f8:	f81e83a0 	stur	x0, [x29, #-24]
    91fc:	f85e83a0 	ldur	x0, [x29, #-24]
    9200:	94000034 	bl	0x92d0
    9204:	d4200500 	brk	#0x28
    9208:	52800000 	mov	w0, #0x0                   	// #0
    920c:	72a00000 	movk	w0, #0x0, lsl #16
    9210:	b85e43a1 	ldur	w1, [x29, #-28]
    9214:	6b00003f 	cmp	w1, w0
    9218:	5400012a 	b.ge	0x923c  // b.tcont
    921c:	d4200500 	brk	#0x28
    9220:	528000e0 	mov	w0, #0x7                   	// #7
    9224:	72a00000 	movk	w0, #0x0, lsl #16
    9228:	d4200100 	brk	#0x8
    922c:	b81e03a0 	stur	w0, [x29, #-32]
    9230:	b81e43a1 	stur	w1, [x29, #-28]
    9234:	f85e83a0 	ldur	x0, [x29, #-24]
    9238:	b85e43a1 	ldur	w1, [x29, #-28]
    923c:	940000d5 	bl	0x9590
    9240:	52800000 	mov	w0, #0x0                   	// #0
    9244:	72a00000 	movk	w0, #0x0, lsl #16
    9248:	d4200500 	brk	#0x28
    924c:	b85e03a1 	ldur	w1, [x29, #-32]
    9250:	6b00003f 	cmp	w1, w0
    9254:	5400048a 	b.ge	0x92e4  // b.tcont
    9258:	b81dc3a0 	stur	w0, [x29, #-36]
    925c:	f85f83a2 	ldur	x2, [x29, #-8]
    9260:	11000440 	add	w0, w2, #0x1
    9264:	f85e83a3 	ldur	x3, [x29, #-24]
    9268:	7100007f 	cmp	w3, #0x0
    926c:	54000501 	b.ne	0x930c  // b.any
    9270:	b81e43a0 	stur	w0, [x29, #-28]
    9274:	b81e03a1 	stur	w1, [x29, #-32]
    9278:	f81f83a2 	stur	x2, [x29, #-8]
    927c:	f81e83a3 	stur	x3, [x29, #-24]
    9280:	d298b091 	mov	x17, #0xc584                	// #50564
    9284:	f2a031b1 	movk	x17, #0x18d, lsl #16
    9288:	f2c00ab1 	movk	x17, #0x55, lsl #32
    928c:	f2e00011 	movk	x17, #0x0, lsl #48
    9290:	d63f0220 	blr	x17
    9294:	f85e83a0 	ldur	x0, [x29, #-24]
    9298:	f8410001 	ldur	x1, [x0, #16]
    929c:	d4200500 	brk	#0x28
    92a0:	f85f03a2 	ldur	x2, [x29, #-16]
    92a4:	7100005f 	cmp	w2, #0x0
    92a8:	54000481 	b.ne	0x9338  // b.any
    92ac:	f81e83a0 	stur	x0, [x29, #-24]
    92b0:	f81d03a1 	stur	x1, [x29, #-48]
    92b4:	f81f03a2 	stur	x2, [x29, #-16]
    92b8:	d298b091 	mov	x17, #0xc584                	// #50564
    92bc:	f2a031b1 	movk	x17, #0x18d, lsl #16
    92c0:	f2c00ab1 	movk	x17, #0x55, lsl #32
    92c4:	f2e00011 	movk	x17, #0x0, lsl #48
    92c8:	d63f0220 	blr	x17
    92cc:	52800060 	mov	w0, #0x3                   	// #3
    92d0:	72a00000 	movk	w0, #0x0, lsl #16
    92d4:	d42001c0 	brk	#0xe
    92d8:	d4200980 	brk	#0x4c
    92dc:	d4200400 	brk	#0x20
    92e0:	d4200a20 	brk	#0x51
    92e4:	17ffffd9 	b	0x9248
    92e8:	110007e1 	add	w1, wsp, #0x1
    92ec:	d4200ae0 	brk	#0x57
    92f0:	b81bc3a0 	stur	w0, [x29, #-68]
    92f4:	381af3a1 	sturb	w1, [x29, #-81]
    92f8:	f85e83a0 	ldur	x0, [x29, #-24]
    92fc:	f85a03a1 	ldur	x1, [x29, #-96]
    9300:	94000018 	bl	0x9360
    9304:	910183ff 	add	sp, sp, #0x60
    9308:	a8c17bfd 	ldp	x29, x30, [sp], #16
    930c:	d65f03c0 	ret
    9310:	a9bf7bfd 	stp	x29, x30, [sp, #-16]!
    9314:	910003fd 	mov	x29, sp
    9318:	d10103ff 	sub	sp, sp, #0x40
    931c:	f81f83a0 	stur	x0, [x29, #-8]
    9320:	f81f03a1 	stur	x1, [x29, #-16]
    9324:	d2857500 	mov	x0, #0x2ba8                	// #11176
    9328:	f2a000c0 	movk	x0, #0x6, lsl #16
    932c:	f2c00aa0 	movk	x0, #0x55, lsl #32
    9330:	f2e00000 	movk	x0, #0x0, lsl #48
    9334:	d287fa11 	mov	x17, #0x3fd0                	// #16336
    9338:	f2a031b1 	movk	x17, #0x18d, lsl #16
    933c:	f2c00ab1 	movk	x17, #0x55, lsl #32
    9340:	f2e00011 	movk	x17, #0x0, lsl #48
    9344:	d63f0220 	blr	x17
    9348:	f81e83a0 	stur	x0, [x29, #-24]
    934c:	f85e83a0 	ldur	x0, [x29, #-24]
    9350:	97fffa10 	bl	0x7b90
    9354:	52800000 	mov	w0, #0x0                   	// #0
    9358:	72a00000 	movk	w0, #0x0, lsl #16
    935c:	d4200500 	brk	#0x28
    9360:	b85e03a1 	ldur	w1, [x29, #-32]
    9364:	6b00003f 	cmp	w1, w0
    9368:	540004ea 	b.ge	0x9404  // b.tcont
    936c:	b81dc3a0 	stur	w0, [x29, #-36]
    9370:	f85f83a2 	ldur	x2, [x29, #-8]
    9374:	11000440 	add	w0, w2, #0x1
    9378:	d4200500 	brk	#0x28
    937c:	52800063 	mov	w3, #0x3                   	// #3
    9380:	72a00003 	movk	w3, #0x0, lsl #16
    9384:	d42001c0 	brk	#0xe
    9388:	d4200980 	brk	#0x4c
    938c:	f85f03a4 	ldur	x4, [x29, #-16]
    9390:	7100009f 	cmp	w4, #0x0
    9394:	54000581 	b.ne	0x9444  // b.any
    9398:	b81e43a0 	stur	w0, [x29, #-28]
    939c:	b81e03a1 	stur	w1, [x29, #-32]
    93a0:	f81f83a2 	stur	x2, [x29, #-8]
    93a4:	b81cc3a3 	stur	w3, [x29, #-52]
    93a8:	f81f03a4 	stur	x4, [x29, #-16]
    93ac:	d298b091 	mov	x17, #0xc584                	// #50564
    93b0:	f2a031b1 	movk	x17, #0x18d, lsl #16
    93b4:	f2c00ab1 	movk	x17, #0x55, lsl #32
    93b8:	f2e00011 	movk	x17, #0x0, lsl #48
    93bc:	d63f0220 	blr	x17
    93c0:	d4200400 	brk	#0x20
    93c4:	385cb3a0 	ldurb	w0, [x29, #-53]
    93c8:	7100001f 	cmp	w0, #0x0
    93cc:	540001a0 	b.eq	0x9400  // b.none
    93d0:	f85e83a1 	ldur	x1, [x29, #-24]
    93d4:	7100003f 	cmp	w1, #0x0
    93d8:	54000401 	b.ne	0x9458  // b.any
    93dc:	381cb3a0 	sturb	w0, [x29, #-53]
    93e0:	f81e83a1 	stur	x1, [x29, #-24]
    93e4:	d298b091 	mov	x17, #0xc584                	// #50564
    93e8:	f2a031b1 	movk	x17, #0x18d, lsl #16
    93ec:	f2c00ab1 	movk	x17, #0x55, lsl #32
    93f0:	f2e00011 	movk	x17, #0x0, lsl #48
    93f4:	d63f0220 	blr	x17
    93f8:	f85e83a0 	ldur	x0, [x29, #-24]
    93fc:	b85d83a1 	ldur	w1, [x29, #-40]
    9400:	97fffad0 	bl	0x7f40
    9404:	17ffffd6 	b	0x935c
    9408:	910103ff 	add	sp, sp, #0x40
    940c:	a8c17bfd 	ldp	x29, x30, [sp], #16
    9410:	d65f03c0 	ret
    9414:	d503201f 	nop
    9418:	d503201f 	nop
    941c:	d503201f 	nop
    9420:	a9bf7bfd 	stp	x29, x30, [sp, #-16]!
    9424:	910003fd 	mov	x29, sp
    9428:	d10103ff 	sub	sp, sp, #0x40
    942c:	d4200500 	brk	#0x28
    9430:	b85f03a2 	ldur	w2, [x29, #-16]
    9434:	6b02003f 	cmp	w1, w2
    9438:	5400016a 	b.ge	0x9464  // b.tcont
    943c:	528000e3 	mov	w3, #0x7                   	// #7
    9440:	72a00003 	movk	w3, #0x0, lsl #16
    9444:	d4200100 	brk	#0x8
    9448:	f81f83a0 	stur	x0, [x29, #-8]
    944c:	b81f43a1 	stur	w1, [x29, #-12]
    9450:	b81f03a2 	stur	w2, [x29, #-16]
    9454:	b81ec3a3 	stur	w3, [x29, #-20]
    9458:	f85f83a0 	ldur	x0, [x29, #-8]
    945c:	b85f03a1 	ldur	w1, [x29, #-16]
    9460:	94000028 	bl	0x9500
    9464:	14000020 	b	0x94e4
    9468:	d4200500 	brk	#0x28
    946c:	b85f43a0 	ldur	w0, [x29, #-12]
    9470:	b85f03a1 	ldur	w1, [x29, #-16]
    9474:	6b00003f 	cmp	w1, w0
    9478:	5400036a 	b.ge	0x94e4  // b.tcont
    947c:	d4200500 	brk	#0x28
    9480:	d4200500 	brk	#0x28
    9484:	52800062 	mov	w2, #0x3                   	// #3
    9488:	72a00002 	movk	w2, #0x0, lsl #16
    948c:	d42001c0 	brk	#0xe
    9490:	d4200500 	brk	#0x28
    9494:	d4200500 	brk	#0x28
    9498:	d4200100 	brk	#0x8
    949c:	52800063 	mov	w3, #0x3                   	// #3
    94a0:	72a00003 	movk	w3, #0x0, lsl #16
    94a4:	d42001c0 	brk	#0xe
    94a8:	52800003 	mov	w3, #0x0                   	// #0
    94ac:	72a00003 	movk	w3, #0x0, lsl #16
    94b0:	b81f43a0 	stur	w0, [x29, #-12]
    94b4:	b81f03a1 	stur	w1, [x29, #-16]
    94b8:	b81ec3a2 	stur	w2, [x29, #-20]
    94bc:	b81c83a3 	stur	w3, [x29, #-56]
    94c0:	f85e03a0 	ldur	x0, [x29, #-32]
    94c4:	b85f03a1 	ldur	w1, [x29, #-16]
    94c8:	b85cc3a2 	ldur	w2, [x29, #-52]
    94cc:	b85c83a3 	ldur	w3, [x29, #-56]
    94d0:	d290ff91 	mov	x17, #0x87fc                	// #34812
    94d4:	f2a031b1 	movk	x17, #0x18d, lsl #16
    94d8:	f2c00ab1 	movk	x17, #0x55, lsl #32
    94dc:	f2e00011 	movk	x17, #0x0, lsl #48
    94e0:	d63f0220 	blr	x17
    94e4:	d4200520 	brk	#0x29
    94e8:	910103ff 	add	sp, sp, #0x40
    94ec:	a8c17bfd 	ldp	x29, x30, [sp], #16
    94f0:	d65f03c0 	ret
    94f4:	d503201f 	nop
    94f8:	d503201f 	nop
    94fc:	d503201f 	nop
    9500:	a9bf7bfd 	stp	x29, x30, [sp, #-16]!
    9504:	910003fd 	mov	x29, sp
    9508:	d100c3ff 	sub	sp, sp, #0x30
    950c:	d4200500 	brk	#0x28
    9510:	b85ec3a2 	ldur	w2, [x29, #-20]
    9514:	6b01005f 	cmp	w2, w1
    9518:	540000eb 	b.lt	0x9534  // b.tstop
    951c:	d4200500 	brk	#0x28
    9520:	52800003 	mov	w3, #0x0                   	// #0
    9524:	72a00003 	movk	w3, #0x0, lsl #16
    9528:	d4200760 	brk	#0x3b
    952c:	9100c3ff 	add	sp, sp, #0x30
    9530:	a8c17bfd 	ldp	x29, x30, [sp], #16
    9534:	d65f03c0 	ret
    9538:	d4200500 	brk	#0x28
    953c:	52800062 	mov	w2, #0x3                   	// #3
    9540:	72a00002 	movk	w2, #0x0, lsl #16
    9544:	d42001c0 	brk	#0xe
    9548:	d4200980 	brk	#0x4c
    954c:	d4200760 	brk	#0x3b
    9550:	9100c3ff 	add	sp, sp, #0x30
    9554:	a8c17bfd 	ldp	x29, x30, [sp], #16
    9558:	d65f03c0 	ret
    955c:	d503201f 	nop
    9560:	a9bf7bfd 	stp	x29, x30, [sp, #-16]!
    9564:	910003fd 	mov	x29, sp
    9568:	d100c3ff 	sub	sp, sp, #0x30
    956c:	d4200500 	brk	#0x28
    9570:	b85e03a3 	ldur	w3, [x29, #-32]
    9574:	6b01007f 	cmp	w3, w1
    9578:	540000eb 	b.lt	0x9594  // b.tstop
    957c:	f81f83a0 	stur	x0, [x29, #-8]
    9580:	b81f43a1 	stur	w1, [x29, #-12]
    9584:	f81e83a2 	stur	x2, [x29, #-24]
    9588:	b81e03a3 	stur	w3, [x29, #-32]
    958c:	f85f83a0 	ldur	x0, [x29, #-8]
    9590:	b85f43a1 	ldur	w1, [x29, #-12]
    9594:	940000db 	bl	0x9900
    9598:	d4200500 	brk	#0x28
    959c:	d13fa3e0 	sub	x0, sp, #0xfe8
    95a0:	d2852901 	mov	x1, #0x2948                	// #10568
    95a4:	f2a000c1 	movk	x1, #0x6, lsl #16
    95a8:	f2c00aa1 	movk	x1, #0x55, lsl #32
    95ac:	f2e00001 	movk	x1, #0x0, lsl #48
    95b0:	d2851102 	mov	x2, #0x2888                	// #10376
    95b4:	f2a000c2 	movk	x2, #0x6, lsl #16
    95b8:	f2c00aa2 	movk	x2, #0x55, lsl #32
    95bc:	f2e00002 	movk	x2, #0x0, lsl #48
    95c0:	d293ee91 	mov	x17, #0x9f74                	// #40820
    95c4:	f2a031b1 	movk	x17, #0x18d, lsl #16
    95c8:	f2c00ab1 	movk	x17, #0x55, lsl #32
    95cc:	f2e00011 	movk	x17, #0x0, lsl #48
    95d0:	d63f0220 	blr	x17
    95d4:	52800060 	mov	w0, #0x3                   	// #3
    95d8:	72a00000 	movk	w0, #0x0, lsl #16
    95dc:	d42001c0 	brk	#0xe
    95e0:	d4200a00 	brk	#0x50
    95e4:	9100c3ff 	add	sp, sp, #0x30
    95e8:	a8c17bfd 	ldp	x29, x30, [sp], #16
    95ec:	d65f03c0 	ret
    95f0:	a9bf7bfd 	stp	x29, x30, [sp, #-16]!
    95f4:	910003fd 	mov	x29, sp
    95f8:	d10083ff 	sub	sp, sp, #0x20
    95fc:	f81f83a0 	stur	x0, [x29, #-8]
    9600:	f81f03a1 	stur	x1, [x29, #-16]
    9604:	d13fc3e0 	sub	x0, sp, #0xff0
    9608:	d2852901 	mov	x1, #0x2948                	// #10568
    960c:	f2a000c1 	movk	x1, #0x6, lsl #16
    9610:	f2c00aa1 	movk	x1, #0x55, lsl #32
    9614:	f2e00001 	movk	x1, #0x0, lsl #48
    9618:	d2851102 	mov	x2, #0x2888                	// #10376
    961c:	f2a000c2 	movk	x2, #0x6, lsl #16
    9620:	f2c00aa2 	movk	x2, #0x55, lsl #32
    9624:	f2e00002 	movk	x2, #0x0, lsl #48
    9628:	d293ee91 	mov	x17, #0x9f74                	// #40820
    962c:	f2a031b1 	movk	x17, #0x18d, lsl #16
    9630:	f2c00ab1 	movk	x17, #0x55, lsl #32
    9634:	f2e00011 	movk	x17, #0x0, lsl #48
    9638:	d63f0220 	blr	x17
    963c:	f85f83a0 	ldur	x0, [x29, #-8]
    9640:	b85ec3a1 	ldur	w1, [x29, #-20]
    9644:	97fffa3f 	bl	0x7f40
    9648:	910083ff 	add	sp, sp, #0x20
    964c:	a8c17bfd 	ldp	x29, x30, [sp], #16
    9650:	d65f03c0 	ret
    9654:	d503201f 	nop
    9658:	d503201f 	nop
    965c:	d503201f 	nop
    9660:	a9bf7bfd 	stp	x29, x30, [sp, #-16]!
    9664:	910003fd 	mov	x29, sp
    9668:	d10043ff 	sub	sp, sp, #0x10
    966c:	f81f83a0 	stur	x0, [x29, #-8]
    9670:	f85f83a0 	ldur	x0, [x29, #-8]
    9674:	97fffa17 	bl	0x7ed0
    9678:	910043ff 	add	sp, sp, #0x10
    967c:	a8c17bfd 	ldp	x29, x30, [sp], #16
    9680:	d65f03c0 	ret
    9684:	d503201f 	nop
    9688:	d503201f 	nop
    968c:	d503201f 	nop
    9690:	a9bf7bfd 	stp	x29, x30, [sp, #-16]!
    9694:	910003fd 	mov	x29, sp
    9698:	d10043ff 	sub	sp, sp, #0x10
    969c:	f81f83a0 	stur	x0, [x29, #-8]
    96a0:	f85f83a0 	ldur	x0, [x29, #-8]
    96a4:	97fffa73 	bl	0x8070
    96a8:	910043ff 	add	sp, sp, #0x10
    96ac:	a8c17bfd 	ldp	x29, x30, [sp], #16
    96b0:	d65f03c0 	ret
    96b4:	d503201f 	nop
    96b8:	d503201f 	nop
    96bc:	d503201f 	nop
    96c0:	a9bf7bfd 	stp	x29, x30, [sp, #-16]!
    96c4:	910003fd 	mov	x29, sp
    96c8:	d10083ff 	sub	sp, sp, #0x20
    96cc:	f81f83a0 	stur	x0, [x29, #-8]
    96d0:	f81f03a1 	stur	x1, [x29, #-16]
    96d4:	d13fc3e0 	sub	x0, sp, #0xff0
    96d8:	d2852901 	mov	x1, #0x2948                	// #10568
    96dc:	f2a000c1 	movk	x1, #0x6, lsl #16
    96e0:	f2c00aa1 	movk	x1, #0x55, lsl #32
    96e4:	f2e00001 	movk	x1, #0x0, lsl #48
    96e8:	d2851102 	mov	x2, #0x2888                	// #10376
    96ec:	f2a000c2 	movk	x2, #0x6, lsl #16
    96f0:	f2c00aa2 	movk	x2, #0x55, lsl #32
    96f4:	f2e00002 	movk	x2, #0x0, lsl #48
    96f8:	d293ee91 	mov	x17, #0x9f74                	// #40820
    96fc:	f2a031b1 	movk	x17, #0x18d, lsl #16
    9700:	f2c00ab1 	movk	x17, #0x55, lsl #32
    9704:	f2e00011 	movk	x17, #0x0, lsl #48
    9708:	d63f0220 	blr	x17
    970c:	f85f83a0 	ldur	x0, [x29, #-8]
    9710:	b85ec3a1 	ldur	w1, [x29, #-20]
    9714:	97fffcc3 	bl	0x8a20
    9718:	910083ff 	add	sp, sp, #0x20
    971c:	a8c17bfd 	ldp	x29, x30, [sp], #16
    9720:	d65f03c0 	ret
    9724:	d503201f 	nop
    9728:	d503201f 	nop
    972c:	d503201f 	nop
    9730:	a9bf7bfd 	stp	x29, x30, [sp, #-16]!
    9734:	910003fd 	mov	x29, sp
    9738:	d10083ff 	sub	sp, sp, #0x20
    973c:	f81f83a0 	stur	x0, [x29, #-8]
    9740:	b81f43a1 	stur	w1, [x29, #-12]
    9744:	f81e83a2 	stur	x2, [x29, #-24]
    9748:	d13fa3e0 	sub	x0, sp, #0xfe8
    974c:	d2852901 	mov	x1, #0x2948                	// #10568
    9750:	f2a000c1 	movk	x1, #0x6, lsl #16
    9754:	f2c00aa1 	movk	x1, #0x55, lsl #32
    9758:	f2e00001 	movk	x1, #0x0, lsl #48
    975c:	d2851102 	mov	x2, #0x2888                	// #10376
    9760:	f2a000c2 	movk	x2, #0x6, lsl #16
    9764:	f2c00aa2 	movk	x2, #0x55, lsl #32
    9768:	f2e00002 	movk	x2, #0x0, lsl #48
    976c:	d293ee91 	mov	x17, #0x9f74                	// #40820
    9770:	f2a031b1 	movk	x17, #0x18d, lsl #16
    9774:	f2c00ab1 	movk	x17, #0x55, lsl #32
    9778:	f2e00011 	movk	x17, #0x0, lsl #48
    977c:	d63f0220 	blr	x17
    9780:	f85f83a0 	ldur	x0, [x29, #-8]
    9784:	b85f43a1 	ldur	w1, [x29, #-12]
    9788:	b85e43a2 	ldur	w2, [x29, #-28]
    978c:	97fffce9 	bl	0x8b30
    9790:	910083ff 	add	sp, sp, #0x20
    9794:	a8c17bfd 	ldp	x29, x30, [sp], #16
    9798:	d65f03c0 	ret
    979c:	d503201f 	nop
    97a0:	a9bf7bfd 	stp	x29, x30, [sp, #-16]!
    97a4:	910003fd 	mov	x29, sp
    97a8:	d10083ff 	sub	sp, sp, #0x20
    97ac:	f81f83a0 	stur	x0, [x29, #-8]
    97b0:	f81f03a1 	stur	x1, [x29, #-16]
    97b4:	d13fc3e0 	sub	x0, sp, #0xff0
    97b8:	d2852901 	mov	x1, #0x2948                	// #10568
    97bc:	f2a000c1 	movk	x1, #0x6, lsl #16
    97c0:	f2c00aa1 	movk	x1, #0x55, lsl #32
    97c4:	f2e00001 	movk	x1, #0x0, lsl #48
    97c8:	d2851102 	mov	x2, #0x2888                	// #10376
    97cc:	f2a000c2 	movk	x2, #0x6, lsl #16
    97d0:	f2c00aa2 	movk	x2, #0x55, lsl #32
    97d4:	f2e00002 	movk	x2, #0x0, lsl #48
    97d8:	d293ee91 	mov	x17, #0x9f74                	// #40820
    97dc:	f2a031b1 	movk	x17, #0x18d, lsl #16
    97e0:	f2c00ab1 	movk	x17, #0x55, lsl #32
    97e4:	f2e00011 	movk	x17, #0x0, lsl #48
    97e8:	d63f0220 	blr	x17
    97ec:	f85f83a0 	ldur	x0, [x29, #-8]
    97f0:	b85e83a1 	ldur	w1, [x29, #-24]
    97f4:	97fffd27 	bl	0x8c90
    97f8:	910083ff 	add	sp, sp, #0x20
    97fc:	a8c17bfd 	ldp	x29, x30, [sp], #16
    9800:	d65f03c0 	ret
    9804:	d503201f 	nop
    9808:	d503201f 	nop
    980c:	d503201f 	nop
    9810:	a9bf7bfd 	stp	x29, x30, [sp, #-16]!
    9814:	910003fd 	mov	x29, sp
    9818:	d10083ff 	sub	sp, sp, #0x20
    981c:	f81f83a0 	stur	x0, [x29, #-8]
    9820:	f81f03a1 	stur	x1, [x29, #-16]
    9824:	d13fc3e0 	sub	x0, sp, #0xff0
    9828:	d2852901 	mov	x1, #0x2948                	// #10568
    982c:	f2a000c1 	movk	x1, #0x6, lsl #16
    9830:	f2c00aa1 	movk	x1, #0x55, lsl #32
    9834:	f2e00001 	movk	x1, #0x0, lsl #48
    9838:	d2851102 	mov	x2, #0x2888                	// #10376
    983c:	f2a000c2 	movk	x2, #0x6, lsl #16
    9840:	f2c00aa2 	movk	x2, #0x55, lsl #32
    9844:	f2e00002 	movk	x2, #0x0, lsl #48
    9848:	d293ee91 	mov	x17, #0x9f74                	// #40820
    984c:	f2a031b1 	movk	x17, #0x18d, lsl #16
    9850:	f2c00ab1 	movk	x17, #0x55, lsl #32
    9854:	f2e00011 	movk	x17, #0x0, lsl #48
    9858:	d63f0220 	blr	x17
    985c:	f85f83a0 	ldur	x0, [x29, #-8]
    9860:	b85e83a1 	ldur	w1, [x29, #-24]
    9864:	97fffd23 	bl	0x8cf0
    9868:	910083ff 	add	sp, sp, #0x20
    986c:	a8c17bfd 	ldp	x29, x30, [sp], #16
    9870:	d65f03c0 	ret
    9874:	d503201f 	nop
    9878:	d503201f 	nop
    987c:	d503201f 	nop
    9880:	a9bf7bfd 	stp	x29, x30, [sp, #-16]!
    9884:	910003fd 	mov	x29, sp
    9888:	d10083ff 	sub	sp, sp, #0x20
    988c:	d4200760 	brk	#0x3b
    9890:	d4200760 	brk	#0x3b
    9894:	d4200400 	brk	#0x20
    9898:	910083ff 	add	sp, sp, #0x20
    989c:	a8c17bfd 	ldp	x29, x30, [sp], #16
    98a0:	d65f03c0 	ret
    98a4:	d503201f 	nop
    98a8:	d503201f 	nop
    98ac:	d503201f 	nop
    98b0:	a9bf7bfd 	stp	x29, x30, [sp, #-16]!
    98b4:	910003fd 	mov	x29, sp
    98b8:	d10083ff 	sub	sp, sp, #0x20
    98bc:	7100003f 	cmp	w1, #0x0
    98c0:	54000041 	b.ne	0x98c8  // b.any
    98c4:	aa1f03e2 	mov	x2, xzr
    98c8:	14000001 	b	0x98cc
    98cc:	d4200440 	brk	#0x22
    98d0:	f81f83a0 	stur	x0, [x29, #-8]
    98d4:	f81f03a1 	stur	x1, [x29, #-16]
    98d8:	f81e83a2 	stur	x2, [x29, #-24]
    98dc:	f85f83a0 	ldur	x0, [x29, #-8]
    98e0:	f85e83a1 	ldur	x1, [x29, #-24]
    98e4:	97fffb0b 	bl	0x8510
    98e8:	910083ff 	add	sp, sp, #0x20
    98ec:	a8c17bfd 	ldp	x29, x30, [sp], #16
    98f0:	d65f03c0 	ret
    98f4:	d503201f 	nop
    98f8:	d503201f 	nop
    98fc:	d503201f 	nop
    9900:	a9bf7bfd 	stp	x29, x30, [sp, #-16]!
    9904:	910003fd 	mov	x29, sp
    9908:	d101c3ff 	sub	sp, sp, #0x70
    990c:	52800002 	mov	w2, #0x0                   	// #0
    9910:	72a00002 	movk	w2, #0x0, lsl #16
    9914:	6b01005f 	cmp	w2, w1
    9918:	540003ca 	b.ge	0x9990  // b.tcont
    991c:	d295b504 	mov	x4, #0xada8                	// #44456
    9920:	f2a000c4 	movk	x4, #0x6, lsl #16
    9924:	f2c00aa4 	movk	x4, #0x55, lsl #32
    9928:	f2e00004 	movk	x4, #0x0, lsl #48
    992c:	f8400083 	ldur	x3, [x4]
    9930:	b81f03a1 	stur	w1, [x29, #-16]
    9934:	d4200ae0 	brk	#0x57
    9938:	f81f83a0 	stur	x0, [x29, #-8]
    993c:	b81f43a1 	stur	w1, [x29, #-12]
    9940:	b81ec3a2 	stur	w2, [x29, #-20]
    9944:	f81d83a3 	stur	x3, [x29, #-40]
    9948:	b85f03a0 	ldur	w0, [x29, #-16]
    994c:	f85d03a1 	ldur	x1, [x29, #-48]
    9950:	d292a211 	mov	x17, #0x9510                	// #38160
    9954:	f2a031d1 	movk	x17, #0x18e, lsl #16
    9958:	f2c00ab1 	movk	x17, #0x55, lsl #32
    995c:	f2e00011 	movk	x17, #0x0, lsl #48
    9960:	d63f0220 	blr	x17
    9964:	f81c83a0 	stur	x0, [x29, #-56]
    9968:	f85c83a0 	ldur	x0, [x29, #-56]
    996c:	b85f03a1 	ldur	w1, [x29, #-16]
    9970:	97ffdc80 	bl	0xb70
    9974:	f81c03a0 	stur	x0, [x29, #-64]
    9978:	f85d83a0 	ldur	x0, [x29, #-40]
    997c:	f85c03a1 	ldur	x1, [x29, #-64]
    9980:	97ffdd10 	bl	0xdc0
    9984:	f81d83a0 	stur	x0, [x29, #-40]
    9988:	f85d83a0 	ldur	x0, [x29, #-40]
    998c:	97ffe675 	bl	0x3360
    9990:	d4200880 	brk	#0x44
    9994:	528000e1 	mov	w1, #0x7                   	// #7
    9998:	72a00001 	movk	w1, #0x0, lsl #16
    999c:	d42000e0 	brk	#0x7
    99a0:	d4200500 	brk	#0x28
    99a4:	b85bc3a2 	ldur	w2, [x29, #-68]
    99a8:	b85f03a3 	ldur	w3, [x29, #-16]
    99ac:	6b02007f 	cmp	w3, w2
    99b0:	5400086a 	b.ge	0x9abc  // b.tcont
    99b4:	d4200500 	brk	#0x28
    99b8:	52800242 	mov	w2, #0x12                  	// #18
    99bc:	72a00002 	movk	w2, #0x0, lsl #16
    99c0:	d4200120 	brk	#0x9
    99c4:	528000e2 	mov	w2, #0x7                   	// #7
    99c8:	72a00002 	movk	w2, #0x0, lsl #16
    99cc:	d42001e0 	brk	#0xf
    99d0:	6b01007f 	cmp	w3, w1
    99d4:	5400002a 	b.ge	0x99d8  // b.tcont
    99d8:	2a0303e1 	mov	w1, w3
    99dc:	d4200500 	brk	#0x28
    99e0:	52800064 	mov	w4, #0x3                   	// #3
    99e4:	72a00004 	movk	w4, #0x0, lsl #16
    99e8:	d42001c0 	brk	#0xe
    99ec:	f81e03a0 	stur	x0, [x29, #-32]
    99f0:	b81ec3a1 	stur	w1, [x29, #-20]
    99f4:	b81bc3a2 	stur	w2, [x29, #-68]
    99f8:	b81f03a3 	stur	w3, [x29, #-16]
    99fc:	b81b83a4 	stur	w4, [x29, #-72]
    9a00:	b85bc3a0 	ldur	w0, [x29, #-68]
    9a04:	d2905f91 	mov	x17, #0x82fc                	// #33532
    9a08:	f2a031b1 	movk	x17, #0x18d, lsl #16
    9a0c:	f2c00ab1 	movk	x17, #0x55, lsl #32
    9a10:	f2e00011 	movk	x17, #0x0, lsl #48
    9a14:	d63f0220 	blr	x17
    9a18:	d4200500 	brk	#0x28
    9a1c:	d4200500 	brk	#0x28
    9a20:	52800061 	mov	w1, #0x3                   	// #3
    9a24:	72a00001 	movk	w1, #0x0, lsl #16
    9a28:	d42001c0 	brk	#0xe
    9a2c:	52800001 	mov	w1, #0x0                   	// #0
    9a30:	72a00001 	movk	w1, #0x0, lsl #16
    9a34:	d4200500 	brk	#0x28
    9a38:	52800002 	mov	w2, #0x0                   	// #0
    9a3c:	72a00002 	movk	w2, #0x0, lsl #16
    9a40:	f81b03a0 	stur	x0, [x29, #-80]
    9a44:	b81b83a1 	stur	w1, [x29, #-72]
    9a48:	b81943a2 	stur	w2, [x29, #-108]
    9a4c:	f85b03a0 	ldur	x0, [x29, #-80]
    9a50:	b85b83a1 	ldur	w1, [x29, #-72]
    9a54:	f85983a2 	ldur	x2, [x29, #-104]
    9a58:	b85943a3 	ldur	w3, [x29, #-108]
    9a5c:	b85bc3a4 	ldur	w4, [x29, #-68]
    9a60:	d2906d91 	mov	x17, #0x836c                	// #33644
    9a64:	f2a031b1 	movk	x17, #0x18d, lsl #16
    9a68:	f2c00ab1 	movk	x17, #0x55, lsl #32
    9a6c:	f2e00011 	movk	x17, #0x0, lsl #48
    9a70:	d63f0220 	blr	x17
    9a74:	d4200500 	brk	#0x28
    9a78:	52800060 	mov	w0, #0x3                   	// #3
    9a7c:	72a00000 	movk	w0, #0x0, lsl #16
    9a80:	d42001c0 	brk	#0xe
    9a84:	d4200100 	brk	#0x8
    9a88:	52800000 	mov	w0, #0x0                   	// #0
    9a8c:	72a00000 	movk	w0, #0x0, lsl #16
    9a90:	b81903a0 	stur	w0, [x29, #-112]
    9a94:	f85b03a0 	ldur	x0, [x29, #-80]
    9a98:	b85bc3a1 	ldur	w1, [x29, #-68]
    9a9c:	b85943a2 	ldur	w2, [x29, #-108]
    9aa0:	b85903a3 	ldur	w3, [x29, #-112]
    9aa4:	d290ff91 	mov	x17, #0x87fc                	// #34812
    9aa8:	f2a031b1 	movk	x17, #0x18d, lsl #16
    9aac:	f2c00ab1 	movk	x17, #0x55, lsl #32
    9ab0:	f2e00011 	movk	x17, #0x0, lsl #48
    9ab4:	d63f0220 	blr	x17
    9ab8:	d4200520 	brk	#0x29
    9abc:	d4200520 	brk	#0x29
    9ac0:	d4200520 	brk	#0x29
    9ac4:	9101c3ff 	add	sp, sp, #0x70
    9ac8:	a8c17bfd 	ldp	x29, x30, [sp], #16
    9acc:	d65f03c0 	ret
    9ad0:	a9bf7bfd 	stp	x29, x30, [sp, #-16]!
    9ad4:	910003fd 	mov	x29, sp
    9ad8:	d10083ff 	sub	sp, sp, #0x20
    9adc:	52800001 	mov	w1, #0x0                   	// #0
    9ae0:	72a00001 	movk	w1, #0x0, lsl #16
    9ae4:	d4200520 	brk	#0x29
    9ae8:	d4200520 	brk	#0x29
    9aec:	aa1f03e2 	mov	x2, xzr
    9af0:	d4200520 	brk	#0x29
    9af4:	910083ff 	add	sp, sp, #0x20
    9af8:	a8c17bfd 	ldp	x29, x30, [sp], #16
    9afc:	d65f03c0 	ret
    9b00:	a9bf7bfd 	stp	x29, x30, [sp, #-16]!
    9b04:	910003fd 	mov	x29, sp
    9b08:	d10183ff 	sub	sp, sp, #0x60
    9b0c:	f81f83a0 	stur	x0, [x29, #-8]
    9b10:	f81f03a1 	stur	x1, [x29, #-16]
    9b14:	d2858500 	mov	x0, #0x2c28                	// #11304
    9b18:	f2a000c0 	movk	x0, #0x6, lsl #16
    9b1c:	f2c00aa0 	movk	x0, #0x55, lsl #32
    9b20:	f2e00000 	movk	x0, #0x0, lsl #48
    9b24:	d287fa11 	mov	x17, #0x3fd0                	// #16336
    9b28:	f2a031b1 	movk	x17, #0x18d, lsl #16
    9b2c:	f2c00ab1 	movk	x17, #0x55, lsl #32
    9b30:	f2e00011 	movk	x17, #0x0, lsl #48
    9b34:	d63f0220 	blr	x17
    9b38:	f81e83a0 	stur	x0, [x29, #-24]
    9b3c:	f85e83a0 	ldur	x0, [x29, #-24]
    9b40:	97ffffe4 	bl	0x9ad0
    9b44:	d4200500 	brk	#0x28
    9b48:	f85f03a0 	ldur	x0, [x29, #-16]
    9b4c:	7100001f 	cmp	w0, #0x0
    9b50:	54000381 	b.ne	0x9bc0  // b.any
    9b54:	f81f03a0 	stur	x0, [x29, #-16]
    9b58:	d298b091 	mov	x17, #0xc584                	// #50564
    9b5c:	f2a031b1 	movk	x17, #0x18d, lsl #16
    9b60:	f2c00ab1 	movk	x17, #0x55, lsl #32
    9b64:	f2e00011 	movk	x17, #0x0, lsl #48
    9b68:	d63f0220 	blr	x17
    9b6c:	f85f03a0 	ldur	x0, [x29, #-16]
    9b70:	f8408001 	ldur	x1, [x0, #8]
    9b74:	d42000e0 	brk	#0x7
    9b78:	f85e83a2 	ldur	x2, [x29, #-24]
    9b7c:	f8004042 	stur	x2, [x2, #4]
    9b80:	f85f83a3 	ldur	x3, [x29, #-8]
    9b84:	f8004062 	stur	x2, [x3, #4]
    9b88:	d4200500 	brk	#0x28
    9b8c:	f8408044 	ldur	x4, [x2, #8]
    9b90:	52800061 	mov	w1, #0x3                   	// #3
    9b94:	72a00001 	movk	w1, #0x0, lsl #16
    9b98:	d42001c0 	brk	#0xe
    9b9c:	f81f03a0 	stur	x0, [x29, #-16]
    9ba0:	b81e03a1 	stur	w1, [x29, #-32]
    9ba4:	f81e83a2 	stur	x2, [x29, #-24]
    9ba8:	f81f83a3 	stur	x3, [x29, #-8]
    9bac:	b81e43a4 	stur	w4, [x29, #-28]
    9bb0:	b85e43a0 	ldur	w0, [x29, #-28]
    9bb4:	d2905f91 	mov	x17, #0x82fc                	// #33532
    9bb8:	f2a031b1 	movk	x17, #0x18d, lsl #16
    9bbc:	f2c00ab1 	movk	x17, #0x55, lsl #32
    9bc0:	f2e00011 	movk	x17, #0x0, lsl #48
    9bc4:	d63f0220 	blr	x17
    9bc8:	f85f03a1 	ldur	x1, [x29, #-16]
    9bcc:	f85e83a2 	ldur	x2, [x29, #-24]
    9bd0:	f8055022 	stur	x2, [x1, #85]
    9bd4:	d4200500 	brk	#0x28
    9bd8:	d4200500 	brk	#0x28
    9bdc:	52800063 	mov	w3, #0x3                   	// #3
    9be0:	72a00003 	movk	w3, #0x0, lsl #16
    9be4:	d42001c0 	brk	#0xe
    9be8:	f8410044 	ldur	x4, [x2, #16]
    9bec:	52800003 	mov	w3, #0x0                   	// #0
    9bf0:	72a00003 	movk	w3, #0x0, lsl #16
    9bf4:	d4200500 	brk	#0x28
    9bf8:	52800005 	mov	w5, #0x0                   	// #0
    9bfc:	72a00005 	movk	w5, #0x0, lsl #16
    9c00:	f81d03a0 	stur	x0, [x29, #-48]
    9c04:	f81f03a1 	stur	x1, [x29, #-16]
    9c08:	f81e83a2 	stur	x2, [x29, #-24]
    9c0c:	b81e03a3 	stur	w3, [x29, #-32]
    9c10:	f81c03a4 	stur	x4, [x29, #-64]
    9c14:	b81b43a5 	stur	w5, [x29, #-76]
    9c18:	f85c03a0 	ldur	x0, [x29, #-64]
    9c1c:	b85e03a1 	ldur	w1, [x29, #-32]
    9c20:	f85b83a2 	ldur	x2, [x29, #-72]
    9c24:	b85b43a3 	ldur	w3, [x29, #-76]
    9c28:	b85e43a4 	ldur	w4, [x29, #-28]
    9c2c:	d2906d91 	mov	x17, #0x836c                	// #33644
    9c30:	f2a031b1 	movk	x17, #0x18d, lsl #16
    9c34:	f2c00ab1 	movk	x17, #0x55, lsl #32
    9c38:	f2e00011 	movk	x17, #0x0, lsl #48
    9c3c:	d63f0220 	blr	x17
    9c40:	d4200500 	brk	#0x28
    9c44:	f85e83a0 	ldur	x0, [x29, #-24]
    9c48:	f8410001 	ldur	x1, [x0, #16]
    9c4c:	f85f03a2 	ldur	x2, [x29, #-16]
    9c50:	f8410043 	ldur	x3, [x2, #16]
    9c54:	52800004 	mov	w4, #0x0                   	// #0
    9c58:	72a00004 	movk	w4, #0x0, lsl #16
    9c5c:	f8408045 	ldur	x5, [x2, #8]
    9c60:	52800066 	mov	w6, #0x3                   	// #3
    9c64:	72a00006 	movk	w6, #0x0, lsl #16
    9c68:	d42001c0 	brk	#0xe
    9c6c:	f81e83a0 	stur	x0, [x29, #-24]
    9c70:	f81b83a1 	stur	x1, [x29, #-72]
    9c74:	f81f03a2 	stur	x2, [x29, #-16]
    9c78:	f81a83a3 	stur	x3, [x29, #-88]
    9c7c:	b81b43a4 	stur	w4, [x29, #-76]
    9c80:	b81b03a5 	stur	w5, [x29, #-80]
    9c84:	b81a43a6 	stur	w6, [x29, #-92]
    9c88:	f85b83a0 	ldur	x0, [x29, #-72]
    9c8c:	b85e43a1 	ldur	w1, [x29, #-28]
    9c90:	f85a83a2 	ldur	x2, [x29, #-88]
    9c94:	b85b43a3 	ldur	w3, [x29, #-76]
    9c98:	b85b03a4 	ldur	w4, [x29, #-80]
    9c9c:	d2906d91 	mov	x17, #0x836c                	// #33644
    9ca0:	f2a031b1 	movk	x17, #0x18d, lsl #16
    9ca4:	f2c00ab1 	movk	x17, #0x55, lsl #32
    9ca8:	f2e00011 	movk	x17, #0x0, lsl #48
    9cac:	d63f0220 	blr	x17
    9cb0:	910183ff 	add	sp, sp, #0x60
    9cb4:	a8c17bfd 	ldp	x29, x30, [sp], #16
    9cb8:	d65f03c0 	ret
    9cbc:	d503201f 	nop
    9cc0:	a9bf7bfd 	stp	x29, x30, [sp, #-16]!
    9cc4:	910003fd 	mov	x29, sp
    9cc8:	d10143ff 	sub	sp, sp, #0x50
    9ccc:	f81f83a0 	stur	x0, [x29, #-8]
    9cd0:	f81f03a1 	stur	x1, [x29, #-16]
    9cd4:	d2878100 	mov	x0, #0x3c08                	// #15368
    9cd8:	f2a000c0 	movk	x0, #0x6, lsl #16
    9cdc:	f2c00aa0 	movk	x0, #0x55, lsl #32
    9ce0:	f2e00000 	movk	x0, #0x0, lsl #48
    9ce4:	d287fa11 	mov	x17, #0x3fd0                	// #16336
    9ce8:	f2a031b1 	movk	x17, #0x18d, lsl #16
    9cec:	f2c00ab1 	movk	x17, #0x55, lsl #32
    9cf0:	f2e00011 	movk	x17, #0x0, lsl #48
    9cf4:	d63f0220 	blr	x17
    9cf8:	f81e83a0 	stur	x0, [x29, #-24]
    9cfc:	f85e83a0 	ldur	x0, [x29, #-24]
    9d00:	97ffe124 	bl	0x2190
    9d04:	52800000 	mov	w0, #0x0                   	// #0
    9d08:	72a00000 	movk	w0, #0x0, lsl #16
    9d0c:	d4200500 	brk	#0x28
    9d10:	b85e03a1 	ldur	w1, [x29, #-32]
    9d14:	6b00003f 	cmp	w1, w0
    9d18:	540005aa 	b.ge	0x9dcc  // b.tcont
    9d1c:	b81dc3a0 	stur	w0, [x29, #-36]
    9d20:	f85f83a2 	ldur	x2, [x29, #-8]
    9d24:	11000440 	add	w0, w2, #0x1
    9d28:	52800003 	mov	w3, #0x0                   	// #0
    9d2c:	72a00003 	movk	w3, #0x0, lsl #16
    9d30:	b85dc3a4 	ldur	w4, [x29, #-36]
    9d34:	6b03009f 	cmp	w4, w3
    9d38:	5400022a 	b.ge	0x9d7c  // b.tcont
    9d3c:	f85e83a5 	ldur	x5, [x29, #-24]
    9d40:	710000bf 	cmp	w5, #0x0
    9d44:	54000601 	b.ne	0x9e04  // b.any
    9d48:	b81e43a0 	stur	w0, [x29, #-28]
    9d4c:	b81e03a1 	stur	w1, [x29, #-32]
    9d50:	f81f83a2 	stur	x2, [x29, #-8]
    9d54:	b81d83a3 	stur	w3, [x29, #-40]
    9d58:	b81dc3a4 	stur	w4, [x29, #-36]
    9d5c:	f81e83a5 	stur	x5, [x29, #-24]
    9d60:	d298b091 	mov	x17, #0xc584                	// #50564
    9d64:	f2a031b1 	movk	x17, #0x18d, lsl #16
    9d68:	f2c00ab1 	movk	x17, #0x55, lsl #32
    9d6c:	f2e00011 	movk	x17, #0x0, lsl #48
    9d70:	d63f0220 	blr	x17
    9d74:	f85e83a0 	ldur	x0, [x29, #-24]
    9d78:	f85f03a1 	ldur	x1, [x29, #-16]
    9d7c:	97ffe11d 	bl	0x21f0
    9d80:	d4200500 	brk	#0x28
    9d84:	f85e83a0 	ldur	x0, [x29, #-24]
    9d88:	7100001f 	cmp	w0, #0x0
    9d8c:	54000381 	b.ne	0x9dfc  // b.any
    9d90:	f81e83a0 	stur	x0, [x29, #-24]
    9d94:	d298b091 	mov	x17, #0xc584                	// #50564
    9d98:	f2a031b1 	movk	x17, #0x18d, lsl #16
    9d9c:	f2c00ab1 	movk	x17, #0x55, lsl #32
    9da0:	f2e00011 	movk	x17, #0x0, lsl #48
    9da4:	d63f0220 	blr	x17
    9da8:	52800060 	mov	w0, #0x3                   	// #3
    9dac:	72a00000 	movk	w0, #0x0, lsl #16
    9db0:	d42001c0 	brk	#0xe
    9db4:	d4200980 	brk	#0x4c
    9db8:	d4200760 	brk	#0x3b
    9dbc:	b81d83a0 	stur	w0, [x29, #-40]
    9dc0:	f85e83a0 	ldur	x0, [x29, #-24]
    9dc4:	f85b83a1 	ldur	x1, [x29, #-72]
    9dc8:	97ffe10a 	bl	0x21f0
    9dcc:	17ffffd0 	b	0x9d0c
    9dd0:	f85e83a0 	ldur	x0, [x29, #-24]
    9dd4:	7100001f 	cmp	w0, #0x0
    9dd8:	54000381 	b.ne	0x9e48  // b.any
    9ddc:	f81e83a0 	stur	x0, [x29, #-24]
    9de0:	d298b091 	mov	x17, #0xc584                	// #50564
    9de4:	f2a031b1 	movk	x17, #0x18d, lsl #16
    9de8:	f2c00ab1 	movk	x17, #0x55, lsl #32
    9dec:	f2e00011 	movk	x17, #0x0, lsl #48
    9df0:	d63f0220 	blr	x17
    9df4:	f85e83a0 	ldur	x0, [x29, #-24]
    9df8:	97ffe2b2 	bl	0x28c0
    9dfc:	910143ff 	add	sp, sp, #0x50
    9e00:	a8c17bfd 	ldp	x29, x30, [sp], #16
    9e04:	d65f03c0 	ret
    9e08:	d503201f 	nop
    9e0c:	d503201f 	nop
    9e10:	a9bf7bfd 	stp	x29, x30, [sp, #-16]!
    9e14:	910003fd 	mov	x29, sp
    9e18:	d100c3ff 	sub	sp, sp, #0x30
    9e1c:	d4200500 	brk	#0x28
    9e20:	52800001 	mov	w1, #0x0                   	// #0
    9e24:	72a00001 	movk	w1, #0x0, lsl #16
    9e28:	b85f43a2 	ldur	w2, [x29, #-12]
    9e2c:	6b02003f 	cmp	w1, w2
    9e30:	54000081 	b.ne	0x9e40  // b.any
    9e34:	aa1f03e3 	mov	x3, xzr
    9e38:	9100c3ff 	add	sp, sp, #0x30
    9e3c:	a8c17bfd 	ldp	x29, x30, [sp], #16
    9e40:	d65f03c0 	ret
    9e44:	f8408002 	ldur	x2, [x0, #8]
    9e48:	51000402 	sub	w2, w0, #0x1
    9e4c:	f8010000 	stur	x0, [x0, #16]
    9e50:	d4200500 	brk	#0x28
    9e54:	d4200500 	brk	#0x28
    9e58:	52800064 	mov	w4, #0x3                   	// #3
    9e5c:	72a00004 	movk	w4, #0x0, lsl #16
    9e60:	d42001c0 	brk	#0xe
    9e64:	d4200980 	brk	#0x4c
    9e68:	d4200760 	brk	#0x3b
    9e6c:	9100c3ff 	add	sp, sp, #0x30
    9e70:	a8c17bfd 	ldp	x29, x30, [sp], #16
    9e74:	d65f03c0 	ret
    9e78:	d503201f 	nop
    9e7c:	d503201f 	nop
    9e80:	a9bf7bfd 	stp	x29, x30, [sp, #-16]!
    9e84:	910003fd 	mov	x29, sp
    9e88:	d10083ff 	sub	sp, sp, #0x20
    9e8c:	d4200500 	brk	#0x28
    9e90:	d4200500 	brk	#0x28
    9e94:	b85ec3a2 	ldur	w2, [x29, #-20]
    9e98:	b85f03a3 	ldur	w3, [x29, #-16]
    9e9c:	6b02007f 	cmp	w3, w2
    9ea0:	54000101 	b.ne	0x9ec0  // b.any
    9ea4:	f81f83a0 	stur	x0, [x29, #-8]
    9ea8:	bc1f43a1 	stur	s1, [x29, #-12]
    9eac:	b81ec3a2 	stur	w2, [x29, #-20]
    9eb0:	b81f03a3 	stur	w3, [x29, #-16]
    9eb4:	f85f83a0 	ldur	x0, [x29, #-8]
    9eb8:	b85f03a1 	ldur	w1, [x29, #-16]
    9ebc:	94000059 	bl	0xa020
    9ec0:	14000004 	b	0x9ed0
    9ec4:	f85f83a0 	ldur	x0, [x29, #-8]
    9ec8:	f8408001 	ldur	x1, [x0, #8]
    9ecc:	11000401 	add	w1, w0, #0x1
    9ed0:	f8004000 	stur	x0, [x0, #4]
    9ed4:	d4200500 	brk	#0x28
    9ed8:	52800062 	mov	w2, #0x3                   	// #3
    9edc:	72a00002 	movk	w2, #0x0, lsl #16
    9ee0:	d42001c0 	brk	#0xe
    9ee4:	d4200a00 	brk	#0x50
    9ee8:	d4200500 	brk	#0x28
    9eec:	910083ff 	add	sp, sp, #0x20
    9ef0:	a8c17bfd 	ldp	x29, x30, [sp], #16
    9ef4:	d65f03c0 	ret
    9ef8:	d503201f 	nop
    9efc:	d503201f 	nop
    9f00:	a9bf7bfd 	stp	x29, x30, [sp, #-16]!
    9f04:	910003fd 	mov	x29, sp
    9f08:	d10143ff 	sub	sp, sp, #0x50
    9f0c:	52800001 	mov	w1, #0x0                   	// #0
    9f10:	72a00001 	movk	w1, #0x0, lsl #16
    9f14:	d4200500 	brk	#0x28
    9f18:	528000e2 	mov	w2, #0x7                   	// #7
    9f1c:	72a00002 	movk	w2, #0x0, lsl #16
    9f20:	d42001e0 	brk	#0xf
    9f24:	b85f03a3 	ldur	w3, [x29, #-16]
    9f28:	6b01007f 	cmp	w3, w1
    9f2c:	5400038a 	b.ge	0x9f9c  // b.tcont
    9f30:	2a0103e2 	mov	w2, w1
    9f34:	11000401 	add	w1, w0, #0x1
    9f38:	d4200500 	brk	#0x28
    9f3c:	528000e4 	mov	w4, #0x7                   	// #7
    9f40:	72a00004 	movk	w4, #0x0, lsl #16
    9f44:	d4200100 	brk	#0x8
    9f48:	d4200100 	brk	#0x8
    9f4c:	d4200500 	brk	#0x28
    9f50:	52800065 	mov	w5, #0x3                   	// #3
    9f54:	72a00005 	movk	w5, #0x0, lsl #16
    9f58:	d42001c0 	brk	#0xe
    9f5c:	d4200980 	brk	#0x4c
    9f60:	d4200500 	brk	#0x28
    9f64:	d4200500 	brk	#0x28
    9f68:	52800065 	mov	w5, #0x3                   	// #3
    9f6c:	72a00005 	movk	w5, #0x0, lsl #16
    9f70:	d42001c0 	brk	#0xe
    9f74:	d4200980 	brk	#0x4c
    9f78:	52800065 	mov	w5, #0x3                   	// #3
    9f7c:	72a00005 	movk	w5, #0x0, lsl #16
    9f80:	d42001c0 	brk	#0xe
    9f84:	d4200a00 	brk	#0x50
    9f88:	d4200500 	brk	#0x28
    9f8c:	52800065 	mov	w5, #0x3                   	// #3
    9f90:	72a00005 	movk	w5, #0x0, lsl #16
    9f94:	d42001c0 	brk	#0xe
    9f98:	d4200a00 	brk	#0x50
    9f9c:	17ffffe1 	b	0x9f20
    9fa0:	910143ff 	add	sp, sp, #0x50
    9fa4:	a8c17bfd 	ldp	x29, x30, [sp], #16
    9fa8:	d65f03c0 	ret
    9fac:	d503201f 	nop
    9fb0:	a9bf7bfd 	stp	x29, x30, [sp, #-16]!
    9fb4:	910003fd 	mov	x29, sp
    9fb8:	d10143ff 	sub	sp, sp, #0x50
    9fbc:	d4200500 	brk	#0x28
    9fc0:	52800001 	mov	w1, #0x0                   	// #0
    9fc4:	72a00001 	movk	w1, #0x0, lsl #16
    9fc8:	b85f43a2 	ldur	w2, [x29, #-12]
    9fcc:	6b02003f 	cmp	w1, w2
    9fd0:	54000081 	b.ne	0x9fe0  // b.any
    9fd4:	aa1f03e3 	mov	x3, xzr
    9fd8:	910143ff 	add	sp, sp, #0x50
    9fdc:	a8c17bfd 	ldp	x29, x30, [sp], #16
    9fe0:	d65f03c0 	ret
    9fe4:	d4200500 	brk	#0x28
    9fe8:	52800002 	mov	w2, #0x0                   	// #0
    9fec:	72a00002 	movk	w2, #0x0, lsl #16
    9ff0:	52800061 	mov	w1, #0x3                   	// #3
    9ff4:	72a00001 	movk	w1, #0x0, lsl #16
    9ff8:	d42001c0 	brk	#0xe
    9ffc:	d4200980 	brk	#0x4c
    a000:	f8408002 	ldur	x2, [x0, #8]
    a004:	51000402 	sub	w2, w0, #0x1
    a008:	f8018000 	stur	x0, [x0, #24]
    a00c:	d4200500 	brk	#0x28
    a010:	d4200500 	brk	#0x28
    a014:	d4200500 	brk	#0x28
    a018:	528000e2 	mov	w2, #0x7                   	// #7
    a01c:	72a00002 	movk	w2, #0x0, lsl #16
    a020:	52800061 	mov	w1, #0x3                   	// #3
    a024:	72a00001 	movk	w1, #0x0, lsl #16
    a028:	d42001c0 	brk	#0xe
    a02c:	d4200500 	brk	#0x28
    a030:	52800001 	mov	w1, #0x0                   	// #0
    a034:	72a00001 	movk	w1, #0x0, lsl #16
    a038:	d4200500 	brk	#0x28
    a03c:	52800064 	mov	w4, #0x3                   	// #3
    a040:	72a00004 	movk	w4, #0x0, lsl #16
    a044:	d42001c0 	brk	#0xe
    a048:	f81f83a0 	stur	x0, [x29, #-8]
    a04c:	b81f03a1 	stur	w1, [x29, #-16]
    a050:	b81f43a2 	stur	w2, [x29, #-12]
    a054:	f81e83a3 	stur	x3, [x29, #-24]
    a058:	b81b03a4 	stur	w4, [x29, #-80]
    a05c:	f85d83a0 	ldur	x0, [x29, #-40]
    a060:	b85f03a1 	ldur	w1, [x29, #-16]
    a064:	f85c83a2 	ldur	x2, [x29, #-56]
    a068:	b85f43a3 	ldur	w3, [x29, #-12]
    a06c:	b85b43a4 	ldur	w4, [x29, #-76]
    a070:	d2906d91 	mov	x17, #0x836c                	// #33644
    a074:	f2a031b1 	movk	x17, #0x18d, lsl #16
    a078:	f2c00ab1 	movk	x17, #0x55, lsl #32
    a07c:	f2e00011 	movk	x17, #0x0, lsl #48
    a080:	d63f0220 	blr	x17
    a084:	d4200760 	brk	#0x3b
    a088:	910143ff 	add	sp, sp, #0x50
    a08c:	a8c17bfd 	ldp	x29, x30, [sp], #16
    a090:	d65f03c0 	ret
    a094:	d503201f 	nop
    a098:	d503201f 	nop
    a09c:	d503201f 	nop
    a0a0:	a9bf7bfd 	stp	x29, x30, [sp, #-16]!
    a0a4:	910003fd 	mov	x29, sp
    a0a8:	d10203ff 	sub	sp, sp, #0x80
    a0ac:	f81f83a0 	stur	x0, [x29, #-8]
    a0b0:	b81f43a1 	stur	w1, [x29, #-12]
    a0b4:	f81e83a2 	stur	x2, [x29, #-24]
    a0b8:	b81e43a3 	stur	w3, [x29, #-28]
    a0bc:	b81e03a4 	stur	w4, [x29, #-32]
    a0c0:	d13fa3e0 	sub	x0, sp, #0xfe8
    a0c4:	d2856d01 	mov	x1, #0x2b68                	// #11112
    a0c8:	f2a000c1 	movk	x1, #0x6, lsl #16
    a0cc:	f2c00aa1 	movk	x1, #0x55, lsl #32
    a0d0:	f2e00001 	movk	x1, #0x0, lsl #48
    a0d4:	d2858502 	mov	x2, #0x2c28                	// #11304
    a0d8:	f2a000c2 	movk	x2, #0x6, lsl #16
    a0dc:	f2c00aa2 	movk	x2, #0x55, lsl #32
    a0e0:	f2e00002 	movk	x2, #0x0, lsl #48
    a0e4:	d2942991 	mov	x17, #0xa14c                	// #41292
    a0e8:	f2a031b1 	movk	x17, #0x18d, lsl #16
    a0ec:	f2c00ab1 	movk	x17, #0x55, lsl #32
    a0f0:	f2e00011 	movk	x17, #0x0, lsl #48
    a0f4:	d63f0220 	blr	x17
    a0f8:	52800000 	mov	w0, #0x0                   	// #0
    a0fc:	72a00000 	movk	w0, #0x0, lsl #16
    a100:	b85f43a1 	ldur	w1, [x29, #-12]
    a104:	6b01001f 	cmp	w0, w1
    a108:	5400046b 	b.lt	0xa194  // b.tstop
    a10c:	52800000 	mov	w0, #0x0                   	// #0
    a110:	72a00000 	movk	w0, #0x0, lsl #16
    a114:	b85e43a2 	ldur	w2, [x29, #-28]
    a118:	6b02001f 	cmp	w0, w2
    a11c:	540003cb 	b.lt	0xa194  // b.tstop
    a120:	52800000 	mov	w0, #0x0                   	// #0
    a124:	72a00000 	movk	w0, #0x0, lsl #16
    a128:	b85e03a3 	ldur	w3, [x29, #-32]
    a12c:	6b03001f 	cmp	w0, w3
    a130:	5400032b 	b.lt	0xa194  // b.tstop
    a134:	d42000e0 	brk	#0x7
    a138:	d4200500 	brk	#0x28
    a13c:	b85d43a4 	ldur	w4, [x29, #-44]
    a140:	6b00009f 	cmp	w4, w0
    a144:	5400028b 	b.lt	0xa194  // b.tstop
    a148:	d42000e0 	brk	#0x7
    a14c:	f85d83a5 	ldur	x5, [x29, #-40]
    a150:	710000bf 	cmp	w5, #0x0
    a154:	54000601 	b.ne	0xa214  // b.any
    a158:	b81d03a0 	stur	w0, [x29, #-48]
    a15c:	b81f43a1 	stur	w1, [x29, #-12]
    a160:	b81e43a2 	stur	w2, [x29, #-28]
    a164:	b81e03a3 	stur	w3, [x29, #-32]
    a168:	b81d43a4 	stur	w4, [x29, #-44]
    a16c:	f81d83a5 	stur	x5, [x29, #-40]
    a170:	d298b091 	mov	x17, #0xc584                	// #50564
    a174:	f2a031b1 	movk	x17, #0x18d, lsl #16
    a178:	f2c00ab1 	movk	x17, #0x55, lsl #32
    a17c:	f2e00011 	movk	x17, #0x0, lsl #48
    a180:	d63f0220 	blr	x17
    a184:	f85d83a0 	ldur	x0, [x29, #-40]
    a188:	f8408001 	ldur	x1, [x0, #8]
    a18c:	b85d43a2 	ldur	w2, [x29, #-44]
    a190:	6b01005f 	cmp	w2, w1
    a194:	5400018a 	b.ge	0xa1c4  // b.tcont
    a198:	d295b204 	mov	x4, #0xad90                	// #44432
    a19c:	f2a000c4 	movk	x4, #0x6, lsl #16
    a1a0:	f2c00aa4 	movk	x4, #0x55, lsl #32
    a1a4:	f2e00004 	movk	x4, #0x0, lsl #48
    a1a8:	f8400083 	ldur	x3, [x4]
    a1ac:	f81d83a0 	stur	x0, [x29, #-40]
    a1b0:	b81d03a1 	stur	w1, [x29, #-48]
    a1b4:	b81d43a2 	stur	w2, [x29, #-44]
    a1b8:	f81c03a3 	stur	x3, [x29, #-64]
    a1bc:	f85c03a0 	ldur	x0, [x29, #-64]
    a1c0:	97ffe468 	bl	0x3360
    a1c4:	d4200880 	brk	#0x44
    a1c8:	d4200500 	brk	#0x28
    a1cc:	d4200500 	brk	#0x28
    a1d0:	52800061 	mov	w1, #0x3                   	// #3
    a1d4:	72a00001 	movk	w1, #0x0, lsl #16
    a1d8:	d42001c0 	brk	#0xe
    a1dc:	f85d83a2 	ldur	x2, [x29, #-40]
    a1e0:	f8410043 	ldur	x3, [x2, #16]
    a1e4:	d4200500 	brk	#0x28
    a1e8:	52800064 	mov	w4, #0x3                   	// #3
    a1ec:	72a00004 	movk	w4, #0x0, lsl #16
    a1f0:	d42001c0 	brk	#0xe
    a1f4:	d4200500 	brk	#0x28
    a1f8:	52800065 	mov	w5, #0x3                   	// #3
    a1fc:	72a00005 	movk	w5, #0x0, lsl #16
    a200:	d42001c0 	brk	#0xe
    a204:	f81c83a0 	stur	x0, [x29, #-56]
    a208:	b81d03a1 	stur	w1, [x29, #-48]
    a20c:	f81d83a2 	stur	x2, [x29, #-40]
    a210:	f81a83a3 	stur	x3, [x29, #-88]
    a214:	b819c3a4 	stur	w4, [x29, #-100]
    a218:	b81883a5 	stur	w5, [x29, #-120]
    a21c:	f85b83a0 	ldur	x0, [x29, #-72]
    a220:	b85d43a1 	ldur	w1, [x29, #-44]
    a224:	f85a83a2 	ldur	x2, [x29, #-88]
    a228:	b85d03a3 	ldur	w3, [x29, #-48]
    a22c:	b858c3a4 	ldur	w4, [x29, #-116]
    a230:	d2906d91 	mov	x17, #0x836c                	// #33644
    a234:	f2a031b1 	movk	x17, #0x18d, lsl #16
    a238:	f2c00ab1 	movk	x17, #0x55, lsl #32
    a23c:	f2e00011 	movk	x17, #0x0, lsl #48
    a240:	d63f0220 	blr	x17
    a244:	910203ff 	add	sp, sp, #0x80
    a248:	a8c17bfd 	ldp	x29, x30, [sp], #16
    a24c:	d65f03c0 	ret
    a250:	a9bf7bfd 	stp	x29, x30, [sp, #-16]!
    a254:	910003fd 	mov	x29, sp
    a258:	d10183ff 	sub	sp, sp, #0x60
    a25c:	52800003 	mov	w3, #0x0                   	// #0
    a260:	72a00003 	movk	w3, #0x0, lsl #16
    a264:	6b01007f 	cmp	w3, w1
    a268:	5400016a 	b.ge	0xa294  // b.tcont
    a26c:	d4200500 	brk	#0x28
    a270:	d42000e0 	brk	#0x7
    a274:	b85e43a4 	ldur	w4, [x29, #-28]
    a278:	2a0403e1 	mov	w1, w4
    a27c:	52800003 	mov	w3, #0x0                   	// #0
    a280:	72a00003 	movk	w3, #0x0, lsl #16
    a284:	6b04007f 	cmp	w3, w4
    a288:	5400006a 	b.ge	0xa294  // b.tcont
    a28c:	52800004 	mov	w4, #0x0                   	// #0
    a290:	72a00004 	movk	w4, #0x0, lsl #16
    a294:	2a0403e1 	mov	w1, w4
    a298:	7100005f 	cmp	w2, #0x0
    a29c:	54000041 	b.ne	0xa2a4  // b.any
    a2a0:	d4200500 	brk	#0x28
    a2a4:	1400001e 	b	0xa31c
    a2a8:	f81f83a0 	stur	x0, [x29, #-8]
    a2ac:	b81f43a1 	stur	w1, [x29, #-12]
    a2b0:	f81e83a2 	stur	x2, [x29, #-24]
    a2b4:	b81e03a3 	stur	w3, [x29, #-32]
    a2b8:	b81e43a4 	stur	w4, [x29, #-28]
    a2bc:	d13fa3e0 	sub	x0, sp, #0xfe8
    a2c0:	d2876101 	mov	x1, #0x3b08                	// #15112
    a2c4:	f2a000c1 	movk	x1, #0x6, lsl #16
    a2c8:	f2c00aa1 	movk	x1, #0x55, lsl #32
    a2cc:	f2e00001 	movk	x1, #0x0, lsl #48
    a2d0:	d2851102 	mov	x2, #0x2888                	// #10376
    a2d4:	f2a000c2 	movk	x2, #0x6, lsl #16
    a2d8:	f2c00aa2 	movk	x2, #0x55, lsl #32
    a2dc:	f2e00002 	movk	x2, #0x0, lsl #48
    a2e0:	d293ee91 	mov	x17, #0x9f74                	// #40820
    a2e4:	f2a031b1 	movk	x17, #0x18d, lsl #16
    a2e8:	f2c00ab1 	movk	x17, #0x55, lsl #32
    a2ec:	f2e00011 	movk	x17, #0x0, lsl #48
    a2f0:	d63f0220 	blr	x17
    a2f4:	52800000 	mov	w0, #0x0                   	// #0
    a2f8:	72a00000 	movk	w0, #0x0, lsl #16
    a2fc:	b85e03a1 	ldur	w1, [x29, #-32]
    a300:	6b01001f 	cmp	w0, w1
    a304:	5400004a 	b.ge	0xa30c  // b.tcont
    a308:	d4200500 	brk	#0x28
    a30c:	d42000e0 	brk	#0x7
    a310:	d4200500 	brk	#0x28
    a314:	6b00003f 	cmp	w1, w0
    a318:	5400002a 	b.ge	0xa31c  // b.tcont
    a31c:	d4200500 	brk	#0x28
    a320:	d4200100 	brk	#0x8
    a324:	52800002 	mov	w2, #0x0                   	// #0
    a328:	72a00002 	movk	w2, #0x0, lsl #16
    a32c:	6b01005f 	cmp	w2, w1
    a330:	5400024a 	b.ge	0xa378  // b.tcont
    a334:	b81dc3a0 	stur	w0, [x29, #-36]
    a338:	b81e03a1 	stur	w1, [x29, #-32]
    a33c:	b81d83a2 	stur	w2, [x29, #-40]
    a340:	d2858500 	mov	x0, #0x2c28                	// #11304
    a344:	f2a000c0 	movk	x0, #0x6, lsl #16
    a348:	f2c00aa0 	movk	x0, #0x55, lsl #32
    a34c:	f2e00000 	movk	x0, #0x0, lsl #48
    a350:	d287fa11 	mov	x17, #0x3fd0                	// #16336
    a354:	f2a031b1 	movk	x17, #0x18d, lsl #16
    a358:	f2c00ab1 	movk	x17, #0x55, lsl #32
    a35c:	f2e00011 	movk	x17, #0x0, lsl #48
    a360:	d63f0220 	blr	x17
    a364:	f81d03a0 	stur	x0, [x29, #-48]
    a368:	f85d03a0 	ldur	x0, [x29, #-48]
    a36c:	97fffdd9 	bl	0x9ad0
    a370:	910183ff 	add	sp, sp, #0x60
    a374:	a8c17bfd 	ldp	x29, x30, [sp], #16
    a378:	d65f03c0 	ret
    a37c:	d2858500 	mov	x0, #0x2c28                	// #11304
    a380:	f2a000c0 	movk	x0, #0x6, lsl #16
    a384:	f2c00aa0 	movk	x0, #0x55, lsl #32
    a388:	f2e00000 	movk	x0, #0x0, lsl #48
    a38c:	d287fa11 	mov	x17, #0x3fd0                	// #16336
    a390:	f2a031b1 	movk	x17, #0x18d, lsl #16
    a394:	f2c00ab1 	movk	x17, #0x55, lsl #32
    a398:	f2e00011 	movk	x17, #0x0, lsl #48
    a39c:	d63f0220 	blr	x17
    a3a0:	f81d03a0 	stur	x0, [x29, #-48]
    a3a4:	f85d03a0 	ldur	x0, [x29, #-48]
    a3a8:	97fffdca 	bl	0x9ad0
    a3ac:	f85e83a0 	ldur	x0, [x29, #-24]
    a3b0:	f85d03a1 	ldur	x1, [x29, #-48]
    a3b4:	f8000001 	stur	x1, [x0]
    a3b8:	f85f83a2 	ldur	x2, [x29, #-8]
    a3bc:	f8000041 	stur	x1, [x2]
    a3c0:	d4200500 	brk	#0x28
    a3c4:	d4200500 	brk	#0x28
    a3c8:	52800063 	mov	w3, #0x3                   	// #3
    a3cc:	72a00003 	movk	w3, #0x0, lsl #16
    a3d0:	d42001c0 	brk	#0xe
    a3d4:	d4200500 	brk	#0x28
    a3d8:	52800064 	mov	w4, #0x3                   	// #3
    a3dc:	72a00004 	movk	w4, #0x0, lsl #16
    a3e0:	d42001c0 	brk	#0xe
    a3e4:	f81e83a0 	stur	x0, [x29, #-24]
    a3e8:	f81d03a1 	stur	x1, [x29, #-48]
    a3ec:	f81f83a2 	stur	x2, [x29, #-8]
    a3f0:	b81d83a3 	stur	w3, [x29, #-40]
    a3f4:	b81a83a4 	stur	w4, [x29, #-88]
    a3f8:	f85c83a0 	ldur	x0, [x29, #-56]
    a3fc:	b85dc3a1 	ldur	w1, [x29, #-36]
    a400:	b85ac3a2 	ldur	w2, [x29, #-84]
    a404:	97ffe1cf 	bl	0x2b40
    a408:	b85f43a1 	ldur	w1, [x29, #-12]
    a40c:	f85d03a2 	ldur	x2, [x29, #-48]
    a410:	b8000022 	stur	w2, [x1]
    a414:	910183ff 	add	sp, sp, #0x60
    a418:	a8c17bfd 	ldp	x29, x30, [sp], #16
    a41c:	d65f03c0 	ret
    a420:	a9bf7bfd 	stp	x29, x30, [sp, #-16]!
    a424:	910003fd 	mov	x29, sp
    a428:	d10083ff 	sub	sp, sp, #0x20
    a42c:	d4200780 	brk	#0x3c
    a430:	d4200780 	brk	#0x3c
    a434:	d4200400 	brk	#0x20
    a438:	910083ff 	add	sp, sp, #0x20
    a43c:	a8c17bfd 	ldp	x29, x30, [sp], #16
    a440:	d65f03c0 	ret
    a444:	d503201f 	nop
    a448:	d503201f 	nop
    a44c:	d503201f 	nop
    a450:	a9bf7bfd 	stp	x29, x30, [sp, #-16]!
    a454:	910003fd 	mov	x29, sp
    a458:	d100c3ff 	sub	sp, sp, #0x30
    a45c:	d4200780 	brk	#0x3c
    a460:	d4200780 	brk	#0x3c
    a464:	d4200400 	brk	#0x20
    a468:	9100c3ff 	add	sp, sp, #0x30
    a46c:	a8c17bfd 	ldp	x29, x30, [sp], #16
    a470:	d65f03c0 	ret
    a474:	d503201f 	nop
    a478:	d503201f 	nop
    a47c:	d503201f 	nop
    a480:	a9bf7bfd 	stp	x29, x30, [sp, #-16]!
    a484:	910003fd 	mov	x29, sp
    a488:	d10103ff 	sub	sp, sp, #0x40
    a48c:	d2851902 	mov	x2, #0x28c8                	// #10440
    a490:	f2a000c2 	movk	x2, #0x6, lsl #16
    a494:	f2c00aa2 	movk	x2, #0x55, lsl #32
    a498:	f2e00002 	movk	x2, #0x0, lsl #48
    a49c:	d2851103 	mov	x3, #0x2888                	// #10376
    a4a0:	f2a000c3 	movk	x3, #0x6, lsl #16
    a4a4:	f2c00aa3 	movk	x3, #0x55, lsl #32
    a4a8:	f2e00003 	movk	x3, #0x0, lsl #48
    a4ac:	6b02007f 	cmp	w3, w2
    a4b0:	54000321 	b.ne	0xa514  // b.any
    a4b4:	d4200500 	brk	#0x28
    a4b8:	52800004 	mov	w4, #0x0                   	// #0
    a4bc:	72a00004 	movk	w4, #0x0, lsl #16
    a4c0:	d4200500 	brk	#0x28
    a4c4:	7100003f 	cmp	w1, #0x0
    a4c8:	54000041 	b.ne	0xa4d0  // b.any
    a4cc:	aa1f03e5 	mov	x5, xzr
    a4d0:	14000001 	b	0xa4d4
    a4d4:	d4200440 	brk	#0x22
    a4d8:	f81f83a0 	stur	x0, [x29, #-8]
    a4dc:	f81f03a1 	stur	x1, [x29, #-16]
    a4e0:	f81e83a2 	stur	x2, [x29, #-24]
    a4e4:	f81e03a3 	stur	x3, [x29, #-32]
    a4e8:	b81d43a4 	stur	w4, [x29, #-44]
    a4ec:	f81c83a5 	stur	x5, [x29, #-56]
    a4f0:	f85d83a0 	ldur	x0, [x29, #-40]
    a4f4:	b85d43a1 	ldur	w1, [x29, #-44]
    a4f8:	b85d03a2 	ldur	w2, [x29, #-48]
    a4fc:	f85c83a3 	ldur	x3, [x29, #-56]
    a500:	d2910791 	mov	x17, #0x883c                	// #34876
    a504:	f2a031b1 	movk	x17, #0x18d, lsl #16
    a508:	f2c00ab1 	movk	x17, #0x55, lsl #32
    a50c:	f2e00011 	movk	x17, #0x0, lsl #48
    a510:	d63f0220 	blr	x17
    a514:	14000016 	b	0xa56c
    a518:	d4200500 	brk	#0x28
    a51c:	52800000 	mov	w0, #0x0                   	// #0
    a520:	72a00000 	movk	w0, #0x0, lsl #16
    a524:	d4200500 	brk	#0x28
    a528:	f85f03a1 	ldur	x1, [x29, #-16]
    a52c:	7100003f 	cmp	w1, #0x0
    a530:	54000041 	b.ne	0xa538  // b.any
    a534:	aa1f03e2 	mov	x2, xzr
    a538:	14000001 	b	0xa53c
    a53c:	d4200440 	brk	#0x22
    a540:	b81d43a0 	stur	w0, [x29, #-44]
    a544:	f81f03a1 	stur	x1, [x29, #-16]
    a548:	f81c03a2 	stur	x2, [x29, #-64]
    a54c:	f85d83a0 	ldur	x0, [x29, #-40]
    a550:	b85d43a1 	ldur	w1, [x29, #-44]
    a554:	b85d03a2 	ldur	w2, [x29, #-48]
    a558:	f85c03a3 	ldur	x3, [x29, #-64]
    a55c:	d2913e91 	mov	x17, #0x89f4                	// #35316
    a560:	f2a031b1 	movk	x17, #0x18d, lsl #16
    a564:	f2c00ab1 	movk	x17, #0x55, lsl #32
    a568:	f2e00011 	movk	x17, #0x0, lsl #48
    a56c:	d63f0220 	blr	x17
    a570:	910103ff 	add	sp, sp, #0x40
    a574:	a8c17bfd 	ldp	x29, x30, [sp], #16
    a578:	d65f03c0 	ret
    a57c:	d503201f 	nop
    a580:	a9bf7bfd 	stp	x29, x30, [sp, #-16]!
    a584:	910003fd 	mov	x29, sp
    a588:	d10203ff 	sub	sp, sp, #0x80
    a58c:	52800003 	mov	w3, #0x0                   	// #0
    a590:	72a00003 	movk	w3, #0x0, lsl #16
    a594:	6b02007f 	cmp	w3, w2
    a598:	5400026a 	b.ge	0xa5e4  // b.tcont
    a59c:	f81f83a0 	stur	x0, [x29, #-8]
    a5a0:	b81f43a1 	stur	w1, [x29, #-12]
    a5a4:	b81f03a2 	stur	w2, [x29, #-16]
    a5a8:	b81e83a3 	stur	w3, [x29, #-24]
    a5ac:	d2858500 	mov	x0, #0x2c28                	// #11304
    a5b0:	f2a000c0 	movk	x0, #0x6, lsl #16
    a5b4:	f2c00aa0 	movk	x0, #0x55, lsl #32
    a5b8:	f2e00000 	movk	x0, #0x0, lsl #48
    a5bc:	d287fa11 	mov	x17, #0x3fd0                	// #16336
    a5c0:	f2a031b1 	movk	x17, #0x18d, lsl #16
    a5c4:	f2c00ab1 	movk	x17, #0x55, lsl #32
    a5c8:	f2e00011 	movk	x17, #0x0, lsl #48
    a5cc:	d63f0220 	blr	x17
    a5d0:	f81e03a0 	stur	x0, [x29, #-32]
    a5d4:	f85e03a0 	ldur	x0, [x29, #-32]
    a5d8:	97fffd3e 	bl	0x9ad0
    a5dc:	910203ff 	add	sp, sp, #0x80
    a5e0:	a8c17bfd 	ldp	x29, x30, [sp], #16
    a5e4:	d65f03c0 	ret
    a5e8:	52800000 	mov	w0, #0x0                   	// #0
    a5ec:	72a00000 	movk	w0, #0x0, lsl #16
    a5f0:	b85f43a1 	ldur	w1, [x29, #-12]
    a5f4:	6b01001f 	cmp	w0, w1
    a5f8:	5400016a 	b.ge	0xa624  // b.tcont
    a5fc:	d4200500 	brk	#0x28
    a600:	d42000e0 	brk	#0x7
    a604:	b85ec3a2 	ldur	w2, [x29, #-20]
    a608:	2a0203e1 	mov	w1, w2
    a60c:	52800000 	mov	w0, #0x0                   	// #0
    a610:	72a00000 	movk	w0, #0x0, lsl #16
    a614:	6b02001f 	cmp	w0, w2
    a618:	5400006a 	b.ge	0xa624  // b.tcont
    a61c:	52800002 	mov	w2, #0x0                   	// #0
    a620:	72a00002 	movk	w2, #0x0, lsl #16
    a624:	2a0203e1 	mov	w1, w2
    a628:	d4200500 	brk	#0x28
    a62c:	6b00003f 	cmp	w1, w0
    a630:	540000ea 	b.ge	0xa64c  // b.tcont
    a634:	52800002 	mov	w2, #0x0                   	// #0
    a638:	72a00002 	movk	w2, #0x0, lsl #16
    a63c:	2a0203e1 	mov	w1, w2
    a640:	52800002 	mov	w2, #0x0                   	// #0
    a644:	72a00002 	movk	w2, #0x0, lsl #16
    a648:	b81f03a2 	stur	w2, [x29, #-16]
    a64c:	1400000e 	b	0xa684
    a650:	d42000e0 	brk	#0x7
    a654:	d4200500 	brk	#0x28
    a658:	6b00005f 	cmp	w2, w0
    a65c:	5400014a 	b.ge	0xa684  // b.tcont
    a660:	d4200500 	brk	#0x28
    a664:	d4200100 	brk	#0x8
    a668:	b81f03a2 	stur	w2, [x29, #-16]
    a66c:	52800000 	mov	w0, #0x0                   	// #0
    a670:	72a00000 	movk	w0, #0x0, lsl #16
    a674:	6b02001f 	cmp	w0, w2
    a678:	5400006a 	b.ge	0xa684  // b.tcont
    a67c:	52800002 	mov	w2, #0x0                   	// #0
    a680:	72a00002 	movk	w2, #0x0, lsl #16
    a684:	b81f03a2 	stur	w2, [x29, #-16]
    a688:	52800000 	mov	w0, #0x0                   	// #0
    a68c:	72a00000 	movk	w0, #0x0, lsl #16
    a690:	b85f03a3 	ldur	w3, [x29, #-16]
    a694:	6b03001f 	cmp	w0, w3
    a698:	54000261 	b.ne	0xa6e4  // b.any
    a69c:	b81e83a0 	stur	w0, [x29, #-24]
    a6a0:	b81f43a1 	stur	w1, [x29, #-12]
    a6a4:	b81ec3a2 	stur	w2, [x29, #-20]
    a6a8:	b81f03a3 	stur	w3, [x29, #-16]
    a6ac:	d2858500 	mov	x0, #0x2c28                	// #11304
    a6b0:	f2a000c0 	movk	x0, #0x6, lsl #16
    a6b4:	f2c00aa0 	movk	x0, #0x55, lsl #32
    a6b8:	f2e00000 	movk	x0, #0x0, lsl #48
    a6bc:	d287fa11 	mov	x17, #0x3fd0                	// #16336
    a6c0:	f2a031b1 	movk	x17, #0x18d, lsl #16
    a6c4:	f2c00ab1 	movk	x17, #0x55, lsl #32
    a6c8:	f2e00011 	movk	x17, #0x0, lsl #48
    a6cc:	d63f0220 	blr	x17
    a6d0:	f81e03a0 	stur	x0, [x29, #-32]
    a6d4:	f85e03a0 	ldur	x0, [x29, #-32]
    a6d8:	97fffcfe 	bl	0x9ad0
    a6dc:	910203ff 	add	sp, sp, #0x80
    a6e0:	a8c17bfd 	ldp	x29, x30, [sp], #16
    a6e4:	d65f03c0 	ret
    a6e8:	d2858500 	mov	x0, #0x2c28                	// #11304
    a6ec:	f2a000c0 	movk	x0, #0x6, lsl #16
    a6f0:	f2c00aa0 	movk	x0, #0x55, lsl #32
    a6f4:	f2e00000 	movk	x0, #0x0, lsl #48
    a6f8:	d287fa11 	mov	x17, #0x3fd0                	// #16336
    a6fc:	f2a031b1 	movk	x17, #0x18d, lsl #16
    a700:	f2c00ab1 	movk	x17, #0x55, lsl #32
    a704:	f2e00011 	movk	x17, #0x0, lsl #48
    a708:	d63f0220 	blr	x17
    a70c:	f81e03a0 	stur	x0, [x29, #-32]
    a710:	f85e03a0 	ldur	x0, [x29, #-32]
    a714:	97fffcef 	bl	0x9ad0
    a718:	d4200500 	brk	#0x28
    a71c:	d4200500 	brk	#0x28
    a720:	52800060 	mov	w0, #0x3                   	// #3
    a724:	72a00000 	movk	w0, #0x0, lsl #16
    a728:	d42001c0 	brk	#0xe
    a72c:	d4200500 	brk	#0x28
    a730:	52800061 	mov	w1, #0x3                   	// #3
    a734:	72a00001 	movk	w1, #0x0, lsl #16
    a738:	d42001c0 	brk	#0xe
    a73c:	b81e83a0 	stur	w0, [x29, #-24]
    a740:	b81b83a1 	stur	w1, [x29, #-72]
    a744:	f85d83a0 	ldur	x0, [x29, #-40]
    a748:	b85ec3a1 	ldur	w1, [x29, #-20]
    a74c:	b85bc3a2 	ldur	w2, [x29, #-68]
    a750:	97ffe0fc 	bl	0x2b40
    a754:	b85f43a1 	ldur	w1, [x29, #-12]
    a758:	f85e03a2 	ldur	x2, [x29, #-32]
    a75c:	b801c022 	stur	w2, [x1, #28]
    a760:	f85f83a3 	ldur	x3, [x29, #-8]
    a764:	f8018062 	stur	x2, [x3, #24]
    a768:	b85f03a4 	ldur	w4, [x29, #-16]
    a76c:	b8018082 	stur	w2, [x4, #24]
    a770:	d42000e0 	brk	#0x7
    a774:	d4200500 	brk	#0x28
    a778:	d4200500 	brk	#0x28
    a77c:	52800065 	mov	w5, #0x3                   	// #3
    a780:	72a00005 	movk	w5, #0x0, lsl #16
    a784:	d42001c0 	brk	#0xe
    a788:	d4200500 	brk	#0x28
    a78c:	d4200500 	brk	#0x28
    a790:	52800066 	mov	w6, #0x3                   	// #3
    a794:	72a00006 	movk	w6, #0x0, lsl #16
    a798:	d42001c0 	brk	#0xe
    a79c:	d4200500 	brk	#0x28
    a7a0:	d4200500 	brk	#0x28
    a7a4:	d4200100 	brk	#0x8
    a7a8:	52800067 	mov	w7, #0x3                   	// #3
    a7ac:	72a00007 	movk	w7, #0x0, lsl #16
    a7b0:	d42001c0 	brk	#0xe
    a7b4:	f81c03a0 	stur	x0, [x29, #-64]
    a7b8:	b81f43a1 	stur	w1, [x29, #-12]
    a7bc:	f81e03a2 	stur	x2, [x29, #-32]
    a7c0:	f81f83a3 	stur	x3, [x29, #-8]
    a7c4:	b81f03a4 	stur	w4, [x29, #-16]
    a7c8:	b81b83a5 	stur	w5, [x29, #-72]
    a7cc:	b819c3a6 	stur	w6, [x29, #-100]
    a7d0:	b81883a7 	stur	w7, [x29, #-120]
    a7d4:	f85c03a0 	ldur	x0, [x29, #-64]
    a7d8:	b85bc3a1 	ldur	w1, [x29, #-68]
    a7dc:	f85a83a2 	ldur	x2, [x29, #-88]
    a7e0:	b85b83a3 	ldur	w3, [x29, #-72]
    a7e4:	b858c3a4 	ldur	w4, [x29, #-116]
    a7e8:	d2906d91 	mov	x17, #0x836c                	// #33644
    a7ec:	f2a031b1 	movk	x17, #0x18d, lsl #16
    a7f0:	f2c00ab1 	movk	x17, #0x55, lsl #32
    a7f4:	f2e00011 	movk	x17, #0x0, lsl #48
    a7f8:	d63f0220 	blr	x17
    a7fc:	f85f83a0 	ldur	x0, [x29, #-8]
    a800:	f8408001 	ldur	x1, [x0, #8]
    a804:	d4200100 	brk	#0x8
    a808:	f8158000 	stur	x0, [x0, #-168]
    a80c:	910203ff 	add	sp, sp, #0x80
    a810:	a8c17bfd 	ldp	x29, x30, [sp], #16
    a814:	d65f03c0 	ret
    a818:	d503201f 	nop
    a81c:	d503201f 	nop
    a820:	a9bf7bfd 	stp	x29, x30, [sp, #-16]!
    a824:	910003fd 	mov	x29, sp
    a828:	d10143ff 	sub	sp, sp, #0x50
    a82c:	f81f83a0 	stur	x0, [x29, #-8]
    a830:	d2878100 	mov	x0, #0x3c08                	// #15368
    a834:	f2a000c0 	movk	x0, #0x6, lsl #16
    a838:	f2c00aa0 	movk	x0, #0x55, lsl #32
    a83c:	f2e00000 	movk	x0, #0x0, lsl #48
    a840:	d287fa11 	mov	x17, #0x3fd0                	// #16336
    a844:	f2a031b1 	movk	x17, #0x18d, lsl #16
    a848:	f2c00ab1 	movk	x17, #0x55, lsl #32
    a84c:	f2e00011 	movk	x17, #0x0, lsl #48
    a850:	d63f0220 	blr	x17
    a854:	f81f03a0 	stur	x0, [x29, #-16]
    a858:	f85f03a0 	ldur	x0, [x29, #-16]
    a85c:	97ffde4d 	bl	0x2190
    a860:	52800560 	mov	w0, #0x2b                  	// #43
    a864:	72a00000 	movk	w0, #0x0, lsl #16
    a868:	b81ec3a0 	stur	w0, [x29, #-20]
    a86c:	f85f03a0 	ldur	x0, [x29, #-16]
    a870:	b85ec3a1 	ldur	w1, [x29, #-20]
    a874:	97ffdf27 	bl	0x2510
    a878:	52800000 	mov	w0, #0x0                   	// #0
    a87c:	72a00000 	movk	w0, #0x0, lsl #16
    a880:	d4200500 	brk	#0x28
    a884:	b85e83a1 	ldur	w1, [x29, #-24]
    a888:	6b00003f 	cmp	w1, w0
    a88c:	5400060a 	b.ge	0xa94c  // b.tcont
    a890:	b81e43a0 	stur	w0, [x29, #-28]
    a894:	f85f83a2 	ldur	x2, [x29, #-8]
    a898:	11000440 	add	w0, w2, #0x1
    a89c:	52800003 	mov	w3, #0x0                   	// #0
    a8a0:	72a00003 	movk	w3, #0x0, lsl #16
    a8a4:	b85e43a4 	ldur	w4, [x29, #-28]
    a8a8:	6b03009f 	cmp	w4, w3
    a8ac:	5400028a 	b.ge	0xa8fc  // b.tcont
    a8b0:	f85f03a5 	ldur	x5, [x29, #-16]
    a8b4:	710000bf 	cmp	w5, #0x0
    a8b8:	54000601 	b.ne	0xa978  // b.any
    a8bc:	b81ec3a0 	stur	w0, [x29, #-20]
    a8c0:	b81e83a1 	stur	w1, [x29, #-24]
    a8c4:	f81f83a2 	stur	x2, [x29, #-8]
    a8c8:	b81dc3a3 	stur	w3, [x29, #-36]
    a8cc:	b81e43a4 	stur	w4, [x29, #-28]
    a8d0:	f81f03a5 	stur	x5, [x29, #-16]
    a8d4:	d298b091 	mov	x17, #0xc584                	// #50564
    a8d8:	f2a031b1 	movk	x17, #0x18d, lsl #16
    a8dc:	f2c00ab1 	movk	x17, #0x55, lsl #32
    a8e0:	f2e00011 	movk	x17, #0x0, lsl #48
    a8e4:	d63f0220 	blr	x17
    a8e8:	52800580 	mov	w0, #0x2c                  	// #44
    a8ec:	72a00000 	movk	w0, #0x0, lsl #16
    a8f0:	b81e03a0 	stur	w0, [x29, #-32]
    a8f4:	f85f03a0 	ldur	x0, [x29, #-16]
    a8f8:	b85e03a1 	ldur	w1, [x29, #-32]
    a8fc:	97ffdf05 	bl	0x2510
    a900:	d4200500 	brk	#0x28
    a904:	f85f03a0 	ldur	x0, [x29, #-16]
    a908:	7100001f 	cmp	w0, #0x0
    a90c:	54000381 	b.ne	0xa97c  // b.any
    a910:	f81f03a0 	stur	x0, [x29, #-16]
    a914:	d298b091 	mov	x17, #0xc584                	// #50564
    a918:	f2a031b1 	movk	x17, #0x18d, lsl #16
    a91c:	f2c00ab1 	movk	x17, #0x55, lsl #32
    a920:	f2e00011 	movk	x17, #0x0, lsl #48
    a924:	d63f0220 	blr	x17
    a928:	52800060 	mov	w0, #0x3                   	// #3
    a92c:	72a00000 	movk	w0, #0x0, lsl #16
    a930:	d42001c0 	brk	#0xe
    a934:	d4200980 	brk	#0x4c
    a938:	d4200760 	brk	#0x3b
    a93c:	b81dc3a0 	stur	w0, [x29, #-36]
    a940:	f85f03a0 	ldur	x0, [x29, #-16]
    a944:	f85c03a1 	ldur	x1, [x29, #-64]
    a948:	97ffde2a 	bl	0x21f0
    a94c:	17ffffcd 	b	0xa880
    a950:	f85f03a0 	ldur	x0, [x29, #-16]
    a954:	7100001f 	cmp	w0, #0x0
    a958:	54000381 	b.ne	0xa9c8  // b.any
    a95c:	f81f03a0 	stur	x0, [x29, #-16]
    a960:	d298b091 	mov	x17, #0xc584                	// #50564
    a964:	f2a031b1 	movk	x17, #0x18d, lsl #16
    a968:	f2c00ab1 	movk	x17, #0x55, lsl #32
    a96c:	f2e00011 	movk	x17, #0x0, lsl #48
    a970:	d63f0220 	blr	x17
    a974:	528004e0 	mov	w0, #0x27                  	// #39
    a978:	72a00000 	movk	w0, #0x0, lsl #16
    a97c:	b81ec3a0 	stur	w0, [x29, #-20]
    a980:	f85f03a0 	ldur	x0, [x29, #-16]
    a984:	b85ec3a1 	ldur	w1, [x29, #-20]
    a988:	97ffdee2 	bl	0x2510
    a98c:	f85f03a0 	ldur	x0, [x29, #-16]
    a990:	97ffdfcc 	bl	0x28c0
    a994:	910143ff 	add	sp, sp, #0x50
    a998:	a8c17bfd 	ldp	x29, x30, [sp], #16
    a99c:	d65f03c0 	ret
    a9a0:	a9bf7bfd 	stp	x29, x30, [sp, #-16]!
    a9a4:	910003fd 	mov	x29, sp
    a9a8:	d10143ff 	sub	sp, sp, #0x50
    a9ac:	d4200500 	brk	#0x28
    a9b0:	d4200500 	brk	#0x28
    a9b4:	b85f03a2 	ldur	w2, [x29, #-16]
    a9b8:	b85ec3a3 	ldur	w3, [x29, #-20]
    a9bc:	6b02007f 	cmp	w3, w2
    a9c0:	54000121 	b.ne	0xa9e4  // b.any
    a9c4:	d4200500 	brk	#0x28
    a9c8:	f81f83a0 	stur	x0, [x29, #-8]
    a9cc:	bc1f43a1 	stur	s1, [x29, #-12]
    a9d0:	b81f03a2 	stur	w2, [x29, #-16]
    a9d4:	b81ec3a3 	stur	w3, [x29, #-20]
    a9d8:	f85f83a0 	ldur	x0, [x29, #-8]
    a9dc:	b85f03a1 	ldur	w1, [x29, #-16]
    a9e0:	94000090 	bl	0xac20
    a9e4:	14000004 	b	0xa9f4
    a9e8:	f85f83a0 	ldur	x0, [x29, #-8]
    a9ec:	f8408001 	ldur	x1, [x0, #8]
    a9f0:	11000401 	add	w1, w0, #0x1
    a9f4:	f8000000 	stur	x0, [x0]
    a9f8:	d4200500 	brk	#0x28
    a9fc:	d4200500 	brk	#0x28
    aa00:	528000e1 	mov	w1, #0x7                   	// #7
    aa04:	72a00001 	movk	w1, #0x0, lsl #16
    aa08:	52800062 	mov	w2, #0x3                   	// #3
    aa0c:	72a00002 	movk	w2, #0x0, lsl #16
    aa10:	d42001c0 	brk	#0xe
    aa14:	d4200500 	brk	#0x28
    aa18:	d4200500 	brk	#0x28
    aa1c:	52800003 	mov	w3, #0x0                   	// #0
    aa20:	72a00003 	movk	w3, #0x0, lsl #16
    aa24:	d4200500 	brk	#0x28
    aa28:	528000e4 	mov	w4, #0x7                   	// #7
    aa2c:	72a00004 	movk	w4, #0x0, lsl #16
    aa30:	d4200100 	brk	#0x8
    aa34:	52800064 	mov	w4, #0x3                   	// #3
    aa38:	72a00004 	movk	w4, #0x0, lsl #16
    aa3c:	d42001c0 	brk	#0xe
    aa40:	f81f83a0 	stur	x0, [x29, #-8]
    aa44:	b81f03a1 	stur	w1, [x29, #-16]
    aa48:	b81ec3a2 	stur	w2, [x29, #-20]
    aa4c:	b81bc3a3 	stur	w3, [x29, #-68]
    aa50:	b81b43a4 	stur	w4, [x29, #-76]
    aa54:	f85e03a0 	ldur	x0, [x29, #-32]
    aa58:	b85f03a1 	ldur	w1, [x29, #-16]
    aa5c:	f85c03a2 	ldur	x2, [x29, #-64]
    aa60:	b85bc3a3 	ldur	w3, [x29, #-68]
    aa64:	b85b83a4 	ldur	w4, [x29, #-72]
    aa68:	d2906d91 	mov	x17, #0x836c                	// #33644
    aa6c:	f2a031b1 	movk	x17, #0x18d, lsl #16
    aa70:	f2c00ab1 	movk	x17, #0x55, lsl #32
    aa74:	f2e00011 	movk	x17, #0x0, lsl #48
    aa78:	d63f0220 	blr	x17
    aa7c:	d4200500 	brk	#0x28
    aa80:	52800000 	mov	w0, #0x0                   	// #0
    aa84:	72a00000 	movk	w0, #0x0, lsl #16
    aa88:	52800061 	mov	w1, #0x3                   	// #3
    aa8c:	72a00001 	movk	w1, #0x0, lsl #16
    aa90:	d42001c0 	brk	#0xe
    aa94:	d4200a00 	brk	#0x50
    aa98:	910143ff 	add	sp, sp, #0x50
    aa9c:	a8c17bfd 	ldp	x29, x30, [sp], #16
    aaa0:	d65f03c0 	ret
    aaa4:	d503201f 	nop
    aaa8:	d503201f 	nop
    aaac:	d503201f 	nop
    aab0:	a9bf7bfd 	stp	x29, x30, [sp, #-16]!
    aab4:	910003fd 	mov	x29, sp
    aab8:	d10183ff 	sub	sp, sp, #0x60
    aabc:	52800003 	mov	w3, #0x0                   	// #0
    aac0:	72a00003 	movk	w3, #0x0, lsl #16
    aac4:	6b01007f 	cmp	w3, w1
    aac8:	5400018a 	b.ge	0xaaf8  // b.tcont
    aacc:	d4200500 	brk	#0x28
    aad0:	d42000e0 	brk	#0x7
    aad4:	b85ec3a4 	ldur	w4, [x29, #-20]
    aad8:	2a0403e1 	mov	w1, w4
    aadc:	52800003 	mov	w3, #0x0                   	// #0
    aae0:	72a00003 	movk	w3, #0x0, lsl #16
    aae4:	6b04007f 	cmp	w3, w4
    aae8:	5400006a 	b.ge	0xaaf4  // b.tcont
    aaec:	52800004 	mov	w4, #0x0                   	// #0
    aaf0:	72a00004 	movk	w4, #0x0, lsl #16
    aaf4:	2a0403e1 	mov	w1, w4
    aaf8:	14000005 	b	0xab0c
    aafc:	d4200500 	brk	#0x28
    ab00:	6b03003f 	cmp	w1, w3
    ab04:	5400004a 	b.ge	0xab0c  // b.tcont
    ab08:	d4200500 	brk	#0x28
    ab0c:	2a0403e1 	mov	w1, w4
    ab10:	d4200500 	brk	#0x28
    ab14:	d4200500 	brk	#0x28
    ab18:	6b04007f 	cmp	w3, w4
    ab1c:	54000141 	b.ne	0xab44  // b.any
    ab20:	d4200500 	brk	#0x28
    ab24:	f81f83a0 	stur	x0, [x29, #-8]
    ab28:	b81f43a1 	stur	w1, [x29, #-12]
    ab2c:	bc1f03a2 	stur	s2, [x29, #-16]
    ab30:	b81e83a3 	stur	w3, [x29, #-24]
    ab34:	b81ec3a4 	stur	w4, [x29, #-20]
    ab38:	f85f83a0 	ldur	x0, [x29, #-8]
    ab3c:	b85ec3a1 	ldur	w1, [x29, #-20]
    ab40:	94000038 	bl	0xac20
    ab44:	14000004 	b	0xab54
    ab48:	f85f83a0 	ldur	x0, [x29, #-8]
    ab4c:	f8408001 	ldur	x1, [x0, #8]
    ab50:	11000401 	add	w1, w0, #0x1
    ab54:	f8004000 	stur	x0, [x0, #4]
    ab58:	d4200500 	brk	#0x28
    ab5c:	d4200500 	brk	#0x28
    ab60:	528000e2 	mov	w2, #0x7                   	// #7
    ab64:	72a00002 	movk	w2, #0x0, lsl #16
    ab68:	d42000e0 	brk	#0x7
    ab6c:	52800062 	mov	w2, #0x3                   	// #3
    ab70:	72a00002 	movk	w2, #0x0, lsl #16
    ab74:	d42001c0 	brk	#0xe
    ab78:	d4200500 	brk	#0x28
    ab7c:	d4200500 	brk	#0x28
    ab80:	52800063 	mov	w3, #0x3                   	// #3
    ab84:	72a00003 	movk	w3, #0x0, lsl #16
    ab88:	d42001c0 	brk	#0xe
    ab8c:	d4200500 	brk	#0x28
    ab90:	d4200500 	brk	#0x28
    ab94:	d4200100 	brk	#0x8
    ab98:	528000e4 	mov	w4, #0x7                   	// #7
    ab9c:	72a00004 	movk	w4, #0x0, lsl #16
    aba0:	d4200100 	brk	#0x8
    aba4:	52800064 	mov	w4, #0x3                   	// #3
    aba8:	72a00004 	movk	w4, #0x0, lsl #16
    abac:	d42001c0 	brk	#0xe
    abb0:	f81f83a0 	stur	x0, [x29, #-8]
    abb4:	b81ec3a1 	stur	w1, [x29, #-20]
    abb8:	b81e83a2 	stur	w2, [x29, #-24]
    abbc:	b81c43a3 	stur	w3, [x29, #-60]
    abc0:	b81a43a4 	stur	w4, [x29, #-92]
    abc4:	f85e03a0 	ldur	x0, [x29, #-32]
    abc8:	b85ec3a1 	ldur	w1, [x29, #-20]
    abcc:	f85d03a2 	ldur	x2, [x29, #-48]
    abd0:	b85e83a3 	ldur	w3, [x29, #-24]
    abd4:	b85a83a4 	ldur	w4, [x29, #-88]
    abd8:	d2906d91 	mov	x17, #0x836c                	// #33644
    abdc:	f2a031b1 	movk	x17, #0x18d, lsl #16
    abe0:	f2c00ab1 	movk	x17, #0x55, lsl #32
    abe4:	f2e00011 	movk	x17, #0x0, lsl #48
    abe8:	d63f0220 	blr	x17
    abec:	d4200500 	brk	#0x28
    abf0:	52800060 	mov	w0, #0x3                   	// #3
    abf4:	72a00000 	movk	w0, #0x0, lsl #16
    abf8:	d42001c0 	brk	#0xe
    abfc:	d4200a00 	brk	#0x50
    ac00:	910183ff 	add	sp, sp, #0x60
    ac04:	a8c17bfd 	ldp	x29, x30, [sp], #16
    ac08:	d65f03c0 	ret
    ac0c:	d503201f 	nop
    ac10:	a9bf7bfd 	stp	x29, x30, [sp, #-16]!
    ac14:	910003fd 	mov	x29, sp
    ac18:	d100c3ff 	sub	sp, sp, #0x30
    ac1c:	aa1f03e2 	mov	x2, xzr
    ac20:	f81f83a0 	stur	x0, [x29, #-8]
    ac24:	bc1f43a1 	stur	s1, [x29, #-12]
    ac28:	f81e03a2 	stur	x2, [x29, #-32]
    ac2c:	f85f83a0 	ldur	x0, [x29, #-8]
    ac30:	bc5f43a0 	ldur	s0, [x29, #-12]
    ac34:	f85e03a1 	ldur	x1, [x29, #-32]
    ac38:	9400004e 	bl	0xad70
    ac3c:	52800201 	mov	w1, #0x10                  	// #16
    ac40:	72a00001 	movk	w1, #0x0, lsl #16
    ac44:	6b00003f 	cmp	w1, w0
    ac48:	54000041 	b.ne	0xac50  // b.any
    ac4c:	110003e2 	mov	w2, wsp
    ac50:	14000001 	b	0xac54
    ac54:	110007e2 	add	w2, wsp, #0x1
    ac58:	9100c3ff 	add	sp, sp, #0x30
    ac5c:	a8c17bfd 	ldp	x29, x30, [sp], #16
    ac60:	d65f03c0 	ret
    ac64:	d503201f 	nop
    ac68:	d503201f 	nop
    ac6c:	d503201f 	nop
    ac70:	a9bf7bfd 	stp	x29, x30, [sp, #-16]!
    ac74:	910003fd 	mov	x29, sp
    ac78:	d10183ff 	sub	sp, sp, #0x60
    ac7c:	aa1f03e2 	mov	x2, xzr
    ac80:	f81f83a0 	stur	x0, [x29, #-8]
    ac84:	bc1f43a1 	stur	s1, [x29, #-12]
    ac88:	f81e83a2 	stur	x2, [x29, #-24]
    ac8c:	f85f83a0 	ldur	x0, [x29, #-8]
    ac90:	bc5f43a0 	ldur	s0, [x29, #-12]
    ac94:	f85e83a1 	ldur	x1, [x29, #-24]
    ac98:	94000036 	bl	0xad70
    ac9c:	52800001 	mov	w1, #0x0                   	// #0
    aca0:	72a00001 	movk	w1, #0x0, lsl #16
    aca4:	6b00003f 	cmp	w1, w0
    aca8:	5400008a 	b.ge	0xacb8  // b.tcont
    acac:	110003e2 	mov	w2, wsp
    acb0:	910183ff 	add	sp, sp, #0x60
    acb4:	a8c17bfd 	ldp	x29, x30, [sp], #16
    acb8:	d65f03c0 	ret
    acbc:	f85f83a3 	ldur	x3, [x29, #-8]
    acc0:	f8408064 	ldur	x4, [x3, #8]
    acc4:	51000464 	sub	w4, w3, #0x1
    acc8:	f8000063 	stur	x3, [x3]
    accc:	d4200500 	brk	#0x28
    acd0:	d4200500 	brk	#0x28
    acd4:	52800061 	mov	w1, #0x3                   	// #3
    acd8:	72a00001 	movk	w1, #0x0, lsl #16
    acdc:	d42001c0 	brk	#0xe
    ace0:	d4200500 	brk	#0x28
    ace4:	d4200500 	brk	#0x28
    ace8:	528000e5 	mov	w5, #0x7                   	// #7
    acec:	72a00005 	movk	w5, #0x0, lsl #16
    acf0:	d42000e0 	brk	#0x7
    acf4:	52800065 	mov	w5, #0x3                   	// #3
    acf8:	72a00005 	movk	w5, #0x0, lsl #16
    acfc:	d42001c0 	brk	#0xe
    ad00:	d4200500 	brk	#0x28
    ad04:	d4200500 	brk	#0x28
    ad08:	d4200100 	brk	#0x8
    ad0c:	52800066 	mov	w6, #0x3                   	// #3
    ad10:	72a00006 	movk	w6, #0x0, lsl #16
    ad14:	d42001c0 	brk	#0xe
    ad18:	b81f03a0 	stur	w0, [x29, #-16]
    ad1c:	b81e03a1 	stur	w1, [x29, #-32]
    ad20:	381df3a2 	sturb	w2, [x29, #-33]
    ad24:	f81f83a3 	stur	x3, [x29, #-8]
    ad28:	b81e43a4 	stur	w4, [x29, #-28]
    ad2c:	b81b43a5 	stur	w5, [x29, #-76]
    ad30:	b81a03a6 	stur	w6, [x29, #-96]
    ad34:	f85d03a0 	ldur	x0, [x29, #-48]
    ad38:	b85e43a1 	ldur	w1, [x29, #-28]
    ad3c:	f85c03a2 	ldur	x2, [x29, #-64]
    ad40:	b85e03a3 	ldur	w3, [x29, #-32]
    ad44:	b85a43a4 	ldur	w4, [x29, #-92]
    ad48:	d2906d91 	mov	x17, #0x836c                	// #33644
    ad4c:	f2a031b1 	movk	x17, #0x18d, lsl #16
    ad50:	f2c00ab1 	movk	x17, #0x55, lsl #32
    ad54:	f2e00011 	movk	x17, #0x0, lsl #48
    ad58:	d63f0220 	blr	x17
    ad5c:	110007e0 	add	w0, wsp, #0x1
    ad60:	910183ff 	add	sp, sp, #0x60
    ad64:	a8c17bfd 	ldp	x29, x30, [sp], #16
    ad68:	d65f03c0 	ret
    ad6c:	d503201f 	nop
    ad70:	a9bf7bfd 	stp	x29, x30, [sp, #-16]!
    ad74:	910003fd 	mov	x29, sp
    ad78:	d10103ff 	sub	sp, sp, #0x40
    ad7c:	7100005f 	cmp	w2, #0x0
    ad80:	54000061 	b.ne	0xad8c  // b.any
    ad84:	52800003 	mov	w3, #0x0                   	// #0
    ad88:	72a00003 	movk	w3, #0x0, lsl #16
    ad8c:	14000012 	b	0xadd4
    ad90:	f81f83a0 	stur	x0, [x29, #-8]
    ad94:	bc1f43a1 	stur	s1, [x29, #-12]
    ad98:	f81e83a2 	stur	x2, [x29, #-24]
    ad9c:	b81e43a3 	stur	w3, [x29, #-28]
    ada0:	d13fa3e0 	sub	x0, sp, #0xfe8
    ada4:	d2876101 	mov	x1, #0x3b08                	// #15112
    ada8:	f2a000c1 	movk	x1, #0x6, lsl #16
    adac:	f2c00aa1 	movk	x1, #0x55, lsl #32
    adb0:	f2e00001 	movk	x1, #0x0, lsl #48
    adb4:	d2851102 	mov	x2, #0x2888                	// #10376
    adb8:	f2a000c2 	movk	x2, #0x6, lsl #16
    adbc:	f2c00aa2 	movk	x2, #0x55, lsl #32
    adc0:	f2e00002 	movk	x2, #0x0, lsl #48
    adc4:	d293ee91 	mov	x17, #0x9f74                	// #40820
    adc8:	f2a031b1 	movk	x17, #0x18d, lsl #16
    adcc:	f2c00ab1 	movk	x17, #0x55, lsl #32
    add0:	f2e00011 	movk	x17, #0x0, lsl #48
    add4:	d63f0220 	blr	x17
    add8:	52800000 	mov	w0, #0x0                   	// #0
    addc:	72a00000 	movk	w0, #0x0, lsl #16
    ade0:	b85e43a1 	ldur	w1, [x29, #-28]
    ade4:	6b01001f 	cmp	w0, w1
    ade8:	5400016a 	b.ge	0xae14  // b.tcont
    adec:	d4200500 	brk	#0x28
    adf0:	d42000e0 	brk	#0x7
    adf4:	b85e03a2 	ldur	w2, [x29, #-32]
    adf8:	2a0203e1 	mov	w1, w2
    adfc:	52800000 	mov	w0, #0x0                   	// #0
    ae00:	72a00000 	movk	w0, #0x0, lsl #16
    ae04:	6b02001f 	cmp	w0, w2
    ae08:	5400006a 	b.ge	0xae14  // b.tcont
    ae0c:	52800002 	mov	w2, #0x0                   	// #0
    ae10:	72a00002 	movk	w2, #0x0, lsl #16
    ae14:	2a0203e1 	mov	w1, w2
    ae18:	2a0103e2 	mov	w2, w1
    ae1c:	d4200500 	brk	#0x28
    ae20:	6b02001f 	cmp	w0, w2
    ae24:	5400020a 	b.ge	0xae64  // b.tcont
    ae28:	b81d83a2 	stur	w2, [x29, #-40]
    ae2c:	f85f83a3 	ldur	x3, [x29, #-8]
    ae30:	11000462 	add	w2, w3, #0x1
    ae34:	d4200500 	brk	#0x28
    ae38:	52800064 	mov	w4, #0x3                   	// #3
    ae3c:	72a00004 	movk	w4, #0x0, lsl #16
    ae40:	d42001c0 	brk	#0xe
    ae44:	d4200980 	brk	#0x4c
    ae48:	bc5cc3a0 	ldur	s0, [x29, #-52]
    ae4c:	bc5f43a1 	ldur	s1, [x29, #-12]
    ae50:	6b00003f 	cmp	w1, w0
    ae54:	54000061 	b.ne	0xae60  // b.any
    ae58:	910103ff 	add	sp, sp, #0x40
    ae5c:	a8c17bfd 	ldp	x29, x30, [sp], #16
    ae60:	d65f03c0 	ret
    ae64:	17ffffee 	b	0xae1c
    ae68:	52800202 	mov	w2, #0x10                  	// #16
    ae6c:	72a00002 	movk	w2, #0x0, lsl #16
    ae70:	910103ff 	add	sp, sp, #0x40
    ae74:	a8c17bfd 	ldp	x29, x30, [sp], #16
    ae78:	d65f03c0 	ret
    ae7c:	d503201f 	nop
    ae80:	a9bf7bfd 	stp	x29, x30, [sp, #-16]!
    ae84:	910003fd 	mov	x29, sp
    ae88:	d10103ff 	sub	sp, sp, #0x40
    ae8c:	d4200500 	brk	#0x28
    ae90:	7100005f 	cmp	w2, #0x0
    ae94:	54000240 	b.eq	0xaedc  // b.none
    ae98:	f81f83a0 	stur	x0, [x29, #-8]
    ae9c:	bc1f43a1 	stur	s1, [x29, #-12]
    aea0:	f81e83a2 	stur	x2, [x29, #-24]
    aea4:	d13fa3e0 	sub	x0, sp, #0xfe8
    aea8:	d2876101 	mov	x1, #0x3b08                	// #15112
    aeac:	f2a000c1 	movk	x1, #0x6, lsl #16
    aeb0:	f2c00aa1 	movk	x1, #0x55, lsl #32
    aeb4:	f2e00001 	movk	x1, #0x0, lsl #48
    aeb8:	d2851102 	mov	x2, #0x2888                	// #10376
    aebc:	f2a000c2 	movk	x2, #0x6, lsl #16
    aec0:	f2c00aa2 	movk	x2, #0x55, lsl #32
    aec4:	f2e00002 	movk	x2, #0x0, lsl #48
    aec8:	d293ee91 	mov	x17, #0x9f74                	// #40820
    aecc:	f2a031b1 	movk	x17, #0x18d, lsl #16
    aed0:	f2c00ab1 	movk	x17, #0x55, lsl #32
    aed4:	f2e00011 	movk	x17, #0x0, lsl #48
    aed8:	d63f0220 	blr	x17
    aedc:	14000003 	b	0xaee8
    aee0:	528000e0 	mov	w0, #0x7                   	// #7
    aee4:	72a00000 	movk	w0, #0x0, lsl #16
    aee8:	d4200100 	brk	#0x8
    aeec:	b85e03a1 	ldur	w1, [x29, #-32]
    aef0:	b85e43a2 	ldur	w2, [x29, #-28]
    aef4:	6b01005f 	cmp	w2, w1
    aef8:	540000ab 	b.lt	0xaf0c  // b.tstop
    aefc:	528000e3 	mov	w3, #0x7                   	// #7
    af00:	72a00003 	movk	w3, #0x0, lsl #16
    af04:	d4200100 	brk	#0x8
    af08:	2a0003e1 	mov	w1, w0
    af0c:	14000006 	b	0xaf24
    af10:	52800003 	mov	w3, #0x0                   	// #0
    af14:	72a00003 	movk	w3, #0x0, lsl #16
    af18:	6b01007f 	cmp	w3, w1
    af1c:	5400004a 	b.ge	0xaf24  // b.tcont
    af20:	d42000e0 	brk	#0x7
    af24:	2a0003e1 	mov	w1, w0
    af28:	52800003 	mov	w3, #0x0                   	// #0
    af2c:	72a00003 	movk	w3, #0x0, lsl #16
    af30:	6b01007f 	cmp	w3, w1
    af34:	540001eb 	b.lt	0xaf70  // b.tstop
    af38:	d4200500 	brk	#0x28
    af3c:	52800063 	mov	w3, #0x3                   	// #3
    af40:	72a00003 	movk	w3, #0x0, lsl #16
    af44:	d42001c0 	brk	#0xe
    af48:	d4200980 	brk	#0x4c
    af4c:	bc5cc3a0 	ldur	s0, [x29, #-52]
    af50:	bc5f43a1 	ldur	s1, [x29, #-12]
    af54:	6b00003f 	cmp	w1, w0
    af58:	54000061 	b.ne	0xaf64  // b.any
    af5c:	910103ff 	add	sp, sp, #0x40
    af60:	a8c17bfd 	ldp	x29, x30, [sp], #16
    af64:	d65f03c0 	ret
    af68:	f85f83a4 	ldur	x4, [x29, #-8]
    af6c:	51000481 	sub	w1, w4, #0x1
    af70:	17ffffed 	b	0xaf24
    af74:	52800200 	mov	w0, #0x10                  	// #16
    af78:	72a00000 	movk	w0, #0x0, lsl #16
    af7c:	910103ff 	add	sp, sp, #0x40
    af80:	a8c17bfd 	ldp	x29, x30, [sp], #16
    af84:	d65f03c0 	ret
    af88:	d503201f 	nop
    af8c:	d503201f 	nop
    af90:	a9bf7bfd 	stp	x29, x30, [sp, #-16]!
    af94:	910003fd 	mov	x29, sp
    af98:	d10143ff 	sub	sp, sp, #0x50
    af9c:	f81f83a0 	stur	x0, [x29, #-8]
    afa0:	d2858500 	mov	x0, #0x2c28                	// #11304
    afa4:	f2a000c0 	movk	x0, #0x6, lsl #16
    afa8:	f2c00aa0 	movk	x0, #0x55, lsl #32
    afac:	f2e00000 	movk	x0, #0x0, lsl #48
    afb0:	d287fa11 	mov	x17, #0x3fd0                	// #16336
    afb4:	f2a031b1 	movk	x17, #0x18d, lsl #16
    afb8:	f2c00ab1 	movk	x17, #0x55, lsl #32
    afbc:	f2e00011 	movk	x17, #0x0, lsl #48
    afc0:	d63f0220 	blr	x17
    afc4:	f81f03a0 	stur	x0, [x29, #-16]
    afc8:	f85f03a0 	ldur	x0, [x29, #-16]
    afcc:	97fffac1 	bl	0x9ad0
    afd0:	d4200500 	brk	#0x28
    afd4:	f85f03a1 	ldur	x1, [x29, #-16]
    afd8:	f85f83a2 	ldur	x2, [x29, #-8]
    afdc:	f8000041 	stur	x1, [x2]
    afe0:	d4200500 	brk	#0x28
    afe4:	d4200500 	brk	#0x28
    afe8:	52800063 	mov	w3, #0x3                   	// #3
    afec:	72a00003 	movk	w3, #0x0, lsl #16
    aff0:	d42001c0 	brk	#0xe
    aff4:	f81f03a1 	stur	x1, [x29, #-16]
    aff8:	f81f83a2 	stur	x2, [x29, #-8]
    affc:	b81d43a3 	stur	w3, [x29, #-44]
    b000:	b85ec3a0 	ldur	w0, [x29, #-20]
    b004:	d2905f91 	mov	x17, #0x82fc                	// #33532
    b008:	f2a031b1 	movk	x17, #0x18d, lsl #16
    b00c:	f2c00ab1 	movk	x17, #0x55, lsl #32
    b010:	f2e00011 	movk	x17, #0x0, lsl #48
    b014:	d63f0220 	blr	x17
    b018:	f85f03a1 	ldur	x1, [x29, #-16]
    b01c:	f8000021 	stur	x1, [x1]
    b020:	d4200500 	brk	#0x28
    b024:	f8410022 	ldur	x2, [x1, #16]
    b028:	52800003 	mov	w3, #0x0                   	// #0
    b02c:	72a00003 	movk	w3, #0x0, lsl #16
    b030:	d4200500 	brk	#0x28
    b034:	52800004 	mov	w4, #0x0                   	// #0
    b038:	72a00004 	movk	w4, #0x0, lsl #16
    b03c:	d4200500 	brk	#0x28
    b040:	52800065 	mov	w5, #0x3                   	// #3
    b044:	72a00005 	movk	w5, #0x0, lsl #16
    b048:	d42001c0 	brk	#0xe
    b04c:	f81d83a0 	stur	x0, [x29, #-40]
    b050:	f81f03a1 	stur	x1, [x29, #-16]
    b054:	f81c03a2 	stur	x2, [x29, #-64]
    b058:	b81ec3a3 	stur	w3, [x29, #-20]
    b05c:	b81d43a4 	stur	w4, [x29, #-44]
    b060:	b81b03a5 	stur	w5, [x29, #-80]
    b064:	f85c03a0 	ldur	x0, [x29, #-64]
    b068:	b85ec3a1 	ldur	w1, [x29, #-20]
    b06c:	f85b83a2 	ldur	x2, [x29, #-72]
    b070:	b85d43a3 	ldur	w3, [x29, #-44]
    b074:	b85b43a4 	ldur	w4, [x29, #-76]
    b078:	d2906d91 	mov	x17, #0x836c                	// #33644
    b07c:	f2a031b1 	movk	x17, #0x18d, lsl #16
    b080:	f2c00ab1 	movk	x17, #0x55, lsl #32
    b084:	f2e00011 	movk	x17, #0x0, lsl #48
    b088:	d63f0220 	blr	x17
    b08c:	910143ff 	add	sp, sp, #0x50
    b090:	a8c17bfd 	ldp	x29, x30, [sp], #16
    b094:	d65f03c0 	ret
    b098:	d503201f 	nop
    b09c:	d503201f 	nop
    b0a0:	a9bf7bfd 	stp	x29, x30, [sp, #-16]!
    b0a4:	910003fd 	mov	x29, sp
    b0a8:	d10043ff 	sub	sp, sp, #0x10
    b0ac:	f81f83a0 	stur	x0, [x29, #-8]
    b0b0:	d289b100 	mov	x0, #0x4d88                	// #19848
    b0b4:	f2a000c0 	movk	x0, #0x6, lsl #16
    b0b8:	f2c00aa0 	movk	x0, #0x55, lsl #32
    b0bc:	f2e00000 	movk	x0, #0x0, lsl #48
    b0c0:	d287fa11 	mov	x17, #0x3fd0                	// #16336
    b0c4:	f2a031b1 	movk	x17, #0x18d, lsl #16
    b0c8:	f2c00ab1 	movk	x17, #0x55, lsl #32
    b0cc:	f2e00011 	movk	x17, #0x0, lsl #48
    b0d0:	d63f0220 	blr	x17
    b0d4:	f81f03a0 	stur	x0, [x29, #-16]
    b0d8:	f85f03a0 	ldur	x0, [x29, #-16]
    b0dc:	f85f83a1 	ldur	x1, [x29, #-8]
    b0e0:	940000d4 	bl	0xb430
    b0e4:	910043ff 	add	sp, sp, #0x10
    b0e8:	a8c17bfd 	ldp	x29, x30, [sp], #16
    b0ec:	d65f03c0 	ret
    b0f0:	a9bf7bfd 	stp	x29, x30, [sp, #-16]!
    b0f4:	910003fd 	mov	x29, sp
    b0f8:	d10043ff 	sub	sp, sp, #0x10
    b0fc:	f81f83a0 	stur	x0, [x29, #-8]
    b100:	d289b900 	mov	x0, #0x4dc8                	// #19912
    b104:	f2a000c0 	movk	x0, #0x6, lsl #16
    b108:	f2c00aa0 	movk	x0, #0x55, lsl #32
    b10c:	f2e00000 	movk	x0, #0x0, lsl #48
    b110:	d287fa11 	mov	x17, #0x3fd0                	// #16336
    b114:	f2a031b1 	movk	x17, #0x18d, lsl #16
    b118:	f2c00ab1 	movk	x17, #0x55, lsl #32
    b11c:	f2e00011 	movk	x17, #0x0, lsl #48
    b120:	d63f0220 	blr	x17
    b124:	f81f03a0 	stur	x0, [x29, #-16]
    b128:	f85f03a0 	ldur	x0, [x29, #-16]
    b12c:	f85f83a1 	ldur	x1, [x29, #-8]
    b130:	94000038 	bl	0xb210
    b134:	910043ff 	add	sp, sp, #0x10
    b138:	a8c17bfd 	ldp	x29, x30, [sp], #16
    b13c:	d65f03c0 	ret
    b140:	a9bf7bfd 	stp	x29, x30, [sp, #-16]!
    b144:	910003fd 	mov	x29, sp
    b148:	d10183ff 	sub	sp, sp, #0x60
    b14c:	f81f83a0 	stur	x0, [x29, #-8]
    b150:	f81f03a1 	stur	x1, [x29, #-16]
    b154:	d285e900 	mov	x0, #0x2f48                	// #12104
    b158:	f2a000c0 	movk	x0, #0x6, lsl #16
    b15c:	f2c00aa0 	movk	x0, #0x55, lsl #32
    b160:	f2e00000 	movk	x0, #0x0, lsl #48
    b164:	d287fa11 	mov	x17, #0x3fd0                	// #16336
    b168:	f2a031b1 	movk	x17, #0x18d, lsl #16
    b16c:	f2c00ab1 	movk	x17, #0x55, lsl #32
    b170:	f2e00011 	movk	x17, #0x0, lsl #48
    b174:	d63f0220 	blr	x17
    b178:	f81e83a0 	stur	x0, [x29, #-24]
    b17c:	f85e83a0 	ldur	x0, [x29, #-24]
    b180:	94000054 	bl	0xb2d0
    b184:	d4200500 	brk	#0x28
    b188:	52800000 	mov	w0, #0x0                   	// #0
    b18c:	72a00000 	movk	w0, #0x0, lsl #16
    b190:	b85e43a1 	ldur	w1, [x29, #-28]
    b194:	6b00003f 	cmp	w1, w0
    b198:	5400012a 	b.ge	0xb1bc  // b.tcont
    b19c:	d4200500 	brk	#0x28
    b1a0:	528000e0 	mov	w0, #0x7                   	// #7
    b1a4:	72a00000 	movk	w0, #0x0, lsl #16
    b1a8:	d4200100 	brk	#0x8
    b1ac:	b81e03a0 	stur	w0, [x29, #-32]
    b1b0:	b81e43a1 	stur	w1, [x29, #-28]
    b1b4:	f85e83a0 	ldur	x0, [x29, #-24]
    b1b8:	b85e43a1 	ldur	w1, [x29, #-28]
    b1bc:	940000f5 	bl	0xb590
    b1c0:	52800000 	mov	w0, #0x0                   	// #0
    b1c4:	72a00000 	movk	w0, #0x0, lsl #16
    b1c8:	d4200500 	brk	#0x28
    b1cc:	b85e03a1 	ldur	w1, [x29, #-32]
    b1d0:	6b00003f 	cmp	w1, w0
    b1d4:	5400048a 	b.ge	0xb264  // b.tcont
    b1d8:	b81dc3a0 	stur	w0, [x29, #-36]
    b1dc:	f85f83a2 	ldur	x2, [x29, #-8]
    b1e0:	11000440 	add	w0, w2, #0x1
    b1e4:	f85e83a3 	ldur	x3, [x29, #-24]
    b1e8:	7100007f 	cmp	w3, #0x0
    b1ec:	54000501 	b.ne	0xb28c  // b.any
    b1f0:	b81e43a0 	stur	w0, [x29, #-28]
    b1f4:	b81e03a1 	stur	w1, [x29, #-32]
    b1f8:	f81f83a2 	stur	x2, [x29, #-8]
    b1fc:	f81e83a3 	stur	x3, [x29, #-24]
    b200:	d298b091 	mov	x17, #0xc584                	// #50564
    b204:	f2a031b1 	movk	x17, #0x18d, lsl #16
    b208:	f2c00ab1 	movk	x17, #0x55, lsl #32
    b20c:	f2e00011 	movk	x17, #0x0, lsl #48
    b210:	d63f0220 	blr	x17
    b214:	f85e83a0 	ldur	x0, [x29, #-24]
    b218:	f8410001 	ldur	x1, [x0, #16]
    b21c:	d4200500 	brk	#0x28
    b220:	f85f03a2 	ldur	x2, [x29, #-16]
    b224:	7100005f 	cmp	w2, #0x0
    b228:	54000481 	b.ne	0xb2b8  // b.any
    b22c:	f81e83a0 	stur	x0, [x29, #-24]
    b230:	f81d03a1 	stur	x1, [x29, #-48]
    b234:	f81f03a2 	stur	x2, [x29, #-16]
    b238:	d298b091 	mov	x17, #0xc584                	// #50564
    b23c:	f2a031b1 	movk	x17, #0x18d, lsl #16
    b240:	f2c00ab1 	movk	x17, #0x55, lsl #32
    b244:	f2e00011 	movk	x17, #0x0, lsl #48
    b248:	d63f0220 	blr	x17
    b24c:	52800060 	mov	w0, #0x3                   	// #3
    b250:	72a00000 	movk	w0, #0x0, lsl #16
    b254:	d42001c0 	brk	#0xe
    b258:	d4200980 	brk	#0x4c
    b25c:	d4200400 	brk	#0x20
    b260:	d4200a20 	brk	#0x51
    b264:	17ffffd9 	b	0xb1c8
    b268:	110007e1 	add	w1, wsp, #0x1
    b26c:	d4200ae0 	brk	#0x57
    b270:	b81b83a0 	stur	w0, [x29, #-72]
    b274:	381af3a1 	sturb	w1, [x29, #-81]
    b278:	f85e83a0 	ldur	x0, [x29, #-24]
    b27c:	f85a03a1 	ldur	x1, [x29, #-96]
    b280:	94000038 	bl	0xb360
    b284:	910183ff 	add	sp, sp, #0x60
    b288:	a8c17bfd 	ldp	x29, x30, [sp], #16
    b28c:	d65f03c0 	ret
    b290:	a9bf7bfd 	stp	x29, x30, [sp, #-16]!
    b294:	910003fd 	mov	x29, sp
    b298:	d10103ff 	sub	sp, sp, #0x40
    b29c:	f81f83a0 	stur	x0, [x29, #-8]
    b2a0:	f81f03a1 	stur	x1, [x29, #-16]
    b2a4:	d2858500 	mov	x0, #0x2c28                	// #11304
    b2a8:	f2a000c0 	movk	x0, #0x6, lsl #16
    b2ac:	f2c00aa0 	movk	x0, #0x55, lsl #32
    b2b0:	f2e00000 	movk	x0, #0x0, lsl #48
    b2b4:	d287fa11 	mov	x17, #0x3fd0                	// #16336
    b2b8:	f2a031b1 	movk	x17, #0x18d, lsl #16
    b2bc:	f2c00ab1 	movk	x17, #0x55, lsl #32
    b2c0:	f2e00011 	movk	x17, #0x0, lsl #48
    b2c4:	d63f0220 	blr	x17
    b2c8:	f81e83a0 	stur	x0, [x29, #-24]
    b2cc:	f85e83a0 	ldur	x0, [x29, #-24]
    b2d0:	97fffa00 	bl	0x9ad0
    b2d4:	52800000 	mov	w0, #0x0                   	// #0
    b2d8:	72a00000 	movk	w0, #0x0, lsl #16
    b2dc:	d4200500 	brk	#0x28
    b2e0:	b85e03a1 	ldur	w1, [x29, #-32]
    b2e4:	6b00003f 	cmp	w1, w0
    b2e8:	540004ea 	b.ge	0xb384  // b.tcont
    b2ec:	b81dc3a0 	stur	w0, [x29, #-36]
    b2f0:	f85f83a2 	ldur	x2, [x29, #-8]
    b2f4:	11000440 	add	w0, w2, #0x1
    b2f8:	d4200500 	brk	#0x28
    b2fc:	52800063 	mov	w3, #0x3                   	// #3
    b300:	72a00003 	movk	w3, #0x0, lsl #16
    b304:	d42001c0 	brk	#0xe
    b308:	d4200980 	brk	#0x4c
    b30c:	f85f03a4 	ldur	x4, [x29, #-16]
    b310:	7100009f 	cmp	w4, #0x0
    b314:	54000581 	b.ne	0xb3c4  // b.any
    b318:	b81e43a0 	stur	w0, [x29, #-28]
    b31c:	b81e03a1 	stur	w1, [x29, #-32]
    b320:	f81f83a2 	stur	x2, [x29, #-8]
    b324:	b81c83a3 	stur	w3, [x29, #-56]
    b328:	f81f03a4 	stur	x4, [x29, #-16]
    b32c:	d298b091 	mov	x17, #0xc584                	// #50564
    b330:	f2a031b1 	movk	x17, #0x18d, lsl #16
    b334:	f2c00ab1 	movk	x17, #0x55, lsl #32
    b338:	f2e00011 	movk	x17, #0x0, lsl #48
    b33c:	d63f0220 	blr	x17
    b340:	d4200400 	brk	#0x20
    b344:	385c73a0 	ldurb	w0, [x29, #-57]
    b348:	7100001f 	cmp	w0, #0x0
    b34c:	540001a0 	b.eq	0xb380  // b.none
    b350:	f85e83a1 	ldur	x1, [x29, #-24]
    b354:	7100003f 	cmp	w1, #0x0
    b358:	54000401 	b.ne	0xb3d8  // b.any
    b35c:	381c73a0 	sturb	w0, [x29, #-57]
    b360:	f81e83a1 	stur	x1, [x29, #-24]
    b364:	d298b091 	mov	x17, #0xc584                	// #50564
    b368:	f2a031b1 	movk	x17, #0x18d, lsl #16
    b36c:	f2c00ab1 	movk	x17, #0x55, lsl #32
    b370:	f2e00011 	movk	x17, #0x0, lsl #48
    b374:	d63f0220 	blr	x17
    b378:	f85e83a0 	ldur	x0, [x29, #-24]
    b37c:	bc5cc3a0 	ldur	s0, [x29, #-52]
    b380:	97fffac0 	bl	0x9e80
    b384:	17ffffd6 	b	0xb2dc
    b388:	910103ff 	add	sp, sp, #0x40
    b38c:	a8c17bfd 	ldp	x29, x30, [sp], #16
    b390:	d65f03c0 	ret
    b394:	d503201f 	nop
    b398:	d503201f 	nop
    b39c:	d503201f 	nop
    b3a0:	a9bf7bfd 	stp	x29, x30, [sp, #-16]!
    b3a4:	910003fd 	mov	x29, sp
    b3a8:	d10103ff 	sub	sp, sp, #0x40
    b3ac:	d4200500 	brk	#0x28
    b3b0:	b85f03a2 	ldur	w2, [x29, #-16]
    b3b4:	6b02003f 	cmp	w1, w2
    b3b8:	5400016a 	b.ge	0xb3e4  // b.tcont
    b3bc:	528000e3 	mov	w3, #0x7                   	// #7
    b3c0:	72a00003 	movk	w3, #0x0, lsl #16
    b3c4:	d4200100 	brk	#0x8
    b3c8:	f81f83a0 	stur	x0, [x29, #-8]
    b3cc:	b81f43a1 	stur	w1, [x29, #-12]
    b3d0:	b81f03a2 	stur	w2, [x29, #-16]
    b3d4:	b81ec3a3 	stur	w3, [x29, #-20]
    b3d8:	f85f83a0 	ldur	x0, [x29, #-8]
    b3dc:	b85f03a1 	ldur	w1, [x29, #-16]
    b3e0:	94000010 	bl	0xb420
    b3e4:	14000020 	b	0xb464
    b3e8:	d4200500 	brk	#0x28
    b3ec:	b85f43a0 	ldur	w0, [x29, #-12]
    b3f0:	b85f03a1 	ldur	w1, [x29, #-16]
    b3f4:	6b00003f 	cmp	w1, w0
    b3f8:	5400036a 	b.ge	0xb464  // b.tcont
    b3fc:	d4200500 	brk	#0x28
    b400:	d4200500 	brk	#0x28
    b404:	52800062 	mov	w2, #0x3                   	// #3
    b408:	72a00002 	movk	w2, #0x0, lsl #16
    b40c:	d42001c0 	brk	#0xe
    b410:	d4200500 	brk	#0x28
    b414:	d4200500 	brk	#0x28
    b418:	d4200100 	brk	#0x8
    b41c:	52800063 	mov	w3, #0x3                   	// #3
    b420:	72a00003 	movk	w3, #0x0, lsl #16
    b424:	d42001c0 	brk	#0xe
    b428:	52800003 	mov	w3, #0x0                   	// #0
    b42c:	72a00003 	movk	w3, #0x0, lsl #16
    b430:	b81f43a0 	stur	w0, [x29, #-12]
    b434:	b81f03a1 	stur	w1, [x29, #-16]
    b438:	b81ec3a2 	stur	w2, [x29, #-20]
    b43c:	b81c83a3 	stur	w3, [x29, #-56]
    b440:	f85e03a0 	ldur	x0, [x29, #-32]
    b444:	b85f03a1 	ldur	w1, [x29, #-16]
    b448:	b85cc3a2 	ldur	w2, [x29, #-52]
    b44c:	b85c83a3 	ldur	w3, [x29, #-56]
    b450:	d290ff91 	mov	x17, #0x87fc                	// #34812
    b454:	f2a031b1 	movk	x17, #0x18d, lsl #16
    b458:	f2c00ab1 	movk	x17, #0x55, lsl #32
    b45c:	f2e00011 	movk	x17, #0x0, lsl #48
    b460:	d63f0220 	blr	x17
    b464:	d4200520 	brk	#0x29
    b468:	910103ff 	add	sp, sp, #0x40
    b46c:	a8c17bfd 	ldp	x29, x30, [sp], #16
    b470:	d65f03c0 	ret
    b474:	d503201f 	nop
    b478:	d503201f 	nop
    b47c:	d503201f 	nop
    b480:	a9bf7bfd 	stp	x29, x30, [sp, #-16]!
    b484:	910003fd 	mov	x29, sp
    b488:	d100c3ff 	sub	sp, sp, #0x30
    b48c:	d4200500 	brk	#0x28
    b490:	b85f03a2 	ldur	w2, [x29, #-16]
    b494:	6b01005f 	cmp	w2, w1
    b498:	540000ab 	b.lt	0xb4ac  // b.tstop
    b49c:	d4200500 	brk	#0x28
    b4a0:	d4200760 	brk	#0x3b
    b4a4:	9100c3ff 	add	sp, sp, #0x30
    b4a8:	a8c17bfd 	ldp	x29, x30, [sp], #16
    b4ac:	d65f03c0 	ret
    b4b0:	d4200500 	brk	#0x28
    b4b4:	52800062 	mov	w2, #0x3                   	// #3
    b4b8:	72a00002 	movk	w2, #0x0, lsl #16
    b4bc:	d42001c0 	brk	#0xe
    b4c0:	d4200980 	brk	#0x4c
    b4c4:	d4200760 	brk	#0x3b
    b4c8:	9100c3ff 	add	sp, sp, #0x30
    b4cc:	a8c17bfd 	ldp	x29, x30, [sp], #16
    b4d0:	d65f03c0 	ret
    b4d4:	d503201f 	nop
    b4d8:	d503201f 	nop
    b4dc:	d503201f 	nop
    b4e0:	a9bf7bfd 	stp	x29, x30, [sp, #-16]!
    b4e4:	910003fd 	mov	x29, sp
    b4e8:	d100c3ff 	sub	sp, sp, #0x30
    b4ec:	d4200500 	brk	#0x28
    b4f0:	b85e43a3 	ldur	w3, [x29, #-28]
    b4f4:	6b01007f 	cmp	w3, w1
    b4f8:	540000eb 	b.lt	0xb514  // b.tstop
    b4fc:	f81f83a0 	stur	x0, [x29, #-8]
    b500:	b81f43a1 	stur	w1, [x29, #-12]
    b504:	f81e83a2 	stur	x2, [x29, #-24]
    b508:	b81e43a3 	stur	w3, [x29, #-28]
    b50c:	f85f83a0 	ldur	x0, [x29, #-8]
    b510:	b85f43a1 	ldur	w1, [x29, #-12]
    b514:	940000c3 	bl	0xb820
    b518:	d4200500 	brk	#0x28
    b51c:	d13fa3e0 	sub	x0, sp, #0xfe8
    b520:	d2852901 	mov	x1, #0x2948                	// #10568
    b524:	f2a000c1 	movk	x1, #0x6, lsl #16
    b528:	f2c00aa1 	movk	x1, #0x55, lsl #32
    b52c:	f2e00001 	movk	x1, #0x0, lsl #48
    b530:	d294eb11 	mov	x17, #0xa758                	// #42840
    b534:	f2a031b1 	movk	x17, #0x18d, lsl #16
    b538:	f2c00ab1 	movk	x17, #0x55, lsl #32
    b53c:	f2e00011 	movk	x17, #0x0, lsl #48
    b540:	d63f0220 	blr	x17
    b544:	52800060 	mov	w0, #0x3                   	// #3
    b548:	72a00000 	movk	w0, #0x0, lsl #16
    b54c:	d42001c0 	brk	#0xe
    b550:	d4200a00 	brk	#0x50
    b554:	9100c3ff 	add	sp, sp, #0x30
    b558:	a8c17bfd 	ldp	x29, x30, [sp], #16
    b55c:	d65f03c0 	ret
    b560:	a9bf7bfd 	stp	x29, x30, [sp, #-16]!
    b564:	910003fd 	mov	x29, sp
    b568:	d10083ff 	sub	sp, sp, #0x20
    b56c:	f81f83a0 	stur	x0, [x29, #-8]
    b570:	f81f03a1 	stur	x1, [x29, #-16]
    b574:	d13fc3e0 	sub	x0, sp, #0xff0
    b578:	d2852901 	mov	x1, #0x2948                	// #10568
    b57c:	f2a000c1 	movk	x1, #0x6, lsl #16
    b580:	f2c00aa1 	movk	x1, #0x55, lsl #32
    b584:	f2e00001 	movk	x1, #0x0, lsl #48
    b588:	d294eb11 	mov	x17, #0xa758                	// #42840
    b58c:	f2a031b1 	movk	x17, #0x18d, lsl #16
    b590:	f2c00ab1 	movk	x17, #0x55, lsl #32
    b594:	f2e00011 	movk	x17, #0x0, lsl #48
    b598:	d63f0220 	blr	x17
    b59c:	f85f83a0 	ldur	x0, [x29, #-8]
    b5a0:	bc5e83a0 	ldur	s0, [x29, #-24]
    b5a4:	97fffa37 	bl	0x9e80
    b5a8:	910083ff 	add	sp, sp, #0x20
    b5ac:	a8c17bfd 	ldp	x29, x30, [sp], #16
    b5b0:	d65f03c0 	ret
    b5b4:	d503201f 	nop
    b5b8:	d503201f 	nop
    b5bc:	d503201f 	nop
    b5c0:	a9bf7bfd 	stp	x29, x30, [sp, #-16]!
    b5c4:	910003fd 	mov	x29, sp
    b5c8:	d10043ff 	sub	sp, sp, #0x10
    b5cc:	f81f83a0 	stur	x0, [x29, #-8]
    b5d0:	f85f83a0 	ldur	x0, [x29, #-8]
    b5d4:	97fffa0f 	bl	0x9e10
    b5d8:	910043ff 	add	sp, sp, #0x10
    b5dc:	a8c17bfd 	ldp	x29, x30, [sp], #16
    b5e0:	d65f03c0 	ret
    b5e4:	d503201f 	nop
    b5e8:	d503201f 	nop
    b5ec:	d503201f 	nop
    b5f0:	a9bf7bfd 	stp	x29, x30, [sp, #-16]!
    b5f4:	910003fd 	mov	x29, sp
    b5f8:	d10043ff 	sub	sp, sp, #0x10
    b5fc:	f81f83a0 	stur	x0, [x29, #-8]
    b600:	f85f83a0 	ldur	x0, [x29, #-8]
    b604:	97fffa6b 	bl	0x9fb0
    b608:	910043ff 	add	sp, sp, #0x10
    b60c:	a8c17bfd 	ldp	x29, x30, [sp], #16
    b610:	d65f03c0 	ret
    b614:	d503201f 	nop
    b618:	d503201f 	nop
    b61c:	d503201f 	nop
    b620:	a9bf7bfd 	stp	x29, x30, [sp, #-16]!
    b624:	910003fd 	mov	x29, sp
    b628:	d10083ff 	sub	sp, sp, #0x20
    b62c:	f81f83a0 	stur	x0, [x29, #-8]
    b630:	f81f03a1 	stur	x1, [x29, #-16]
    b634:	d13fc3e0 	sub	x0, sp, #0xff0
    b638:	d2852901 	mov	x1, #0x2948                	// #10568
    b63c:	f2a000c1 	movk	x1, #0x6, lsl #16
    b640:	f2c00aa1 	movk	x1, #0x55, lsl #32
    b644:	f2e00001 	movk	x1, #0x0, lsl #48
    b648:	d294eb11 	mov	x17, #0xa758                	// #42840
    b64c:	f2a031b1 	movk	x17, #0x18d, lsl #16
    b650:	f2c00ab1 	movk	x17, #0x55, lsl #32
    b654:	f2e00011 	movk	x17, #0x0, lsl #48
    b658:	d63f0220 	blr	x17
    b65c:	f85f83a0 	ldur	x0, [x29, #-8]
    b660:	bc5ec3a0 	ldur	s0, [x29, #-20]
    b664:	97fffccf 	bl	0xa9a0
    b668:	910083ff 	add	sp, sp, #0x20
    b66c:	a8c17bfd 	ldp	x29, x30, [sp], #16
    b670:	d65f03c0 	ret
    b674:	d503201f 	nop
    b678:	d503201f 	nop
    b67c:	d503201f 	nop
    b680:	a9bf7bfd 	stp	x29, x30, [sp, #-16]!
    b684:	910003fd 	mov	x29, sp
    b688:	d10083ff 	sub	sp, sp, #0x20
    b68c:	f81f83a0 	stur	x0, [x29, #-8]
    b690:	b81f43a1 	stur	w1, [x29, #-12]
    b694:	f81e83a2 	stur	x2, [x29, #-24]
    b698:	d13fa3e0 	sub	x0, sp, #0xfe8
    b69c:	d2852901 	mov	x1, #0x2948                	// #10568
    b6a0:	f2a000c1 	movk	x1, #0x6, lsl #16
    b6a4:	f2c00aa1 	movk	x1, #0x55, lsl #32
    b6a8:	f2e00001 	movk	x1, #0x0, lsl #48
    b6ac:	d294eb11 	mov	x17, #0xa758                	// #42840
    b6b0:	f2a031b1 	movk	x17, #0x18d, lsl #16
    b6b4:	f2c00ab1 	movk	x17, #0x55, lsl #32
    b6b8:	f2e00011 	movk	x17, #0x0, lsl #48
    b6bc:	d63f0220 	blr	x17
    b6c0:	f85f83a0 	ldur	x0, [x29, #-8]
    b6c4:	b85f43a1 	ldur	w1, [x29, #-12]
    b6c8:	bc5e43a0 	ldur	s0, [x29, #-28]
    b6cc:	97fffcf9 	bl	0xaab0
    b6d0:	910083ff 	add	sp, sp, #0x20
    b6d4:	a8c17bfd 	ldp	x29, x30, [sp], #16
    b6d8:	d65f03c0 	ret
    b6dc:	d503201f 	nop
    b6e0:	a9bf7bfd 	stp	x29, x30, [sp, #-16]!
    b6e4:	910003fd 	mov	x29, sp
    b6e8:	d10083ff 	sub	sp, sp, #0x20
    b6ec:	f81f83a0 	stur	x0, [x29, #-8]
    b6f0:	f81f03a1 	stur	x1, [x29, #-16]
    b6f4:	d13fc3e0 	sub	x0, sp, #0xff0
    b6f8:	d2852901 	mov	x1, #0x2948                	// #10568
    b6fc:	f2a000c1 	movk	x1, #0x6, lsl #16
    b700:	f2c00aa1 	movk	x1, #0x55, lsl #32
    b704:	f2e00001 	movk	x1, #0x0, lsl #48
    b708:	d294eb11 	mov	x17, #0xa758                	// #42840
    b70c:	f2a031b1 	movk	x17, #0x18d, lsl #16
    b710:	f2c00ab1 	movk	x17, #0x55, lsl #32
    b714:	f2e00011 	movk	x17, #0x0, lsl #48
    b718:	d63f0220 	blr	x17
    b71c:	f85f83a0 	ldur	x0, [x29, #-8]
    b720:	bc5e83a0 	ldur	s0, [x29, #-24]
    b724:	97fffd3b 	bl	0xac10
    b728:	910083ff 	add	sp, sp, #0x20
    b72c:	a8c17bfd 	ldp	x29, x30, [sp], #16
    b730:	d65f03c0 	ret
    b734:	d503201f 	nop
    b738:	d503201f 	nop
    b73c:	d503201f 	nop
    b740:	a9bf7bfd 	stp	x29, x30, [sp, #-16]!
    b744:	910003fd 	mov	x29, sp
    b748:	d10083ff 	sub	sp, sp, #0x20
    b74c:	f81f83a0 	stur	x0, [x29, #-8]
    b750:	f81f03a1 	stur	x1, [x29, #-16]
    b754:	d13fc3e0 	sub	x0, sp, #0xff0
    b758:	d2852901 	mov	x1, #0x2948                	// #10568
    b75c:	f2a000c1 	movk	x1, #0x6, lsl #16
    b760:	f2c00aa1 	movk	x1, #0x55, lsl #32
    b764:	f2e00001 	movk	x1, #0x0, lsl #48
    b768:	d294eb11 	mov	x17, #0xa758                	// #42840
    b76c:	f2a031b1 	movk	x17, #0x18d, lsl #16
    b770:	f2c00ab1 	movk	x17, #0x55, lsl #32
    b774:	f2e00011 	movk	x17, #0x0, lsl #48
    b778:	d63f0220 	blr	x17
    b77c:	f85f83a0 	ldur	x0, [x29, #-8]
    b780:	bc5e83a0 	ldur	s0, [x29, #-24]
    b784:	97fffd3b 	bl	0xac70
    b788:	910083ff 	add	sp, sp, #0x20
    b78c:	a8c17bfd 	ldp	x29, x30, [sp], #16
    b790:	d65f03c0 	ret
    b794:	d503201f 	nop
    b798:	d503201f 	nop
    b79c:	d503201f 	nop
    b7a0:	a9bf7bfd 	stp	x29, x30, [sp, #-16]!
    b7a4:	910003fd 	mov	x29, sp
    b7a8:	d100c3ff 	sub	sp, sp, #0x30
    b7ac:	d4200760 	brk	#0x3b
    b7b0:	d4200760 	brk	#0x3b
    b7b4:	d4200400 	brk	#0x20
    b7b8:	9100c3ff 	add	sp, sp, #0x30
    b7bc:	a8c17bfd 	ldp	x29, x30, [sp], #16
    b7c0:	d65f03c0 	ret
    b7c4:	d503201f 	nop
    b7c8:	d503201f 	nop
    b7cc:	d503201f 	nop
    b7d0:	a9bf7bfd 	stp	x29, x30, [sp, #-16]!
    b7d4:	910003fd 	mov	x29, sp
    b7d8:	d10083ff 	sub	sp, sp, #0x20
    b7dc:	7100003f 	cmp	w1, #0x0
    b7e0:	54000041 	b.ne	0xb7e8  // b.any
    b7e4:	aa1f03e2 	mov	x2, xzr
    b7e8:	14000001 	b	0xb7ec
    b7ec:	d4200440 	brk	#0x22
    b7f0:	f81f83a0 	stur	x0, [x29, #-8]
    b7f4:	f81f03a1 	stur	x1, [x29, #-16]
    b7f8:	f81e83a2 	stur	x2, [x29, #-24]
    b7fc:	f85f83a0 	ldur	x0, [x29, #-8]
    b800:	f85e83a1 	ldur	x1, [x29, #-24]
    b804:	97fffb1f 	bl	0xa480
    b808:	910083ff 	add	sp, sp, #0x20
    b80c:	a8c17bfd 	ldp	x29, x30, [sp], #16
    b810:	d65f03c0 	ret
    b814:	d503201f 	nop
    b818:	d503201f 	nop
    b81c:	d503201f 	nop
    b820:	a9bf7bfd 	stp	x29, x30, [sp, #-16]!
    b824:	910003fd 	mov	x29, sp
    b828:	d101c3ff 	sub	sp, sp, #0x70
    b82c:	52800002 	mov	w2, #0x0                   	// #0
    b830:	72a00002 	movk	w2, #0x0, lsl #16
    b834:	6b01005f 	cmp	w2, w1
    b838:	540003ca 	b.ge	0xb8b0  // b.tcont
    b83c:	d295b504 	mov	x4, #0xada8                	// #44456
    b840:	f2a000c4 	movk	x4, #0x6, lsl #16
    b844:	f2c00aa4 	movk	x4, #0x55, lsl #32
    b848:	f2e00004 	movk	x4, #0x0, lsl #48
    b84c:	f8400083 	ldur	x3, [x4]
    b850:	b81f03a1 	stur	w1, [x29, #-16]
    b854:	d4200ae0 	brk	#0x57
    b858:	f81f83a0 	stur	x0, [x29, #-8]
    b85c:	b81f43a1 	stur	w1, [x29, #-12]
    b860:	b81ec3a2 	stur	w2, [x29, #-20]
    b864:	f81d83a3 	stur	x3, [x29, #-40]
    b868:	b85f03a0 	ldur	w0, [x29, #-16]
    b86c:	f85d03a1 	ldur	x1, [x29, #-48]
    b870:	d292a211 	mov	x17, #0x9510                	// #38160
    b874:	f2a031d1 	movk	x17, #0x18e, lsl #16
    b878:	f2c00ab1 	movk	x17, #0x55, lsl #32
    b87c:	f2e00011 	movk	x17, #0x0, lsl #48
    b880:	d63f0220 	blr	x17
    b884:	f81c83a0 	stur	x0, [x29, #-56]
    b888:	f85c83a0 	ldur	x0, [x29, #-56]
    b88c:	b85f03a1 	ldur	w1, [x29, #-16]
    b890:	97ffd4b8 	bl	0xb70
    b894:	f81c03a0 	stur	x0, [x29, #-64]
    b898:	f85d83a0 	ldur	x0, [x29, #-40]
    b89c:	f85c03a1 	ldur	x1, [x29, #-64]
    b8a0:	97ffd548 	bl	0xdc0
    b8a4:	f81d83a0 	stur	x0, [x29, #-40]
    b8a8:	f85d83a0 	ldur	x0, [x29, #-40]
    b8ac:	97ffdead 	bl	0x3360
    b8b0:	d4200880 	brk	#0x44
    b8b4:	528000e1 	mov	w1, #0x7                   	// #7
    b8b8:	72a00001 	movk	w1, #0x0, lsl #16
    b8bc:	d42000e0 	brk	#0x7
    b8c0:	d4200500 	brk	#0x28
    b8c4:	b85bc3a2 	ldur	w2, [x29, #-68]
    b8c8:	b85f03a3 	ldur	w3, [x29, #-16]
    b8cc:	6b02007f 	cmp	w3, w2
    b8d0:	5400086a 	b.ge	0xb9dc  // b.tcont
    b8d4:	d4200500 	brk	#0x28
    b8d8:	52800242 	mov	w2, #0x12                  	// #18
    b8dc:	72a00002 	movk	w2, #0x0, lsl #16
    b8e0:	d4200120 	brk	#0x9
    b8e4:	528000e2 	mov	w2, #0x7                   	// #7
    b8e8:	72a00002 	movk	w2, #0x0, lsl #16
    b8ec:	d42001e0 	brk	#0xf
    b8f0:	6b01007f 	cmp	w3, w1
    b8f4:	5400002a 	b.ge	0xb8f8  // b.tcont
    b8f8:	2a0303e1 	mov	w1, w3
    b8fc:	d4200500 	brk	#0x28
    b900:	52800064 	mov	w4, #0x3                   	// #3
    b904:	72a00004 	movk	w4, #0x0, lsl #16
    b908:	d42001c0 	brk	#0xe
    b90c:	f81e03a0 	stur	x0, [x29, #-32]
    b910:	b81ec3a1 	stur	w1, [x29, #-20]
    b914:	b81bc3a2 	stur	w2, [x29, #-68]
    b918:	b81f03a3 	stur	w3, [x29, #-16]
    b91c:	b81b83a4 	stur	w4, [x29, #-72]
    b920:	b85bc3a0 	ldur	w0, [x29, #-68]
    b924:	d2905f91 	mov	x17, #0x82fc                	// #33532
    b928:	f2a031b1 	movk	x17, #0x18d, lsl #16
    b92c:	f2c00ab1 	movk	x17, #0x55, lsl #32
    b930:	f2e00011 	movk	x17, #0x0, lsl #48
    b934:	d63f0220 	blr	x17
    b938:	d4200500 	brk	#0x28
    b93c:	d4200500 	brk	#0x28
    b940:	52800061 	mov	w1, #0x3                   	// #3
    b944:	72a00001 	movk	w1, #0x0, lsl #16
    b948:	d42001c0 	brk	#0xe
    b94c:	52800001 	mov	w1, #0x0                   	// #0
    b950:	72a00001 	movk	w1, #0x0, lsl #16
    b954:	d4200500 	brk	#0x28
    b958:	52800002 	mov	w2, #0x0                   	// #0
    b95c:	72a00002 	movk	w2, #0x0, lsl #16
    b960:	f81b03a0 	stur	x0, [x29, #-80]
    b964:	b81b83a1 	stur	w1, [x29, #-72]
    b968:	b81943a2 	stur	w2, [x29, #-108]
    b96c:	f85b03a0 	ldur	x0, [x29, #-80]
    b970:	b85b83a1 	ldur	w1, [x29, #-72]
    b974:	f85983a2 	ldur	x2, [x29, #-104]
    b978:	b85943a3 	ldur	w3, [x29, #-108]
    b97c:	b85bc3a4 	ldur	w4, [x29, #-68]
    b980:	d2906d91 	mov	x17, #0x836c                	// #33644
    b984:	f2a031b1 	movk	x17, #0x18d, lsl #16
    b988:	f2c00ab1 	movk	x17, #0x55, lsl #32
    b98c:	f2e00011 	movk	x17, #0x0, lsl #48
    b990:	d63f0220 	blr	x17
    b994:	d4200500 	brk	#0x28
    b998:	52800060 	mov	w0, #0x3                   	// #3
    b99c:	72a00000 	movk	w0, #0x0, lsl #16
    b9a0:	d42001c0 	brk	#0xe
    b9a4:	d4200100 	brk	#0x8
    b9a8:	52800000 	mov	w0, #0x0                   	// #0
    b9ac:	72a00000 	movk	w0, #0x0, lsl #16
    b9b0:	b81903a0 	stur	w0, [x29, #-112]
    b9b4:	f85b03a0 	ldur	x0, [x29, #-80]
    b9b8:	b85bc3a1 	ldur	w1, [x29, #-68]
    b9bc:	b85943a2 	ldur	w2, [x29, #-108]
    b9c0:	b85903a3 	ldur	w3, [x29, #-112]
    b9c4:	d290ff91 	mov	x17, #0x87fc                	// #34812
    b9c8:	f2a031b1 	movk	x17, #0x18d, lsl #16
    b9cc:	f2c00ab1 	movk	x17, #0x55, lsl #32
    b9d0:	f2e00011 	movk	x17, #0x0, lsl #48
    b9d4:	d63f0220 	blr	x17
    b9d8:	d4200520 	brk	#0x29
    b9dc:	d4200520 	brk	#0x29
    b9e0:	d4200520 	brk	#0x29
    b9e4:	9101c3ff 	add	sp, sp, #0x70
    b9e8:	a8c17bfd 	ldp	x29, x30, [sp], #16
    b9ec:	d65f03c0 	ret
    b9f0:	a9bf7bfd 	stp	x29, x30, [sp, #-16]!
    b9f4:	910003fd 	mov	x29, sp
    b9f8:	d10083ff 	sub	sp, sp, #0x20
    b9fc:	52800001 	mov	w1, #0x0                   	// #0
    ba00:	72a00001 	movk	w1, #0x0, lsl #16
    ba04:	d4200520 	brk	#0x29
    ba08:	d4200520 	brk	#0x29
    ba0c:	aa1f03e2 	mov	x2, xzr
    ba10:	d4200520 	brk	#0x29
    ba14:	910083ff 	add	sp, sp, #0x20
    ba18:	a8c17bfd 	ldp	x29, x30, [sp], #16
    ba1c:	d65f03c0 	ret
    ba20:	a9bf7bfd 	stp	x29, x30, [sp, #-16]!
    ba24:	910003fd 	mov	x29, sp
    ba28:	d10183ff 	sub	sp, sp, #0x60
    ba2c:	f81f83a0 	stur	x0, [x29, #-8]
    ba30:	f81f03a1 	stur	x1, [x29, #-16]
    ba34:	d2857d00 	mov	x0, #0x2be8                	// #11240
    ba38:	f2a000c0 	movk	x0, #0x6, lsl #16
    ba3c:	f2c00aa0 	movk	x0, #0x55, lsl #32
    ba40:	f2e00000 	movk	x0, #0x0, lsl #48
    ba44:	d287fa11 	mov	x17, #0x3fd0                	// #16336
    ba48:	f2a031b1 	movk	x17, #0x18d, lsl #16
    ba4c:	f2c00ab1 	movk	x17, #0x55, lsl #32
    ba50:	f2e00011 	movk	x17, #0x0, lsl #48
    ba54:	d63f0220 	blr	x17
    ba58:	f81e83a0 	stur	x0, [x29, #-24]
    ba5c:	f85e83a0 	ldur	x0, [x29, #-24]
    ba60:	97ffffe4 	bl	0xb9f0
    ba64:	d4200500 	brk	#0x28
    ba68:	f85f03a0 	ldur	x0, [x29, #-16]
    ba6c:	7100001f 	cmp	w0, #0x0
    ba70:	54000381 	b.ne	0xbae0  // b.any
    ba74:	f81f03a0 	stur	x0, [x29, #-16]
    ba78:	d298b091 	mov	x17, #0xc584                	// #50564
    ba7c:	f2a031b1 	movk	x17, #0x18d, lsl #16
    ba80:	f2c00ab1 	movk	x17, #0x55, lsl #32
    ba84:	f2e00011 	movk	x17, #0x0, lsl #48
    ba88:	d63f0220 	blr	x17
    ba8c:	f85f03a0 	ldur	x0, [x29, #-16]
    ba90:	f8408001 	ldur	x1, [x0, #8]
    ba94:	d42000e0 	brk	#0x7
    ba98:	f85e83a2 	ldur	x2, [x29, #-24]
    ba9c:	f8004042 	stur	x2, [x2, #4]
    baa0:	f85f83a3 	ldur	x3, [x29, #-8]
    baa4:	f8004062 	stur	x2, [x3, #4]
    baa8:	d4200500 	brk	#0x28
    baac:	f8408044 	ldur	x4, [x2, #8]
    bab0:	528000e1 	mov	w1, #0x7                   	// #7
    bab4:	72a00001 	movk	w1, #0x0, lsl #16
    bab8:	d42001c0 	brk	#0xe
    babc:	f81f03a0 	stur	x0, [x29, #-16]
    bac0:	b81e03a1 	stur	w1, [x29, #-32]
    bac4:	f81e83a2 	stur	x2, [x29, #-24]
    bac8:	f81f83a3 	stur	x3, [x29, #-8]
    bacc:	b81e43a4 	stur	w4, [x29, #-28]
    bad0:	b85e43a0 	ldur	w0, [x29, #-28]
    bad4:	d2905f91 	mov	x17, #0x82fc                	// #33532
    bad8:	f2a031b1 	movk	x17, #0x18d, lsl #16
    badc:	f2c00ab1 	movk	x17, #0x55, lsl #32
    bae0:	f2e00011 	movk	x17, #0x0, lsl #48
    bae4:	d63f0220 	blr	x17
    bae8:	f85f03a1 	ldur	x1, [x29, #-16]
    baec:	f85e83a2 	ldur	x2, [x29, #-24]
    baf0:	f8055022 	stur	x2, [x1, #85]
    baf4:	d4200500 	brk	#0x28
    baf8:	d4200500 	brk	#0x28
    bafc:	528000e3 	mov	w3, #0x7                   	// #7
    bb00:	72a00003 	movk	w3, #0x0, lsl #16
    bb04:	d42001c0 	brk	#0xe
    bb08:	f8410044 	ldur	x4, [x2, #16]
    bb0c:	52800003 	mov	w3, #0x0                   	// #0
    bb10:	72a00003 	movk	w3, #0x0, lsl #16
    bb14:	d4200500 	brk	#0x28
    bb18:	52800005 	mov	w5, #0x0                   	// #0
    bb1c:	72a00005 	movk	w5, #0x0, lsl #16
    bb20:	f81d03a0 	stur	x0, [x29, #-48]
    bb24:	f81f03a1 	stur	x1, [x29, #-16]
    bb28:	f81e83a2 	stur	x2, [x29, #-24]
    bb2c:	b81e03a3 	stur	w3, [x29, #-32]
    bb30:	f81c03a4 	stur	x4, [x29, #-64]
    bb34:	b81b43a5 	stur	w5, [x29, #-76]
    bb38:	f85c03a0 	ldur	x0, [x29, #-64]
    bb3c:	b85e03a1 	ldur	w1, [x29, #-32]
    bb40:	f85b83a2 	ldur	x2, [x29, #-72]
    bb44:	b85b43a3 	ldur	w3, [x29, #-76]
    bb48:	b85e43a4 	ldur	w4, [x29, #-28]
    bb4c:	d2906d91 	mov	x17, #0x836c                	// #33644
    bb50:	f2a031b1 	movk	x17, #0x18d, lsl #16
    bb54:	f2c00ab1 	movk	x17, #0x55, lsl #32
    bb58:	f2e00011 	movk	x17, #0x0, lsl #48
    bb5c:	d63f0220 	blr	x17
    bb60:	d4200500 	brk	#0x28
    bb64:	f85e83a0 	ldur	x0, [x29, #-24]
    bb68:	f8410001 	ldur	x1, [x0, #16]
    bb6c:	f85f03a2 	ldur	x2, [x29, #-16]
    bb70:	f8410043 	ldur	x3, [x2, #16]
    bb74:	52800004 	mov	w4, #0x0                   	// #0
    bb78:	72a00004 	movk	w4, #0x0, lsl #16
    bb7c:	f8408045 	ldur	x5, [x2, #8]
    bb80:	528000e6 	mov	w6, #0x7                   	// #7
    bb84:	72a00006 	movk	w6, #0x0, lsl #16
    bb88:	d42001c0 	brk	#0xe
    bb8c:	f81e83a0 	stur	x0, [x29, #-24]
    bb90:	f81b83a1 	stur	x1, [x29, #-72]
    bb94:	f81f03a2 	stur	x2, [x29, #-16]
    bb98:	f81a83a3 	stur	x3, [x29, #-88]
    bb9c:	b81b43a4 	stur	w4, [x29, #-76]
    bba0:	b81b03a5 	stur	w5, [x29, #-80]
    bba4:	b81a43a6 	stur	w6, [x29, #-92]
    bba8:	f85b83a0 	ldur	x0, [x29, #-72]
    bbac:	b85e43a1 	ldur	w1, [x29, #-28]
    bbb0:	f85a83a2 	ldur	x2, [x29, #-88]
    bbb4:	b85b43a3 	ldur	w3, [x29, #-76]
    bbb8:	b85b03a4 	ldur	w4, [x29, #-80]
    bbbc:	d2906d91 	mov	x17, #0x836c                	// #33644
    bbc0:	f2a031b1 	movk	x17, #0x18d, lsl #16
    bbc4:	f2c00ab1 	movk	x17, #0x55, lsl #32
    bbc8:	f2e00011 	movk	x17, #0x0, lsl #48
    bbcc:	d63f0220 	blr	x17
    bbd0:	910183ff 	add	sp, sp, #0x60
    bbd4:	a8c17bfd 	ldp	x29, x30, [sp], #16
    bbd8:	d65f03c0 	ret
    bbdc:	d503201f 	nop
    bbe0:	a9bf7bfd 	stp	x29, x30, [sp, #-16]!
    bbe4:	910003fd 	mov	x29, sp
    bbe8:	d10143ff 	sub	sp, sp, #0x50
    bbec:	f81f83a0 	stur	x0, [x29, #-8]
    bbf0:	f81f03a1 	stur	x1, [x29, #-16]
    bbf4:	d2878100 	mov	x0, #0x3c08                	// #15368
    bbf8:	f2a000c0 	movk	x0, #0x6, lsl #16
    bbfc:	f2c00aa0 	movk	x0, #0x55, lsl #32
    bc00:	f2e00000 	movk	x0, #0x0, lsl #48
    bc04:	d287fa11 	mov	x17, #0x3fd0                	// #16336
    bc08:	f2a031b1 	movk	x17, #0x18d, lsl #16
    bc0c:	f2c00ab1 	movk	x17, #0x55, lsl #32
    bc10:	f2e00011 	movk	x17, #0x0, lsl #48
    bc14:	d63f0220 	blr	x17
    bc18:	f81e83a0 	stur	x0, [x29, #-24]
    bc1c:	f85e83a0 	ldur	x0, [x29, #-24]
    bc20:	97ffd95c 	bl	0x2190
    bc24:	52800000 	mov	w0, #0x0                   	// #0
    bc28:	72a00000 	movk	w0, #0x0, lsl #16
    bc2c:	d4200500 	brk	#0x28
    bc30:	b85e03a1 	ldur	w1, [x29, #-32]
    bc34:	6b00003f 	cmp	w1, w0
    bc38:	540005ca 	b.ge	0xbcf0  // b.tcont
    bc3c:	b81dc3a0 	stur	w0, [x29, #-36]
    bc40:	f85f83a2 	ldur	x2, [x29, #-8]
    bc44:	11000440 	add	w0, w2, #0x1
    bc48:	52800003 	mov	w3, #0x0                   	// #0
    bc4c:	72a00003 	movk	w3, #0x0, lsl #16
    bc50:	b85dc3a4 	ldur	w4, [x29, #-36]
    bc54:	6b03009f 	cmp	w4, w3
    bc58:	5400022a 	b.ge	0xbc9c  // b.tcont
    bc5c:	f85e83a5 	ldur	x5, [x29, #-24]
    bc60:	710000bf 	cmp	w5, #0x0
    bc64:	54000601 	b.ne	0xbd24  // b.any
    bc68:	b81e43a0 	stur	w0, [x29, #-28]
    bc6c:	b81e03a1 	stur	w1, [x29, #-32]
    bc70:	f81f83a2 	stur	x2, [x29, #-8]
    bc74:	b81d43a3 	stur	w3, [x29, #-44]
    bc78:	b81dc3a4 	stur	w4, [x29, #-36]
    bc7c:	f81e83a5 	stur	x5, [x29, #-24]
    bc80:	d298b091 	mov	x17, #0xc584                	// #50564
    bc84:	f2a031b1 	movk	x17, #0x18d, lsl #16
    bc88:	f2c00ab1 	movk	x17, #0x55, lsl #32
    bc8c:	f2e00011 	movk	x17, #0x0, lsl #48
    bc90:	d63f0220 	blr	x17
    bc94:	f85e83a0 	ldur	x0, [x29, #-24]
    bc98:	f85f03a1 	ldur	x1, [x29, #-16]
    bc9c:	97ffd955 	bl	0x21f0
    bca0:	d4200500 	brk	#0x28
    bca4:	f85e83a0 	ldur	x0, [x29, #-24]
    bca8:	7100001f 	cmp	w0, #0x0
    bcac:	54000381 	b.ne	0xbd1c  // b.any
    bcb0:	f81e83a0 	stur	x0, [x29, #-24]
    bcb4:	d298b091 	mov	x17, #0xc584                	// #50564
    bcb8:	f2a031b1 	movk	x17, #0x18d, lsl #16
    bcbc:	f2c00ab1 	movk	x17, #0x55, lsl #32
    bcc0:	f2e00011 	movk	x17, #0x0, lsl #48
    bcc4:	d63f0220 	blr	x17
    bcc8:	528000e0 	mov	w0, #0x7                   	// #7
    bccc:	72a00000 	movk	w0, #0x0, lsl #16
    bcd0:	d42001c0 	brk	#0xe
    bcd4:	d4200960 	brk	#0x4b
    bcd8:	d42007c0 	brk	#0x3e
    bcdc:	d4200760 	brk	#0x3b
    bce0:	b81d43a0 	stur	w0, [x29, #-44]
    bce4:	f85e83a0 	ldur	x0, [x29, #-24]
    bce8:	f85b03a1 	ldur	x1, [x29, #-80]
    bcec:	97ffd941 	bl	0x21f0
    bcf0:	17ffffcf 	b	0xbc2c
    bcf4:	f85e83a0 	ldur	x0, [x29, #-24]
    bcf8:	7100001f 	cmp	w0, #0x0
    bcfc:	54000381 	b.ne	0xbd6c  // b.any
    bd00:	f81e83a0 	stur	x0, [x29, #-24]
    bd04:	d298b091 	mov	x17, #0xc584                	// #50564
    bd08:	f2a031b1 	movk	x17, #0x18d, lsl #16
    bd0c:	f2c00ab1 	movk	x17, #0x55, lsl #32
    bd10:	f2e00011 	movk	x17, #0x0, lsl #48
    bd14:	d63f0220 	blr	x17
    bd18:	f85e83a0 	ldur	x0, [x29, #-24]
    bd1c:	97ffdae9 	bl	0x28c0
    bd20:	910143ff 	add	sp, sp, #0x50
    bd24:	a8c17bfd 	ldp	x29, x30, [sp], #16
    bd28:	d65f03c0 	ret
    bd2c:	d503201f 	nop
    bd30:	a9bf7bfd 	stp	x29, x30, [sp, #-16]!
    bd34:	910003fd 	mov	x29, sp
    bd38:	d100c3ff 	sub	sp, sp, #0x30
    bd3c:	d4200500 	brk	#0x28
    bd40:	52800001 	mov	w1, #0x0                   	// #0
    bd44:	72a00001 	movk	w1, #0x0, lsl #16
    bd48:	b85f43a2 	ldur	w2, [x29, #-12]
    bd4c:	6b02003f 	cmp	w1, w2
    bd50:	54000081 	b.ne	0xbd60  // b.any
    bd54:	aa1f03e3 	mov	x3, xzr
    bd58:	9100c3ff 	add	sp, sp, #0x30
    bd5c:	a8c17bfd 	ldp	x29, x30, [sp], #16
    bd60:	d65f03c0 	ret
    bd64:	f8408002 	ldur	x2, [x0, #8]
    bd68:	51000402 	sub	w2, w0, #0x1
    bd6c:	f8010000 	stur	x0, [x0, #16]
    bd70:	d4200500 	brk	#0x28
    bd74:	d4200500 	brk	#0x28
    bd78:	528000e4 	mov	w4, #0x7                   	// #7
    bd7c:	72a00004 	movk	w4, #0x0, lsl #16
    bd80:	d42001c0 	brk	#0xe
    bd84:	d4200960 	brk	#0x4b
    bd88:	d42007c0 	brk	#0x3e
    bd8c:	d4200760 	brk	#0x3b
    bd90:	9100c3ff 	add	sp, sp, #0x30
    bd94:	a8c17bfd 	ldp	x29, x30, [sp], #16
    bd98:	d65f03c0 	ret
    bd9c:	d503201f 	nop
    bda0:	a9bf7bfd 	stp	x29, x30, [sp, #-16]!
    bda4:	910003fd 	mov	x29, sp
    bda8:	d100c3ff 	sub	sp, sp, #0x30
    bdac:	d4200500 	brk	#0x28
    bdb0:	d4200500 	brk	#0x28
    bdb4:	b85ec3a2 	ldur	w2, [x29, #-20]
    bdb8:	b85f03a3 	ldur	w3, [x29, #-16]
    bdbc:	6b02007f 	cmp	w3, w2
    bdc0:	54000101 	b.ne	0xbde0  // b.any
    bdc4:	f81f83a0 	stur	x0, [x29, #-8]
    bdc8:	781f63a1 	sturh	w1, [x29, #-10]
    bdcc:	b81ec3a2 	stur	w2, [x29, #-20]
    bdd0:	b81f03a3 	stur	w3, [x29, #-16]
    bdd4:	f85f83a0 	ldur	x0, [x29, #-8]
    bdd8:	b85f03a1 	ldur	w1, [x29, #-16]
    bddc:	94000081 	bl	0xbfe0
    bde0:	14000004 	b	0xbdf0
    bde4:	f85f83a0 	ldur	x0, [x29, #-8]
    bde8:	f8408001 	ldur	x1, [x0, #8]
    bdec:	11000401 	add	w1, w0, #0x1
    bdf0:	f8004000 	stur	x0, [x0, #4]
    bdf4:	d4200500 	brk	#0x28
    bdf8:	d42007c0 	brk	#0x3e
    bdfc:	528000e2 	mov	w2, #0x7                   	// #7
    be00:	72a00002 	movk	w2, #0x0, lsl #16
    be04:	d42001c0 	brk	#0xe
    be08:	d42009e0 	brk	#0x4f
    be0c:	d4200500 	brk	#0x28
    be10:	9100c3ff 	add	sp, sp, #0x30
    be14:	a8c17bfd 	ldp	x29, x30, [sp], #16
    be18:	d65f03c0 	ret
    be1c:	d503201f 	nop
    be20:	a9bf7bfd 	stp	x29, x30, [sp, #-16]!
    be24:	910003fd 	mov	x29, sp
    be28:	d10143ff 	sub	sp, sp, #0x50
    be2c:	52800001 	mov	w1, #0x0                   	// #0
    be30:	72a00001 	movk	w1, #0x0, lsl #16
    be34:	d4200500 	brk	#0x28
    be38:	528000e2 	mov	w2, #0x7                   	// #7
    be3c:	72a00002 	movk	w2, #0x0, lsl #16
    be40:	d42001e0 	brk	#0xf
    be44:	b85f03a3 	ldur	w3, [x29, #-16]
    be48:	6b01007f 	cmp	w3, w1
    be4c:	5400040a 	b.ge	0xbecc  // b.tcont
    be50:	2a0103e2 	mov	w2, w1
    be54:	11000401 	add	w1, w0, #0x1
    be58:	d4200500 	brk	#0x28
    be5c:	528000e4 	mov	w4, #0x7                   	// #7
    be60:	72a00004 	movk	w4, #0x0, lsl #16
    be64:	d4200100 	brk	#0x8
    be68:	d4200100 	brk	#0x8
    be6c:	d4200500 	brk	#0x28
    be70:	528000e5 	mov	w5, #0x7                   	// #7
    be74:	72a00005 	movk	w5, #0x0, lsl #16
    be78:	d42001c0 	brk	#0xe
    be7c:	d4200960 	brk	#0x4b
    be80:	d42007c0 	brk	#0x3e
    be84:	d4200500 	brk	#0x28
    be88:	d4200500 	brk	#0x28
    be8c:	528000e5 	mov	w5, #0x7                   	// #7
    be90:	72a00005 	movk	w5, #0x0, lsl #16
    be94:	d42001c0 	brk	#0xe
    be98:	d4200960 	brk	#0x4b
    be9c:	d42007c0 	brk	#0x3e
    bea0:	d42007c0 	brk	#0x3e
    bea4:	528000e6 	mov	w6, #0x7                   	// #7
    bea8:	72a00006 	movk	w6, #0x0, lsl #16
    beac:	d42001c0 	brk	#0xe
    beb0:	d42009e0 	brk	#0x4f
    beb4:	d4200500 	brk	#0x28
    beb8:	d42007c0 	brk	#0x3e
    bebc:	528000e6 	mov	w6, #0x7                   	// #7
    bec0:	72a00006 	movk	w6, #0x0, lsl #16
    bec4:	d42001c0 	brk	#0xe
    bec8:	d42009e0 	brk	#0x4f
    becc:	17ffffdd 	b	0xbe40
    bed0:	910143ff 	add	sp, sp, #0x50
    bed4:	a8c17bfd 	ldp	x29, x30, [sp], #16
    bed8:	d65f03c0 	ret
    bedc:	d503201f 	nop
    bee0:	a9bf7bfd 	stp	x29, x30, [sp, #-16]!
    bee4:	910003fd 	mov	x29, sp
    bee8:	d10143ff 	sub	sp, sp, #0x50
    beec:	d4200500 	brk	#0x28
    bef0:	52800001 	mov	w1, #0x0                   	// #0
    bef4:	72a00001 	movk	w1, #0x0, lsl #16
    bef8:	b85f43a2 	ldur	w2, [x29, #-12]
    befc:	6b02003f 	cmp	w1, w2
    bf00:	54000081 	b.ne	0xbf10  // b.any
    bf04:	aa1f03e3 	mov	x3, xzr
    bf08:	910143ff 	add	sp, sp, #0x50
    bf0c:	a8c17bfd 	ldp	x29, x30, [sp], #16
    bf10:	d65f03c0 	ret
    bf14:	d4200500 	brk	#0x28
    bf18:	52800002 	mov	w2, #0x0                   	// #0
    bf1c:	72a00002 	movk	w2, #0x0, lsl #16
    bf20:	528000e1 	mov	w1, #0x7                   	// #7
    bf24:	72a00001 	movk	w1, #0x0, lsl #16
    bf28:	d42001c0 	brk	#0xe
    bf2c:	d4200960 	brk	#0x4b
    bf30:	d42007c0 	brk	#0x3e
    bf34:	f8408002 	ldur	x2, [x0, #8]
    bf38:	51000402 	sub	w2, w0, #0x1
    bf3c:	f8018000 	stur	x0, [x0, #24]
    bf40:	d4200500 	brk	#0x28
    bf44:	d4200500 	brk	#0x28
    bf48:	d4200500 	brk	#0x28
    bf4c:	528000e2 	mov	w2, #0x7                   	// #7
    bf50:	72a00002 	movk	w2, #0x0, lsl #16
    bf54:	528000e1 	mov	w1, #0x7                   	// #7
    bf58:	72a00001 	movk	w1, #0x0, lsl #16
    bf5c:	d42001c0 	brk	#0xe
    bf60:	d4200500 	brk	#0x28
    bf64:	52800001 	mov	w1, #0x0                   	// #0
    bf68:	72a00001 	movk	w1, #0x0, lsl #16
    bf6c:	d4200500 	brk	#0x28
    bf70:	528000e4 	mov	w4, #0x7                   	// #7
    bf74:	72a00004 	movk	w4, #0x0, lsl #16
    bf78:	d42001c0 	brk	#0xe
    bf7c:	f81f83a0 	stur	x0, [x29, #-8]
    bf80:	b81f03a1 	stur	w1, [x29, #-16]
    bf84:	b81f43a2 	stur	w2, [x29, #-12]
    bf88:	f81e83a3 	stur	x3, [x29, #-24]
    bf8c:	b81b03a4 	stur	w4, [x29, #-80]
    bf90:	f85d83a0 	ldur	x0, [x29, #-40]
    bf94:	b85f03a1 	ldur	w1, [x29, #-16]
    bf98:	f85c83a2 	ldur	x2, [x29, #-56]
    bf9c:	b85f43a3 	ldur	w3, [x29, #-12]
    bfa0:	b85b43a4 	ldur	w4, [x29, #-76]
    bfa4:	d2906d91 	mov	x17, #0x836c                	// #33644
    bfa8:	f2a031b1 	movk	x17, #0x18d, lsl #16
    bfac:	f2c00ab1 	movk	x17, #0x55, lsl #32
    bfb0:	f2e00011 	movk	x17, #0x0, lsl #48
    bfb4:	d63f0220 	blr	x17
    bfb8:	d4200760 	brk	#0x3b
    bfbc:	910143ff 	add	sp, sp, #0x50
    bfc0:	a8c17bfd 	ldp	x29, x30, [sp], #16
    bfc4:	d65f03c0 	ret
    bfc8:	d503201f 	nop
    bfcc:	d503201f 	nop
    bfd0:	a9bf7bfd 	stp	x29, x30, [sp, #-16]!
    bfd4:	910003fd 	mov	x29, sp
    bfd8:	d10203ff 	sub	sp, sp, #0x80
    bfdc:	f81f83a0 	stur	x0, [x29, #-8]
    bfe0:	b81f43a1 	stur	w1, [x29, #-12]
    bfe4:	f81e83a2 	stur	x2, [x29, #-24]
    bfe8:	b81e43a3 	stur	w3, [x29, #-28]
    bfec:	b81e03a4 	stur	w4, [x29, #-32]
    bff0:	d13fa3e0 	sub	x0, sp, #0xfe8
    bff4:	d2856d01 	mov	x1, #0x2b68                	// #11112
    bff8:	f2a000c1 	movk	x1, #0x6, lsl #16
    bffc:	f2c00aa1 	movk	x1, #0x55, lsl #32
    c000:	f2e00001 	movk	x1, #0x0, lsl #48
    c004:	d2857d02 	mov	x2, #0x2be8                	// #11240
    c008:	f2a000c2 	movk	x2, #0x6, lsl #16
    c00c:	f2c00aa2 	movk	x2, #0x55, lsl #32
    c010:	f2e00002 	movk	x2, #0x0, lsl #48
    c014:	d2942991 	mov	x17, #0xa14c                	// #41292
    c018:	f2a031b1 	movk	x17, #0x18d, lsl #16
    c01c:	f2c00ab1 	movk	x17, #0x55, lsl #32
    c020:	f2e00011 	movk	x17, #0x0, lsl #48
    c024:	d63f0220 	blr	x17
    c028:	52800000 	mov	w0, #0x0                   	// #0
    c02c:	72a00000 	movk	w0, #0x0, lsl #16
    c030:	b85f43a1 	ldur	w1, [x29, #-12]
    c034:	6b01001f 	cmp	w0, w1
    c038:	5400046b 	b.lt	0xc0c4  // b.tstop
    c03c:	52800000 	mov	w0, #0x0                   	// #0
    c040:	72a00000 	movk	w0, #0x0, lsl #16
    c044:	b85e43a2 	ldur	w2, [x29, #-28]
    c048:	6b02001f 	cmp	w0, w2
    c04c:	540003cb 	b.lt	0xc0c4  // b.tstop
    c050:	52800000 	mov	w0, #0x0                   	// #0
    c054:	72a00000 	movk	w0, #0x0, lsl #16
    c058:	b85e03a3 	ldur	w3, [x29, #-32]
    c05c:	6b03001f 	cmp	w0, w3
    c060:	5400032b 	b.lt	0xc0c4  // b.tstop
    c064:	d42000e0 	brk	#0x7
    c068:	d4200500 	brk	#0x28
    c06c:	b85d43a4 	ldur	w4, [x29, #-44]
    c070:	6b00009f 	cmp	w4, w0
    c074:	5400028b 	b.lt	0xc0c4  // b.tstop
    c078:	d42000e0 	brk	#0x7
    c07c:	f85d83a5 	ldur	x5, [x29, #-40]
    c080:	710000bf 	cmp	w5, #0x0
    c084:	54000601 	b.ne	0xc144  // b.any
    c088:	b81d03a0 	stur	w0, [x29, #-48]
    c08c:	b81f43a1 	stur	w1, [x29, #-12]
    c090:	b81e43a2 	stur	w2, [x29, #-28]
    c094:	b81e03a3 	stur	w3, [x29, #-32]
    c098:	b81d43a4 	stur	w4, [x29, #-44]
    c09c:	f81d83a5 	stur	x5, [x29, #-40]
    c0a0:	d298b091 	mov	x17, #0xc584                	// #50564
    c0a4:	f2a031b1 	movk	x17, #0x18d, lsl #16
    c0a8:	f2c00ab1 	movk	x17, #0x55, lsl #32
    c0ac:	f2e00011 	movk	x17, #0x0, lsl #48
    c0b0:	d63f0220 	blr	x17
    c0b4:	f85d83a0 	ldur	x0, [x29, #-40]
    c0b8:	f8408001 	ldur	x1, [x0, #8]
    c0bc:	b85d43a2 	ldur	w2, [x29, #-44]
    c0c0:	6b01005f 	cmp	w2, w1
    c0c4:	5400018a 	b.ge	0xc0f4  // b.tcont
    c0c8:	d295b204 	mov	x4, #0xad90                	// #44432
    c0cc:	f2a000c4 	movk	x4, #0x6, lsl #16
    c0d0:	f2c00aa4 	movk	x4, #0x55, lsl #32
    c0d4:	f2e00004 	movk	x4, #0x0, lsl #48
    c0d8:	f8400083 	ldur	x3, [x4]
    c0dc:	f81d83a0 	stur	x0, [x29, #-40]
    c0e0:	b81d03a1 	stur	w1, [x29, #-48]
    c0e4:	b81d43a2 	stur	w2, [x29, #-44]
    c0e8:	f81c03a3 	stur	x3, [x29, #-64]
    c0ec:	f85c03a0 	ldur	x0, [x29, #-64]
    c0f0:	97ffdc9c 	bl	0x3360
    c0f4:	d4200880 	brk	#0x44
    c0f8:	d4200500 	brk	#0x28
    c0fc:	d4200500 	brk	#0x28
    c100:	528000e1 	mov	w1, #0x7                   	// #7
    c104:	72a00001 	movk	w1, #0x0, lsl #16
    c108:	d42001c0 	brk	#0xe
    c10c:	f85d83a2 	ldur	x2, [x29, #-40]
    c110:	f8410043 	ldur	x3, [x2, #16]
    c114:	d4200500 	brk	#0x28
    c118:	528000e4 	mov	w4, #0x7                   	// #7
    c11c:	72a00004 	movk	w4, #0x0, lsl #16
    c120:	d42001c0 	brk	#0xe
    c124:	d4200500 	brk	#0x28
    c128:	528000e5 	mov	w5, #0x7                   	// #7
    c12c:	72a00005 	movk	w5, #0x0, lsl #16
    c130:	d42001c0 	brk	#0xe
    c134:	f81c83a0 	stur	x0, [x29, #-56]
    c138:	b81d03a1 	stur	w1, [x29, #-48]
    c13c:	f81d83a2 	stur	x2, [x29, #-40]
    c140:	f81a83a3 	stur	x3, [x29, #-88]
    c144:	b819c3a4 	stur	w4, [x29, #-100]
    c148:	b81883a5 	stur	w5, [x29, #-120]
    c14c:	f85b83a0 	ldur	x0, [x29, #-72]
    c150:	b85d43a1 	ldur	w1, [x29, #-44]
    c154:	f85a83a2 	ldur	x2, [x29, #-88]
    c158:	b85d03a3 	ldur	w3, [x29, #-48]
    c15c:	b858c3a4 	ldur	w4, [x29, #-116]
    c160:	d2906d91 	mov	x17, #0x836c                	// #33644
    c164:	f2a031b1 	movk	x17, #0x18d, lsl #16
    c168:	f2c00ab1 	movk	x17, #0x55, lsl #32
    c16c:	f2e00011 	movk	x17, #0x0, lsl #48
    c170:	d63f0220 	blr	x17
    c174:	910203ff 	add	sp, sp, #0x80
    c178:	a8c17bfd 	ldp	x29, x30, [sp], #16
    c17c:	d65f03c0 	ret
    c180:	a9bf7bfd 	stp	x29, x30, [sp, #-16]!
    c184:	910003fd 	mov	x29, sp
    c188:	d10183ff 	sub	sp, sp, #0x60
    c18c:	52800003 	mov	w3, #0x0                   	// #0
    c190:	72a00003 	movk	w3, #0x0, lsl #16
    c194:	6b01007f 	cmp	w3, w1
    c198:	5400016a 	b.ge	0xc1c4  // b.tcont
    c19c:	d4200500 	brk	#0x28
    c1a0:	d42000e0 	brk	#0x7
    c1a4:	b85e43a4 	ldur	w4, [x29, #-28]
    c1a8:	2a0403e1 	mov	w1, w4
    c1ac:	52800003 	mov	w3, #0x0                   	// #0
    c1b0:	72a00003 	movk	w3, #0x0, lsl #16
    c1b4:	6b04007f 	cmp	w3, w4
    c1b8:	5400006a 	b.ge	0xc1c4  // b.tcont
    c1bc:	52800004 	mov	w4, #0x0                   	// #0
    c1c0:	72a00004 	movk	w4, #0x0, lsl #16
    c1c4:	2a0403e1 	mov	w1, w4
    c1c8:	7100005f 	cmp	w2, #0x0
    c1cc:	54000041 	b.ne	0xc1d4  // b.any
    c1d0:	d4200500 	brk	#0x28
    c1d4:	1400001e 	b	0xc24c
    c1d8:	f81f83a0 	stur	x0, [x29, #-8]
    c1dc:	b81f43a1 	stur	w1, [x29, #-12]
    c1e0:	f81e83a2 	stur	x2, [x29, #-24]
    c1e4:	b81e03a3 	stur	w3, [x29, #-32]
    c1e8:	b81e43a4 	stur	w4, [x29, #-28]
    c1ec:	d13fa3e0 	sub	x0, sp, #0xfe8
    c1f0:	d2876101 	mov	x1, #0x3b08                	// #15112
    c1f4:	f2a000c1 	movk	x1, #0x6, lsl #16
    c1f8:	f2c00aa1 	movk	x1, #0x55, lsl #32
    c1fc:	f2e00001 	movk	x1, #0x0, lsl #48
    c200:	d2851102 	mov	x2, #0x2888                	// #10376
    c204:	f2a000c2 	movk	x2, #0x6, lsl #16
    c208:	f2c00aa2 	movk	x2, #0x55, lsl #32
    c20c:	f2e00002 	movk	x2, #0x0, lsl #48
    c210:	d293ee91 	mov	x17, #0x9f74                	// #40820
    c214:	f2a031b1 	movk	x17, #0x18d, lsl #16
    c218:	f2c00ab1 	movk	x17, #0x55, lsl #32
    c21c:	f2e00011 	movk	x17, #0x0, lsl #48
    c220:	d63f0220 	blr	x17
    c224:	52800000 	mov	w0, #0x0                   	// #0
    c228:	72a00000 	movk	w0, #0x0, lsl #16
    c22c:	b85e03a1 	ldur	w1, [x29, #-32]
    c230:	6b01001f 	cmp	w0, w1
    c234:	5400004a 	b.ge	0xc23c  // b.tcont
    c238:	d4200500 	brk	#0x28
    c23c:	d42000e0 	brk	#0x7
    c240:	d4200500 	brk	#0x28
    c244:	6b00003f 	cmp	w1, w0
    c248:	5400002a 	b.ge	0xc24c  // b.tcont
    c24c:	d4200500 	brk	#0x28
    c250:	d4200100 	brk	#0x8
    c254:	52800002 	mov	w2, #0x0                   	// #0
    c258:	72a00002 	movk	w2, #0x0, lsl #16
    c25c:	6b01005f 	cmp	w2, w1
    c260:	5400024a 	b.ge	0xc2a8  // b.tcont
    c264:	b81dc3a0 	stur	w0, [x29, #-36]
    c268:	b81e03a1 	stur	w1, [x29, #-32]
    c26c:	b81d83a2 	stur	w2, [x29, #-40]
    c270:	d2857d00 	mov	x0, #0x2be8                	// #11240
    c274:	f2a000c0 	movk	x0, #0x6, lsl #16
    c278:	f2c00aa0 	movk	x0, #0x55, lsl #32
    c27c:	f2e00000 	movk	x0, #0x0, lsl #48
    c280:	d287fa11 	mov	x17, #0x3fd0                	// #16336
    c284:	f2a031b1 	movk	x17, #0x18d, lsl #16
    c288:	f2c00ab1 	movk	x17, #0x55, lsl #32
    c28c:	f2e00011 	movk	x17, #0x0, lsl #48
    c290:	d63f0220 	blr	x17
    c294:	f81d03a0 	stur	x0, [x29, #-48]
    c298:	f85d03a0 	ldur	x0, [x29, #-48]
    c29c:	97fffdd5 	bl	0xb9f0
    c2a0:	910183ff 	add	sp, sp, #0x60
    c2a4:	a8c17bfd 	ldp	x29, x30, [sp], #16
    c2a8:	d65f03c0 	ret
    c2ac:	d2857d00 	mov	x0, #0x2be8                	// #11240
    c2b0:	f2a000c0 	movk	x0, #0x6, lsl #16
    c2b4:	f2c00aa0 	movk	x0, #0x55, lsl #32
    c2b8:	f2e00000 	movk	x0, #0x0, lsl #48
    c2bc:	d287fa11 	mov	x17, #0x3fd0                	// #16336
    c2c0:	f2a031b1 	movk	x17, #0x18d, lsl #16
    c2c4:	f2c00ab1 	movk	x17, #0x55, lsl #32
    c2c8:	f2e00011 	movk	x17, #0x0, lsl #48
    c2cc:	d63f0220 	blr	x17
    c2d0:	f81d03a0 	stur	x0, [x29, #-48]
    c2d4:	f85d03a0 	ldur	x0, [x29, #-48]
    c2d8:	97fffdc6 	bl	0xb9f0
    c2dc:	f85e83a0 	ldur	x0, [x29, #-24]
    c2e0:	f85d03a1 	ldur	x1, [x29, #-48]
    c2e4:	f8180001 	stur	x1, [x0, #-128]
    c2e8:	f85f83a2 	ldur	x2, [x29, #-8]
    c2ec:	f8180041 	stur	x1, [x2, #-128]
    c2f0:	d4200500 	brk	#0x28
    c2f4:	d4200500 	brk	#0x28
    c2f8:	528000e3 	mov	w3, #0x7                   	// #7
    c2fc:	72a00003 	movk	w3, #0x0, lsl #16
    c300:	d42001c0 	brk	#0xe
    c304:	d4200500 	brk	#0x28
    c308:	528000e4 	mov	w4, #0x7                   	// #7
    c30c:	72a00004 	movk	w4, #0x0, lsl #16
    c310:	d42001c0 	brk	#0xe
    c314:	f81e83a0 	stur	x0, [x29, #-24]
    c318:	f81d03a1 	stur	x1, [x29, #-48]
    c31c:	f81f83a2 	stur	x2, [x29, #-8]
    c320:	b81d83a3 	stur	w3, [x29, #-40]
    c324:	b81a83a4 	stur	w4, [x29, #-88]
    c328:	f85c83a0 	ldur	x0, [x29, #-56]
    c32c:	b85dc3a1 	ldur	w1, [x29, #-36]
    c330:	b85ac3a2 	ldur	w2, [x29, #-84]
    c334:	97ffda03 	bl	0x2b40
    c338:	b85f43a1 	ldur	w1, [x29, #-12]
    c33c:	f85d03a2 	ldur	x2, [x29, #-48]
    c340:	b8000022 	stur	w2, [x1]
    c344:	910183ff 	add	sp, sp, #0x60
    c348:	a8c17bfd 	ldp	x29, x30, [sp], #16
    c34c:	d65f03c0 	ret
    c350:	a9bf7bfd 	stp	x29, x30, [sp, #-16]!
    c354:	910003fd 	mov	x29, sp
    c358:	d10083ff 	sub	sp, sp, #0x20
    c35c:	d42007c0 	brk	#0x3e
    c360:	d42007c0 	brk	#0x3e
    c364:	d4200400 	brk	#0x20
    c368:	910083ff 	add	sp, sp, #0x20
    c36c:	a8c17bfd 	ldp	x29, x30, [sp], #16
    c370:	d65f03c0 	ret
    c374:	d503201f 	nop
    c378:	d503201f 	nop
    c37c:	d503201f 	nop
    c380:	a9bf7bfd 	stp	x29, x30, [sp, #-16]!
    c384:	910003fd 	mov	x29, sp
    c388:	d10083ff 	sub	sp, sp, #0x20
    c38c:	d42007c0 	brk	#0x3e
    c390:	d42007c0 	brk	#0x3e
    c394:	d4200400 	brk	#0x20
    c398:	910083ff 	add	sp, sp, #0x20
    c39c:	a8c17bfd 	ldp	x29, x30, [sp], #16
    c3a0:	d65f03c0 	ret
    c3a4:	d503201f 	nop
    c3a8:	d503201f 	nop
    c3ac:	d503201f 	nop
    c3b0:	a9bf7bfd 	stp	x29, x30, [sp, #-16]!
    c3b4:	910003fd 	mov	x29, sp
    c3b8:	d10103ff 	sub	sp, sp, #0x40
    c3bc:	d2850d02 	mov	x2, #0x2868                	// #10344
    c3c0:	f2a000c2 	movk	x2, #0x6, lsl #16
    c3c4:	f2c00aa2 	movk	x2, #0x55, lsl #32
    c3c8:	f2e00002 	movk	x2, #0x0, lsl #48
    c3cc:	d2851103 	mov	x3, #0x2888                	// #10376
    c3d0:	f2a000c3 	movk	x3, #0x6, lsl #16
    c3d4:	f2c00aa3 	movk	x3, #0x55, lsl #32
    c3d8:	f2e00003 	movk	x3, #0x0, lsl #48
    c3dc:	6b02007f 	cmp	w3, w2
    c3e0:	54000321 	b.ne	0xc444  // b.any
    c3e4:	d4200500 	brk	#0x28
    c3e8:	52800004 	mov	w4, #0x0                   	// #0
    c3ec:	72a00004 	movk	w4, #0x0, lsl #16
    c3f0:	d4200500 	brk	#0x28
    c3f4:	7100003f 	cmp	w1, #0x0
    c3f8:	54000041 	b.ne	0xc400  // b.any
    c3fc:	aa1f03e5 	mov	x5, xzr
    c400:	14000001 	b	0xc404
    c404:	d4200440 	brk	#0x22
    c408:	f81f83a0 	stur	x0, [x29, #-8]
    c40c:	f81f03a1 	stur	x1, [x29, #-16]
    c410:	f81e83a2 	stur	x2, [x29, #-24]
    c414:	f81e03a3 	stur	x3, [x29, #-32]
    c418:	b81d43a4 	stur	w4, [x29, #-44]
    c41c:	f81c83a5 	stur	x5, [x29, #-56]
    c420:	f85d83a0 	ldur	x0, [x29, #-40]
    c424:	b85d43a1 	ldur	w1, [x29, #-44]
    c428:	b85d03a2 	ldur	w2, [x29, #-48]
    c42c:	f85c83a3 	ldur	x3, [x29, #-56]
    c430:	d2910791 	mov	x17, #0x883c                	// #34876
    c434:	f2a031b1 	movk	x17, #0x18d, lsl #16
    c438:	f2c00ab1 	movk	x17, #0x55, lsl #32
    c43c:	f2e00011 	movk	x17, #0x0, lsl #48
    c440:	d63f0220 	blr	x17
    c444:	14000016 	b	0xc49c
    c448:	d4200500 	brk	#0x28
    c44c:	52800000 	mov	w0, #0x0                   	// #0
    c450:	72a00000 	movk	w0, #0x0, lsl #16
    c454:	d4200500 	brk	#0x28
    c458:	f85f03a1 	ldur	x1, [x29, #-16]
    c45c:	7100003f 	cmp	w1, #0x0
    c460:	54000041 	b.ne	0xc468  // b.any
    c464:	aa1f03e2 	mov	x2, xzr
    c468:	14000001 	b	0xc46c
    c46c:	d4200440 	brk	#0x22
    c470:	b81d43a0 	stur	w0, [x29, #-44]
    c474:	f81f03a1 	stur	x1, [x29, #-16]
    c478:	f81c03a2 	stur	x2, [x29, #-64]
    c47c:	f85d83a0 	ldur	x0, [x29, #-40]
    c480:	b85d43a1 	ldur	w1, [x29, #-44]
    c484:	b85d03a2 	ldur	w2, [x29, #-48]
    c488:	f85c03a3 	ldur	x3, [x29, #-64]
    c48c:	d2913e91 	mov	x17, #0x89f4                	// #35316
    c490:	f2a031b1 	movk	x17, #0x18d, lsl #16
    c494:	f2c00ab1 	movk	x17, #0x55, lsl #32
    c498:	f2e00011 	movk	x17, #0x0, lsl #48
    c49c:	d63f0220 	blr	x17
    c4a0:	910103ff 	add	sp, sp, #0x40
    c4a4:	a8c17bfd 	ldp	x29, x30, [sp], #16
    c4a8:	d65f03c0 	ret
    c4ac:	d503201f 	nop
    c4b0:	a9bf7bfd 	stp	x29, x30, [sp, #-16]!
    c4b4:	910003fd 	mov	x29, sp
    c4b8:	d10203ff 	sub	sp, sp, #0x80
    c4bc:	52800003 	mov	w3, #0x0                   	// #0
    c4c0:	72a00003 	movk	w3, #0x0, lsl #16
    c4c4:	6b02007f 	cmp	w3, w2
    c4c8:	5400026a 	b.ge	0xc514  // b.tcont
    c4cc:	f81f83a0 	stur	x0, [x29, #-8]
    c4d0:	b81f43a1 	stur	w1, [x29, #-12]
    c4d4:	b81f03a2 	stur	w2, [x29, #-16]
    c4d8:	b81e83a3 	stur	w3, [x29, #-24]
    c4dc:	d2857d00 	mov	x0, #0x2be8                	// #11240
    c4e0:	f2a000c0 	movk	x0, #0x6, lsl #16
    c4e4:	f2c00aa0 	movk	x0, #0x55, lsl #32
    c4e8:	f2e00000 	movk	x0, #0x0, lsl #48
    c4ec:	d287fa11 	mov	x17, #0x3fd0                	// #16336
    c4f0:	f2a031b1 	movk	x17, #0x18d, lsl #16
    c4f4:	f2c00ab1 	movk	x17, #0x55, lsl #32
    c4f8:	f2e00011 	movk	x17, #0x0, lsl #48
    c4fc:	d63f0220 	blr	x17
    c500:	f81e03a0 	stur	x0, [x29, #-32]
    c504:	f85e03a0 	ldur	x0, [x29, #-32]
    c508:	97fffd3a 	bl	0xb9f0
    c50c:	910203ff 	add	sp, sp, #0x80
    c510:	a8c17bfd 	ldp	x29, x30, [sp], #16
    c514:	d65f03c0 	ret
    c518:	52800000 	mov	w0, #0x0                   	// #0
    c51c:	72a00000 	movk	w0, #0x0, lsl #16
    c520:	b85f43a1 	ldur	w1, [x29, #-12]
    c524:	6b01001f 	cmp	w0, w1
    c528:	5400016a 	b.ge	0xc554  // b.tcont
    c52c:	d4200500 	brk	#0x28
    c530:	d42000e0 	brk	#0x7
    c534:	b85ec3a2 	ldur	w2, [x29, #-20]
    c538:	2a0203e1 	mov	w1, w2
    c53c:	52800000 	mov	w0, #0x0                   	// #0
    c540:	72a00000 	movk	w0, #0x0, lsl #16
    c544:	6b02001f 	cmp	w0, w2
    c548:	5400006a 	b.ge	0xc554  // b.tcont
    c54c:	52800002 	mov	w2, #0x0                   	// #0
    c550:	72a00002 	movk	w2, #0x0, lsl #16
    c554:	2a0203e1 	mov	w1, w2
    c558:	d4200500 	brk	#0x28
    c55c:	6b00003f 	cmp	w1, w0
    c560:	540000ea 	b.ge	0xc57c  // b.tcont
    c564:	52800002 	mov	w2, #0x0                   	// #0
    c568:	72a00002 	movk	w2, #0x0, lsl #16
    c56c:	2a0203e1 	mov	w1, w2
    c570:	52800002 	mov	w2, #0x0                   	// #0
    c574:	72a00002 	movk	w2, #0x0, lsl #16
    c578:	b81f03a2 	stur	w2, [x29, #-16]
    c57c:	1400000e 	b	0xc5b4
    c580:	d42000e0 	brk	#0x7
    c584:	d4200500 	brk	#0x28
    c588:	6b00005f 	cmp	w2, w0
    c58c:	5400014a 	b.ge	0xc5b4  // b.tcont
    c590:	d4200500 	brk	#0x28
    c594:	d4200100 	brk	#0x8
    c598:	b81f03a2 	stur	w2, [x29, #-16]
    c59c:	52800000 	mov	w0, #0x0                   	// #0
    c5a0:	72a00000 	movk	w0, #0x0, lsl #16
    c5a4:	6b02001f 	cmp	w0, w2
    c5a8:	5400006a 	b.ge	0xc5b4  // b.tcont
    c5ac:	52800002 	mov	w2, #0x0                   	// #0
    c5b0:	72a00002 	movk	w2, #0x0, lsl #16
    c5b4:	b81f03a2 	stur	w2, [x29, #-16]
    c5b8:	52800000 	mov	w0, #0x0                   	// #0
    c5bc:	72a00000 	movk	w0, #0x0, lsl #16
    c5c0:	b85f03a3 	ldur	w3, [x29, #-16]
    c5c4:	6b03001f 	cmp	w0, w3
    c5c8:	54000261 	b.ne	0xc614  // b.any
    c5cc:	b81e83a0 	stur	w0, [x29, #-24]
    c5d0:	b81f43a1 	stur	w1, [x29, #-12]
    c5d4:	b81ec3a2 	stur	w2, [x29, #-20]
    c5d8:	b81f03a3 	stur	w3, [x29, #-16]
    c5dc:	d2857d00 	mov	x0, #0x2be8                	// #11240
    c5e0:	f2a000c0 	movk	x0, #0x6, lsl #16
    c5e4:	f2c00aa0 	movk	x0, #0x55, lsl #32
    c5e8:	f2e00000 	movk	x0, #0x0, lsl #48
    c5ec:	d287fa11 	mov	x17, #0x3fd0                	// #16336
    c5f0:	f2a031b1 	movk	x17, #0x18d, lsl #16
    c5f4:	f2c00ab1 	movk	x17, #0x55, lsl #32
    c5f8:	f2e00011 	movk	x17, #0x0, lsl #48
    c5fc:	d63f0220 	blr	x17
    c600:	f81e03a0 	stur	x0, [x29, #-32]
    c604:	f85e03a0 	ldur	x0, [x29, #-32]
    c608:	97fffcfa 	bl	0xb9f0
    c60c:	910203ff 	add	sp, sp, #0x80
    c610:	a8c17bfd 	ldp	x29, x30, [sp], #16
    c614:	d65f03c0 	ret
    c618:	d2857d00 	mov	x0, #0x2be8                	// #11240
    c61c:	f2a000c0 	movk	x0, #0x6, lsl #16
    c620:	f2c00aa0 	movk	x0, #0x55, lsl #32
    c624:	f2e00000 	movk	x0, #0x0, lsl #48
    c628:	d287fa11 	mov	x17, #0x3fd0                	// #16336
    c62c:	f2a031b1 	movk	x17, #0x18d, lsl #16
    c630:	f2c00ab1 	movk	x17, #0x55, lsl #32
    c634:	f2e00011 	movk	x17, #0x0, lsl #48
    c638:	d63f0220 	blr	x17
    c63c:	f81e03a0 	stur	x0, [x29, #-32]
    c640:	f85e03a0 	ldur	x0, [x29, #-32]
    c644:	97fffceb 	bl	0xb9f0
    c648:	d4200500 	brk	#0x28
    c64c:	d4200500 	brk	#0x28
    c650:	528000e0 	mov	w0, #0x7                   	// #7
    c654:	72a00000 	movk	w0, #0x0, lsl #16
    c658:	d42001c0 	brk	#0xe
    c65c:	d4200500 	brk	#0x28
    c660:	528000e1 	mov	w1, #0x7                   	// #7
    c664:	72a00001 	movk	w1, #0x0, lsl #16
    c668:	d42001c0 	brk	#0xe
    c66c:	b81e83a0 	stur	w0, [x29, #-24]
    c670:	b81b83a1 	stur	w1, [x29, #-72]
    c674:	f85d83a0 	ldur	x0, [x29, #-40]
    c678:	b85ec3a1 	ldur	w1, [x29, #-20]
    c67c:	b85bc3a2 	ldur	w2, [x29, #-68]
    c680:	97ffd930 	bl	0x2b40
    c684:	b85f43a1 	ldur	w1, [x29, #-12]
    c688:	f85e03a2 	ldur	x2, [x29, #-32]
    c68c:	b801c022 	stur	w2, [x1, #28]
    c690:	f85f83a3 	ldur	x3, [x29, #-8]
    c694:	f8018062 	stur	x2, [x3, #24]
    c698:	b85f03a4 	ldur	w4, [x29, #-16]
    c69c:	b8018082 	stur	w2, [x4, #24]
    c6a0:	d42000e0 	brk	#0x7
    c6a4:	d4200500 	brk	#0x28
    c6a8:	d4200500 	brk	#0x28
    c6ac:	528000e5 	mov	w5, #0x7                   	// #7
    c6b0:	72a00005 	movk	w5, #0x0, lsl #16
    c6b4:	d42001c0 	brk	#0xe
    c6b8:	d4200500 	brk	#0x28
    c6bc:	d4200500 	brk	#0x28
    c6c0:	528000e6 	mov	w6, #0x7                   	// #7
    c6c4:	72a00006 	movk	w6, #0x0, lsl #16
    c6c8:	d42001c0 	brk	#0xe
    c6cc:	d4200500 	brk	#0x28
    c6d0:	d4200500 	brk	#0x28
    c6d4:	d4200100 	brk	#0x8
    c6d8:	528000e7 	mov	w7, #0x7                   	// #7
    c6dc:	72a00007 	movk	w7, #0x0, lsl #16
    c6e0:	d42001c0 	brk	#0xe
    c6e4:	f81c03a0 	stur	x0, [x29, #-64]
    c6e8:	b81f43a1 	stur	w1, [x29, #-12]
    c6ec:	f81e03a2 	stur	x2, [x29, #-32]
    c6f0:	f81f83a3 	stur	x3, [x29, #-8]
    c6f4:	b81f03a4 	stur	w4, [x29, #-16]
    c6f8:	b81b83a5 	stur	w5, [x29, #-72]
    c6fc:	b819c3a6 	stur	w6, [x29, #-100]
    c700:	b81883a7 	stur	w7, [x29, #-120]
    c704:	f85c03a0 	ldur	x0, [x29, #-64]
    c708:	b85bc3a1 	ldur	w1, [x29, #-68]
    c70c:	f85a83a2 	ldur	x2, [x29, #-88]
    c710:	b85b83a3 	ldur	w3, [x29, #-72]
    c714:	b858c3a4 	ldur	w4, [x29, #-116]
    c718:	d2906d91 	mov	x17, #0x836c                	// #33644
    c71c:	f2a031b1 	movk	x17, #0x18d, lsl #16
    c720:	f2c00ab1 	movk	x17, #0x55, lsl #32
    c724:	f2e00011 	movk	x17, #0x0, lsl #48
    c728:	d63f0220 	blr	x17
    c72c:	f85f83a0 	ldur	x0, [x29, #-8]
    c730:	f8408001 	ldur	x1, [x0, #8]
    c734:	d4200100 	brk	#0x8
    c738:	f8198000 	stur	x0, [x0, #-104]
    c73c:	910203ff 	add	sp, sp, #0x80
    c740:	a8c17bfd 	ldp	x29, x30, [sp], #16
    c744:	d65f03c0 	ret
    c748:	d503201f 	nop
    c74c:	d503201f 	nop
    c750:	a9bf7bfd 	stp	x29, x30, [sp, #-16]!
    c754:	910003fd 	mov	x29, sp
    c758:	d10143ff 	sub	sp, sp, #0x50
    c75c:	f81f83a0 	stur	x0, [x29, #-8]
    c760:	d2878100 	mov	x0, #0x3c08                	// #15368
    c764:	f2a000c0 	movk	x0, #0x6, lsl #16
    c768:	f2c00aa0 	movk	x0, #0x55, lsl #32
    c76c:	f2e00000 	movk	x0, #0x0, lsl #48
    c770:	d287fa11 	mov	x17, #0x3fd0                	// #16336
    c774:	f2a031b1 	movk	x17, #0x18d, lsl #16
    c778:	f2c00ab1 	movk	x17, #0x55, lsl #32
    c77c:	f2e00011 	movk	x17, #0x0, lsl #48
    c780:	d63f0220 	blr	x17
    c784:	f81f03a0 	stur	x0, [x29, #-16]
    c788:	f85f03a0 	ldur	x0, [x29, #-16]
    c78c:	97ffd681 	bl	0x2190
    c790:	52800560 	mov	w0, #0x2b                  	// #43
    c794:	72a00000 	movk	w0, #0x0, lsl #16
    c798:	b81ec3a0 	stur	w0, [x29, #-20]
    c79c:	f85f03a0 	ldur	x0, [x29, #-16]
    c7a0:	b85ec3a1 	ldur	w1, [x29, #-20]
    c7a4:	97ffd75b 	bl	0x2510
    c7a8:	52800000 	mov	w0, #0x0                   	// #0
    c7ac:	72a00000 	movk	w0, #0x0, lsl #16
    c7b0:	d4200500 	brk	#0x28
    c7b4:	b85e83a1 	ldur	w1, [x29, #-24]
    c7b8:	6b00003f 	cmp	w1, w0
    c7bc:	5400062a 	b.ge	0xc880  // b.tcont
    c7c0:	b81e43a0 	stur	w0, [x29, #-28]
    c7c4:	f85f83a2 	ldur	x2, [x29, #-8]
    c7c8:	11000440 	add	w0, w2, #0x1
    c7cc:	52800003 	mov	w3, #0x0                   	// #0
    c7d0:	72a00003 	movk	w3, #0x0, lsl #16
    c7d4:	b85e43a4 	ldur	w4, [x29, #-28]
    c7d8:	6b03009f 	cmp	w4, w3
    c7dc:	5400028a 	b.ge	0xc82c  // b.tcont
    c7e0:	f85f03a5 	ldur	x5, [x29, #-16]
    c7e4:	710000bf 	cmp	w5, #0x0
    c7e8:	54000601 	b.ne	0xc8a8  // b.any
    c7ec:	b81ec3a0 	stur	w0, [x29, #-20]
    c7f0:	b81e83a1 	stur	w1, [x29, #-24]
    c7f4:	f81f83a2 	stur	x2, [x29, #-8]
    c7f8:	b81dc3a3 	stur	w3, [x29, #-36]
    c7fc:	b81e43a4 	stur	w4, [x29, #-28]
    c800:	f81f03a5 	stur	x5, [x29, #-16]
    c804:	d298b091 	mov	x17, #0xc584                	// #50564
    c808:	f2a031b1 	movk	x17, #0x18d, lsl #16
    c80c:	f2c00ab1 	movk	x17, #0x55, lsl #32
    c810:	f2e00011 	movk	x17, #0x0, lsl #48
    c814:	d63f0220 	blr	x17
    c818:	52800580 	mov	w0, #0x2c                  	// #44
    c81c:	72a00000 	movk	w0, #0x0, lsl #16
    c820:	b81e03a0 	stur	w0, [x29, #-32]
    c824:	f85f03a0 	ldur	x0, [x29, #-16]
    c828:	b85e03a1 	ldur	w1, [x29, #-32]
    c82c:	97ffd739 	bl	0x2510
    c830:	d4200500 	brk	#0x28
    c834:	f85f03a0 	ldur	x0, [x29, #-16]
    c838:	7100001f 	cmp	w0, #0x0
    c83c:	54000381 	b.ne	0xc8ac  // b.any
    c840:	f81f03a0 	stur	x0, [x29, #-16]
    c844:	d298b091 	mov	x17, #0xc584                	// #50564
    c848:	f2a031b1 	movk	x17, #0x18d, lsl #16
    c84c:	f2c00ab1 	movk	x17, #0x55, lsl #32
    c850:	f2e00011 	movk	x17, #0x0, lsl #48
    c854:	d63f0220 	blr	x17
    c858:	528000e0 	mov	w0, #0x7                   	// #7
    c85c:	72a00000 	movk	w0, #0x0, lsl #16
    c860:	d42001c0 	brk	#0xe
    c864:	d4200960 	brk	#0x4b
    c868:	d42007c0 	brk	#0x3e
    c86c:	d4200760 	brk	#0x3b
    c870:	b81dc3a0 	stur	w0, [x29, #-36]
    c874:	f85f03a0 	ldur	x0, [x29, #-16]
    c878:	f85c03a1 	ldur	x1, [x29, #-64]
    c87c:	97ffd65d 	bl	0x21f0
    c880:	17ffffcc 	b	0xc7b0
    c884:	f85f03a0 	ldur	x0, [x29, #-16]
    c888:	7100001f 	cmp	w0, #0x0
    c88c:	54000381 	b.ne	0xc8fc  // b.any
    c890:	f81f03a0 	stur	x0, [x29, #-16]
    c894:	d298b091 	mov	x17, #0xc584                	// #50564
    c898:	f2a031b1 	movk	x17, #0x18d, lsl #16
    c89c:	f2c00ab1 	movk	x17, #0x55, lsl #32
    c8a0:	f2e00011 	movk	x17, #0x0, lsl #48
    c8a4:	d63f0220 	blr	x17
    c8a8:	528004e0 	mov	w0, #0x27                  	// #39
    c8ac:	72a00000 	movk	w0, #0x0, lsl #16
    c8b0:	b81ec3a0 	stur	w0, [x29, #-20]
    c8b4:	f85f03a0 	ldur	x0, [x29, #-16]
    c8b8:	b85ec3a1 	ldur	w1, [x29, #-20]
    c8bc:	97ffd715 	bl	0x2510
    c8c0:	f85f03a0 	ldur	x0, [x29, #-16]
    c8c4:	97ffd7ff 	bl	0x28c0
    c8c8:	910143ff 	add	sp, sp, #0x50
    c8cc:	a8c17bfd 	ldp	x29, x30, [sp], #16
    c8d0:	d65f03c0 	ret
    c8d4:	d503201f 	nop
    c8d8:	d503201f 	nop
    c8dc:	d503201f 	nop
    c8e0:	a9bf7bfd 	stp	x29, x30, [sp, #-16]!
    c8e4:	910003fd 	mov	x29, sp
    c8e8:	d10143ff 	sub	sp, sp, #0x50
    c8ec:	d4200500 	brk	#0x28
    c8f0:	d4200500 	brk	#0x28
    c8f4:	b85f03a2 	ldur	w2, [x29, #-16]
    c8f8:	b85ec3a3 	ldur	w3, [x29, #-20]
    c8fc:	6b02007f 	cmp	w3, w2
    c900:	54000121 	b.ne	0xc924  // b.any
    c904:	d4200500 	brk	#0x28
    c908:	f81f83a0 	stur	x0, [x29, #-8]
    c90c:	781f63a1 	sturh	w1, [x29, #-10]
    c910:	b81f03a2 	stur	w2, [x29, #-16]
    c914:	b81ec3a3 	stur	w3, [x29, #-20]
    c918:	f85f83a0 	ldur	x0, [x29, #-8]
    c91c:	b85f03a1 	ldur	w1, [x29, #-16]
    c920:	940000b0 	bl	0xcbe0
    c924:	14000004 	b	0xc934
    c928:	f85f83a0 	ldur	x0, [x29, #-8]
    c92c:	f8408001 	ldur	x1, [x0, #8]
    c930:	11000401 	add	w1, w0, #0x1
    c934:	f8012000 	stur	x0, [x0, #18]
    c938:	d4200500 	brk	#0x28
    c93c:	d4200500 	brk	#0x28
    c940:	528000e1 	mov	w1, #0x7                   	// #7
    c944:	72a00001 	movk	w1, #0x0, lsl #16
    c948:	528000e2 	mov	w2, #0x7                   	// #7
    c94c:	72a00002 	movk	w2, #0x0, lsl #16
    c950:	d42001c0 	brk	#0xe
    c954:	d4200500 	brk	#0x28
    c958:	d4200500 	brk	#0x28
    c95c:	52800003 	mov	w3, #0x0                   	// #0
    c960:	72a00003 	movk	w3, #0x0, lsl #16
    c964:	d4200500 	brk	#0x28
    c968:	528000e4 	mov	w4, #0x7                   	// #7
    c96c:	72a00004 	movk	w4, #0x0, lsl #16
    c970:	d4200100 	brk	#0x8
    c974:	528000e4 	mov	w4, #0x7                   	// #7
    c978:	72a00004 	movk	w4, #0x0, lsl #16
    c97c:	d42001c0 	brk	#0xe
    c980:	f81f83a0 	stur	x0, [x29, #-8]
    c984:	b81f03a1 	stur	w1, [x29, #-16]
    c988:	b81ec3a2 	stur	w2, [x29, #-20]
    c98c:	b81bc3a3 	stur	w3, [x29, #-68]
    c990:	b81b43a4 	stur	w4, [x29, #-76]
    c994:	f85e03a0 	ldur	x0, [x29, #-32]
    c998:	b85f03a1 	ldur	w1, [x29, #-16]
    c99c:	f85c03a2 	ldur	x2, [x29, #-64]
    c9a0:	b85bc3a3 	ldur	w3, [x29, #-68]
    c9a4:	b85b83a4 	ldur	w4, [x29, #-72]
    c9a8:	d2906d91 	mov	x17, #0x836c                	// #33644
    c9ac:	f2a031b1 	movk	x17, #0x18d, lsl #16
    c9b0:	f2c00ab1 	movk	x17, #0x55, lsl #32
    c9b4:	f2e00011 	movk	x17, #0x0, lsl #48
    c9b8:	d63f0220 	blr	x17
    c9bc:	d4200500 	brk	#0x28
    c9c0:	52800000 	mov	w0, #0x0                   	// #0
    c9c4:	72a00000 	movk	w0, #0x0, lsl #16
    c9c8:	d42007c0 	brk	#0x3e
    c9cc:	528000e1 	mov	w1, #0x7                   	// #7
    c9d0:	72a00001 	movk	w1, #0x0, lsl #16
    c9d4:	d42001c0 	brk	#0xe
    c9d8:	d42009e0 	brk	#0x4f
    c9dc:	910143ff 	add	sp, sp, #0x50
    c9e0:	a8c17bfd 	ldp	x29, x30, [sp], #16
    c9e4:	d65f03c0 	ret
    c9e8:	d503201f 	nop
    c9ec:	d503201f 	nop
    c9f0:	a9bf7bfd 	stp	x29, x30, [sp, #-16]!
    c9f4:	910003fd 	mov	x29, sp
    c9f8:	d10183ff 	sub	sp, sp, #0x60
    c9fc:	52800003 	mov	w3, #0x0                   	// #0
    ca00:	72a00003 	movk	w3, #0x0, lsl #16
    ca04:	6b01007f 	cmp	w3, w1
    ca08:	5400018a 	b.ge	0xca38  // b.tcont
    ca0c:	d4200500 	brk	#0x28
    ca10:	d42000e0 	brk	#0x7
    ca14:	b85ec3a4 	ldur	w4, [x29, #-20]
    ca18:	2a0403e1 	mov	w1, w4
    ca1c:	52800003 	mov	w3, #0x0                   	// #0
    ca20:	72a00003 	movk	w3, #0x0, lsl #16
    ca24:	6b04007f 	cmp	w3, w4
    ca28:	5400006a 	b.ge	0xca34  // b.tcont
    ca2c:	52800004 	mov	w4, #0x0                   	// #0
    ca30:	72a00004 	movk	w4, #0x0, lsl #16
    ca34:	2a0403e1 	mov	w1, w4
    ca38:	14000005 	b	0xca4c
    ca3c:	d4200500 	brk	#0x28
    ca40:	6b03003f 	cmp	w1, w3
    ca44:	5400004a 	b.ge	0xca4c  // b.tcont
    ca48:	d4200500 	brk	#0x28
    ca4c:	2a0403e1 	mov	w1, w4
    ca50:	d4200500 	brk	#0x28
    ca54:	d4200500 	brk	#0x28
    ca58:	6b04007f 	cmp	w3, w4
    ca5c:	54000141 	b.ne	0xca84  // b.any
    ca60:	d4200500 	brk	#0x28
    ca64:	f81f83a0 	stur	x0, [x29, #-8]
    ca68:	b81f43a1 	stur	w1, [x29, #-12]
    ca6c:	781f23a2 	sturh	w2, [x29, #-14]
    ca70:	b81e83a3 	stur	w3, [x29, #-24]
    ca74:	b81ec3a4 	stur	w4, [x29, #-20]
    ca78:	f85f83a0 	ldur	x0, [x29, #-8]
    ca7c:	b85ec3a1 	ldur	w1, [x29, #-20]
    ca80:	94000058 	bl	0xcbe0
    ca84:	14000004 	b	0xca94
    ca88:	f85f83a0 	ldur	x0, [x29, #-8]
    ca8c:	f8408001 	ldur	x1, [x0, #8]
    ca90:	11000401 	add	w1, w0, #0x1
    ca94:	f8004000 	stur	x0, [x0, #4]
    ca98:	d4200500 	brk	#0x28
    ca9c:	d4200500 	brk	#0x28
    caa0:	528000e2 	mov	w2, #0x7                   	// #7
    caa4:	72a00002 	movk	w2, #0x0, lsl #16
    caa8:	d42000e0 	brk	#0x7
    caac:	528000e2 	mov	w2, #0x7                   	// #7
    cab0:	72a00002 	movk	w2, #0x0, lsl #16
    cab4:	d42001c0 	brk	#0xe
    cab8:	d4200500 	brk	#0x28
    cabc:	d4200500 	brk	#0x28
    cac0:	528000e3 	mov	w3, #0x7                   	// #7
    cac4:	72a00003 	movk	w3, #0x0, lsl #16
    cac8:	d42001c0 	brk	#0xe
    cacc:	d4200500 	brk	#0x28
    cad0:	d4200500 	brk	#0x28
    cad4:	d4200100 	brk	#0x8
    cad8:	528000e4 	mov	w4, #0x7                   	// #7
    cadc:	72a00004 	movk	w4, #0x0, lsl #16
    cae0:	d4200100 	brk	#0x8
    cae4:	528000e4 	mov	w4, #0x7                   	// #7
    cae8:	72a00004 	movk	w4, #0x0, lsl #16
    caec:	d42001c0 	brk	#0xe
    caf0:	f81f83a0 	stur	x0, [x29, #-8]
    caf4:	b81ec3a1 	stur	w1, [x29, #-20]
    caf8:	b81e83a2 	stur	w2, [x29, #-24]
    cafc:	b81c43a3 	stur	w3, [x29, #-60]
    cb00:	b81a43a4 	stur	w4, [x29, #-92]
    cb04:	f85e03a0 	ldur	x0, [x29, #-32]
    cb08:	b85ec3a1 	ldur	w1, [x29, #-20]
    cb0c:	f85d03a2 	ldur	x2, [x29, #-48]
    cb10:	b85e83a3 	ldur	w3, [x29, #-24]
    cb14:	b85a83a4 	ldur	w4, [x29, #-88]
    cb18:	d2906d91 	mov	x17, #0x836c                	// #33644
    cb1c:	f2a031b1 	movk	x17, #0x18d, lsl #16
    cb20:	f2c00ab1 	movk	x17, #0x55, lsl #32
    cb24:	f2e00011 	movk	x17, #0x0, lsl #48
    cb28:	d63f0220 	blr	x17
    cb2c:	d4200500 	brk	#0x28
    cb30:	d42007c0 	brk	#0x3e
    cb34:	528000e0 	mov	w0, #0x7                   	// #7
    cb38:	72a00000 	movk	w0, #0x0, lsl #16
    cb3c:	d42001c0 	brk	#0xe
    cb40:	d42009e0 	brk	#0x4f
    cb44:	910183ff 	add	sp, sp, #0x60
    cb48:	a8c17bfd 	ldp	x29, x30, [sp], #16
    cb4c:	d65f03c0 	ret
    cb50:	a9bf7bfd 	stp	x29, x30, [sp, #-16]!
    cb54:	910003fd 	mov	x29, sp
    cb58:	d10083ff 	sub	sp, sp, #0x20
    cb5c:	aa1f03e2 	mov	x2, xzr
    cb60:	f81f83a0 	stur	x0, [x29, #-8]
    cb64:	781f63a1 	sturh	w1, [x29, #-10]
    cb68:	f81e83a2 	stur	x2, [x29, #-24]
    cb6c:	f85f83a0 	ldur	x0, [x29, #-8]
    cb70:	785f63a1 	ldurh	w1, [x29, #-10]
    cb74:	f85e83a2 	ldur	x2, [x29, #-24]
    cb78:	9400004e 	bl	0xccb0
    cb7c:	52800201 	mov	w1, #0x10                  	// #16
    cb80:	72a00001 	movk	w1, #0x0, lsl #16
    cb84:	6b00003f 	cmp	w1, w0
    cb88:	54000041 	b.ne	0xcb90  // b.any
    cb8c:	110003e2 	mov	w2, wsp
    cb90:	14000001 	b	0xcb94
    cb94:	110007e2 	add	w2, wsp, #0x1
    cb98:	910083ff 	add	sp, sp, #0x20
    cb9c:	a8c17bfd 	ldp	x29, x30, [sp], #16
    cba0:	d65f03c0 	ret
    cba4:	d503201f 	nop
    cba8:	d503201f 	nop
    cbac:	d503201f 	nop
    cbb0:	a9bf7bfd 	stp	x29, x30, [sp, #-16]!
    cbb4:	910003fd 	mov	x29, sp
    cbb8:	d10183ff 	sub	sp, sp, #0x60
    cbbc:	aa1f03e2 	mov	x2, xzr
    cbc0:	f81f83a0 	stur	x0, [x29, #-8]
    cbc4:	781f63a1 	sturh	w1, [x29, #-10]
    cbc8:	f81e83a2 	stur	x2, [x29, #-24]
    cbcc:	f85f83a0 	ldur	x0, [x29, #-8]
    cbd0:	785f63a1 	ldurh	w1, [x29, #-10]
    cbd4:	f85e83a2 	ldur	x2, [x29, #-24]
    cbd8:	94000036 	bl	0xccb0
    cbdc:	52800001 	mov	w1, #0x0                   	// #0
    cbe0:	72a00001 	movk	w1, #0x0, lsl #16
    cbe4:	6b00003f 	cmp	w1, w0
    cbe8:	5400008a 	b.ge	0xcbf8  // b.tcont
    cbec:	110003e2 	mov	w2, wsp
    cbf0:	910183ff 	add	sp, sp, #0x60
    cbf4:	a8c17bfd 	ldp	x29, x30, [sp], #16
    cbf8:	d65f03c0 	ret
    cbfc:	f85f83a3 	ldur	x3, [x29, #-8]
    cc00:	f8408064 	ldur	x4, [x3, #8]
    cc04:	51000464 	sub	w4, w3, #0x1
    cc08:	f8180063 	stur	x3, [x3, #-128]
    cc0c:	d4200500 	brk	#0x28
    cc10:	d4200500 	brk	#0x28
    cc14:	528000e1 	mov	w1, #0x7                   	// #7
    cc18:	72a00001 	movk	w1, #0x0, lsl #16
    cc1c:	d42001c0 	brk	#0xe
    cc20:	d4200500 	brk	#0x28
    cc24:	d4200500 	brk	#0x28
    cc28:	528000e5 	mov	w5, #0x7                   	// #7
    cc2c:	72a00005 	movk	w5, #0x0, lsl #16
    cc30:	d42000e0 	brk	#0x7
    cc34:	528000e5 	mov	w5, #0x7                   	// #7
    cc38:	72a00005 	movk	w5, #0x0, lsl #16
    cc3c:	d42001c0 	brk	#0xe
    cc40:	d4200500 	brk	#0x28
    cc44:	d4200500 	brk	#0x28
    cc48:	d4200100 	brk	#0x8
    cc4c:	528000e6 	mov	w6, #0x7                   	// #7
    cc50:	72a00006 	movk	w6, #0x0, lsl #16
    cc54:	d42001c0 	brk	#0xe
    cc58:	b81f03a0 	stur	w0, [x29, #-16]
    cc5c:	b81e03a1 	stur	w1, [x29, #-32]
    cc60:	381df3a2 	sturb	w2, [x29, #-33]
    cc64:	f81f83a3 	stur	x3, [x29, #-8]
    cc68:	b81e43a4 	stur	w4, [x29, #-28]
    cc6c:	b81b43a5 	stur	w5, [x29, #-76]
    cc70:	b81a03a6 	stur	w6, [x29, #-96]
    cc74:	f85d03a0 	ldur	x0, [x29, #-48]
    cc78:	b85e43a1 	ldur	w1, [x29, #-28]
    cc7c:	f85c03a2 	ldur	x2, [x29, #-64]
    cc80:	b85e03a3 	ldur	w3, [x29, #-32]
    cc84:	b85a43a4 	ldur	w4, [x29, #-92]
    cc88:	d2906d91 	mov	x17, #0x836c                	// #33644
    cc8c:	f2a031b1 	movk	x17, #0x18d, lsl #16
    cc90:	f2c00ab1 	movk	x17, #0x55, lsl #32
    cc94:	f2e00011 	movk	x17, #0x0, lsl #48
    cc98:	d63f0220 	blr	x17
    cc9c:	110007e0 	add	w0, wsp, #0x1
    cca0:	910183ff 	add	sp, sp, #0x60
    cca4:	a8c17bfd 	ldp	x29, x30, [sp], #16
    cca8:	d65f03c0 	ret
    ccac:	d503201f 	nop
    ccb0:	a9bf7bfd 	stp	x29, x30, [sp, #-16]!
    ccb4:	910003fd 	mov	x29, sp
    ccb8:	d10103ff 	sub	sp, sp, #0x40
    ccbc:	7100005f 	cmp	w2, #0x0
    ccc0:	54000061 	b.ne	0xcccc  // b.any
    ccc4:	52800003 	mov	w3, #0x0                   	// #0
    ccc8:	72a00003 	movk	w3, #0x0, lsl #16
    cccc:	14000012 	b	0xcd14
    ccd0:	f81f83a0 	stur	x0, [x29, #-8]
    ccd4:	781f63a1 	sturh	w1, [x29, #-10]
    ccd8:	f81e83a2 	stur	x2, [x29, #-24]
    ccdc:	b81e43a3 	stur	w3, [x29, #-28]
    cce0:	d13fa3e0 	sub	x0, sp, #0xfe8
    cce4:	d2876101 	mov	x1, #0x3b08                	// #15112
    cce8:	f2a000c1 	movk	x1, #0x6, lsl #16
    ccec:	f2c00aa1 	movk	x1, #0x55, lsl #32
    ccf0:	f2e00001 	movk	x1, #0x0, lsl #48
    ccf4:	d2851102 	mov	x2, #0x2888                	// #10376
    ccf8:	f2a000c2 	movk	x2, #0x6, lsl #16
    ccfc:	f2c00aa2 	movk	x2, #0x55, lsl #32
    cd00:	f2e00002 	movk	x2, #0x0, lsl #48
    cd04:	d293ee91 	mov	x17, #0x9f74                	// #40820
    cd08:	f2a031b1 	movk	x17, #0x18d, lsl #16
    cd0c:	f2c00ab1 	movk	x17, #0x55, lsl #32
    cd10:	f2e00011 	movk	x17, #0x0, lsl #48
    cd14:	d63f0220 	blr	x17
    cd18:	52800000 	mov	w0, #0x0                   	// #0
    cd1c:	72a00000 	movk	w0, #0x0, lsl #16
    cd20:	b85e43a1 	ldur	w1, [x29, #-28]
    cd24:	6b01001f 	cmp	w0, w1
    cd28:	5400016a 	b.ge	0xcd54  // b.tcont
    cd2c:	d4200500 	brk	#0x28
    cd30:	d42000e0 	brk	#0x7
    cd34:	b85e03a2 	ldur	w2, [x29, #-32]
    cd38:	2a0203e1 	mov	w1, w2
    cd3c:	52800000 	mov	w0, #0x0                   	// #0
    cd40:	72a00000 	movk	w0, #0x0, lsl #16
    cd44:	6b02001f 	cmp	w0, w2
    cd48:	5400006a 	b.ge	0xcd54  // b.tcont
    cd4c:	52800002 	mov	w2, #0x0                   	// #0
    cd50:	72a00002 	movk	w2, #0x0, lsl #16
    cd54:	2a0203e1 	mov	w1, w2
    cd58:	2a0103e2 	mov	w2, w1
    cd5c:	d4200500 	brk	#0x28
    cd60:	6b02001f 	cmp	w0, w2
    cd64:	5400022a 	b.ge	0xcda8  // b.tcont
    cd68:	b81d83a2 	stur	w2, [x29, #-40]
    cd6c:	f85f83a3 	ldur	x3, [x29, #-8]
    cd70:	11000462 	add	w2, w3, #0x1
    cd74:	d4200500 	brk	#0x28
    cd78:	528000e4 	mov	w4, #0x7                   	// #7
    cd7c:	72a00004 	movk	w4, #0x0, lsl #16
    cd80:	d42001c0 	brk	#0xe
    cd84:	d4200960 	brk	#0x4b
    cd88:	d42007c0 	brk	#0x3e
    cd8c:	785c23a5 	ldurh	w5, [x29, #-62]
    cd90:	785f63a6 	ldurh	w6, [x29, #-10]
    cd94:	6b0500df 	cmp	w6, w5
    cd98:	54000061 	b.ne	0xcda4  // b.any
    cd9c:	910103ff 	add	sp, sp, #0x40
    cda0:	a8c17bfd 	ldp	x29, x30, [sp], #16
    cda4:	d65f03c0 	ret
    cda8:	17ffffed 	b	0xcd5c
    cdac:	52800202 	mov	w2, #0x10                  	// #16
    cdb0:	72a00002 	movk	w2, #0x0, lsl #16
    cdb4:	910103ff 	add	sp, sp, #0x40
    cdb8:	a8c17bfd 	ldp	x29, x30, [sp], #16
    cdbc:	d65f03c0 	ret
    cdc0:	a9bf7bfd 	stp	x29, x30, [sp, #-16]!
    cdc4:	910003fd 	mov	x29, sp
    cdc8:	d10103ff 	sub	sp, sp, #0x40
    cdcc:	d4200500 	brk	#0x28
    cdd0:	7100005f 	cmp	w2, #0x0
    cdd4:	54000240 	b.eq	0xce1c  // b.none
    cdd8:	f81f83a0 	stur	x0, [x29, #-8]
    cddc:	781f63a1 	sturh	w1, [x29, #-10]
    cde0:	f81e83a2 	stur	x2, [x29, #-24]
    cde4:	d13fa3e0 	sub	x0, sp, #0xfe8
    cde8:	d2876101 	mov	x1, #0x3b08                	// #15112
    cdec:	f2a000c1 	movk	x1, #0x6, lsl #16
    cdf0:	f2c00aa1 	movk	x1, #0x55, lsl #32
    cdf4:	f2e00001 	movk	x1, #0x0, lsl #48
    cdf8:	d2851102 	mov	x2, #0x2888                	// #10376
    cdfc:	f2a000c2 	movk	x2, #0x6, lsl #16
    ce00:	f2c00aa2 	movk	x2, #0x55, lsl #32
    ce04:	f2e00002 	movk	x2, #0x0, lsl #48
    ce08:	d293ee91 	mov	x17, #0x9f74                	// #40820
    ce0c:	f2a031b1 	movk	x17, #0x18d, lsl #16
    ce10:	f2c00ab1 	movk	x17, #0x55, lsl #32
    ce14:	f2e00011 	movk	x17, #0x0, lsl #48
    ce18:	d63f0220 	blr	x17
    ce1c:	14000003 	b	0xce28
    ce20:	528000e0 	mov	w0, #0x7                   	// #7
    ce24:	72a00000 	movk	w0, #0x0, lsl #16
    ce28:	d4200100 	brk	#0x8
    ce2c:	b85e03a1 	ldur	w1, [x29, #-32]
    ce30:	b85e43a2 	ldur	w2, [x29, #-28]
    ce34:	6b01005f 	cmp	w2, w1
    ce38:	540000ab 	b.lt	0xce4c  // b.tstop
    ce3c:	528000e3 	mov	w3, #0x7                   	// #7
    ce40:	72a00003 	movk	w3, #0x0, lsl #16
    ce44:	d4200100 	brk	#0x8
    ce48:	2a0003e1 	mov	w1, w0
    ce4c:	14000006 	b	0xce64
    ce50:	52800003 	mov	w3, #0x0                   	// #0
    ce54:	72a00003 	movk	w3, #0x0, lsl #16
    ce58:	6b01007f 	cmp	w3, w1
    ce5c:	5400004a 	b.ge	0xce64  // b.tcont
    ce60:	d42000e0 	brk	#0x7
    ce64:	2a0003e1 	mov	w1, w0
    ce68:	52800003 	mov	w3, #0x0                   	// #0
    ce6c:	72a00003 	movk	w3, #0x0, lsl #16
    ce70:	6b01007f 	cmp	w3, w1
    ce74:	5400020b 	b.lt	0xceb4  // b.tstop
    ce78:	d4200500 	brk	#0x28
    ce7c:	528000e3 	mov	w3, #0x7                   	// #7
    ce80:	72a00003 	movk	w3, #0x0, lsl #16
    ce84:	d42001c0 	brk	#0xe
    ce88:	d4200960 	brk	#0x4b
    ce8c:	d42007c0 	brk	#0x3e
    ce90:	785ce3a4 	ldurh	w4, [x29, #-50]
    ce94:	785f63a5 	ldurh	w5, [x29, #-10]
    ce98:	6b0400bf 	cmp	w5, w4
    ce9c:	54000061 	b.ne	0xcea8  // b.any
    cea0:	910103ff 	add	sp, sp, #0x40
    cea4:	a8c17bfd 	ldp	x29, x30, [sp], #16
    cea8:	d65f03c0 	ret
    ceac:	f85f83a6 	ldur	x6, [x29, #-8]
    ceb0:	510004c1 	sub	w1, w6, #0x1
    ceb4:	17ffffec 	b	0xce64
    ceb8:	52800200 	mov	w0, #0x10                  	// #16
    cebc:	72a00000 	movk	w0, #0x0, lsl #16
    cec0:	910103ff 	add	sp, sp, #0x40
    cec4:	a8c17bfd 	ldp	x29, x30, [sp], #16
    cec8:	d65f03c0 	ret
    cecc:	d503201f 	nop
    ced0:	a9bf7bfd 	stp	x29, x30, [sp, #-16]!
    ced4:	910003fd 	mov	x29, sp
    ced8:	d10143ff 	sub	sp, sp, #0x50
    cedc:	f81f83a0 	stur	x0, [x29, #-8]
    cee0:	d2857d00 	mov	x0, #0x2be8                	// #11240
    cee4:	f2a000c0 	movk	x0, #0x6, lsl #16
    cee8:	f2c00aa0 	movk	x0, #0x55, lsl #32
    ceec:	f2e00000 	movk	x0, #0x0, lsl #48
    cef0:	d287fa11 	mov	x17, #0x3fd0                	// #16336
    cef4:	f2a031b1 	movk	x17, #0x18d, lsl #16
    cef8:	f2c00ab1 	movk	x17, #0x55, lsl #32
    cefc:	f2e00011 	movk	x17, #0x0, lsl #48
    cf00:	d63f0220 	blr	x17
    cf04:	f81f03a0 	stur	x0, [x29, #-16]
    cf08:	f85f03a0 	ldur	x0, [x29, #-16]
    cf0c:	97fffab9 	bl	0xb9f0
    cf10:	d4200500 	brk	#0x28
    cf14:	f85f03a1 	ldur	x1, [x29, #-16]
    cf18:	f85f83a2 	ldur	x2, [x29, #-8]
    cf1c:	f8012041 	stur	x1, [x2, #18]
    cf20:	d4200500 	brk	#0x28
    cf24:	d4200500 	brk	#0x28
    cf28:	528000e3 	mov	w3, #0x7                   	// #7
    cf2c:	72a00003 	movk	w3, #0x0, lsl #16
    cf30:	d42001c0 	brk	#0xe
    cf34:	f81f03a1 	stur	x1, [x29, #-16]
    cf38:	f81f83a2 	stur	x2, [x29, #-8]
    cf3c:	b81d43a3 	stur	w3, [x29, #-44]
    cf40:	b85ec3a0 	ldur	w0, [x29, #-20]
    cf44:	d2905f91 	mov	x17, #0x82fc                	// #33532
    cf48:	f2a031b1 	movk	x17, #0x18d, lsl #16
    cf4c:	f2c00ab1 	movk	x17, #0x55, lsl #32
    cf50:	f2e00011 	movk	x17, #0x0, lsl #48
    cf54:	d63f0220 	blr	x17
    cf58:	f85f03a1 	ldur	x1, [x29, #-16]
    cf5c:	f8180021 	stur	x1, [x1, #-128]
    cf60:	d4200500 	brk	#0x28
    cf64:	f8410022 	ldur	x2, [x1, #16]
    cf68:	52800003 	mov	w3, #0x0                   	// #0
    cf6c:	72a00003 	movk	w3, #0x0, lsl #16
    cf70:	d4200500 	brk	#0x28
    cf74:	52800004 	mov	w4, #0x0                   	// #0
    cf78:	72a00004 	movk	w4, #0x0, lsl #16
    cf7c:	d4200500 	brk	#0x28
    cf80:	528000e5 	mov	w5, #0x7                   	// #7
    cf84:	72a00005 	movk	w5, #0x0, lsl #16
    cf88:	d42001c0 	brk	#0xe
    cf8c:	f81d83a0 	stur	x0, [x29, #-40]
    cf90:	f81f03a1 	stur	x1, [x29, #-16]
    cf94:	f81c03a2 	stur	x2, [x29, #-64]
    cf98:	b81ec3a3 	stur	w3, [x29, #-20]
    cf9c:	b81d43a4 	stur	w4, [x29, #-44]
    cfa0:	b81b03a5 	stur	w5, [x29, #-80]
    cfa4:	f85c03a0 	ldur	x0, [x29, #-64]
    cfa8:	b85ec3a1 	ldur	w1, [x29, #-20]
    cfac:	f85b83a2 	ldur	x2, [x29, #-72]
    cfb0:	b85d43a3 	ldur	w3, [x29, #-44]
    cfb4:	b85b43a4 	ldur	w4, [x29, #-76]
    cfb8:	d2906d91 	mov	x17, #0x836c                	// #33644
    cfbc:	f2a031b1 	movk	x17, #0x18d, lsl #16
    cfc0:	f2c00ab1 	movk	x17, #0x55, lsl #32
    cfc4:	f2e00011 	movk	x17, #0x0, lsl #48
    cfc8:	d63f0220 	blr	x17
    cfcc:	910143ff 	add	sp, sp, #0x50
    cfd0:	a8c17bfd 	ldp	x29, x30, [sp], #16
    cfd4:	d65f03c0 	ret
    cfd8:	d503201f 	nop
    cfdc:	d503201f 	nop
    cfe0:	a9bf7bfd 	stp	x29, x30, [sp, #-16]!
    cfe4:	910003fd 	mov	x29, sp
    cfe8:	d10043ff 	sub	sp, sp, #0x10
    cfec:	f81f83a0 	stur	x0, [x29, #-8]
    cff0:	d28a4100 	mov	x0, #0x5208                	// #21000
    cff4:	f2a000c0 	movk	x0, #0x6, lsl #16
    cff8:	f2c00aa0 	movk	x0, #0x55, lsl #32
    cffc:	f2e00000 	movk	x0, #0x0, lsl #48
    d000:	d287fa11 	mov	x17, #0x3fd0                	// #16336
    d004:	f2a031b1 	movk	x17, #0x18d, lsl #16
    d008:	f2c00ab1 	movk	x17, #0x55, lsl #32
    d00c:	f2e00011 	movk	x17, #0x0, lsl #48
    d010:	d63f0220 	blr	x17
    d014:	f81f03a0 	stur	x0, [x29, #-16]
    d018:	f85f03a0 	ldur	x0, [x29, #-16]
    d01c:	f85f83a1 	ldur	x1, [x29, #-8]
    d020:	9400005c 	bl	0xd190
    d024:	910043ff 	add	sp, sp, #0x10
    d028:	a8c17bfd 	ldp	x29, x30, [sp], #16
    d02c:	d65f03c0 	ret
    d030:	a9bf7bfd 	stp	x29, x30, [sp, #-16]!
    d034:	910003fd 	mov	x29, sp
    d038:	d10043ff 	sub	sp, sp, #0x10
    d03c:	f81f83a0 	stur	x0, [x29, #-8]
    d040:	d28a4900 	mov	x0, #0x5248                	// #21064
    d044:	f2a000c0 	movk	x0, #0x6, lsl #16
    d048:	f2c00aa0 	movk	x0, #0x55, lsl #32
    d04c:	f2e00000 	movk	x0, #0x0, lsl #48
    d050:	d287fa11 	mov	x17, #0x3fd0                	// #16336
    d054:	f2a031b1 	movk	x17, #0x18d, lsl #16
    d058:	f2c00ab1 	movk	x17, #0x55, lsl #32
    d05c:	f2e00011 	movk	x17, #0x0, lsl #48
    d060:	d63f0220 	blr	x17
    d064:	f81f03a0 	stur	x0, [x29, #-16]
    d068:	f85f03a0 	ldur	x0, [x29, #-16]
    d06c:	f85f83a1 	ldur	x1, [x29, #-8]
    d070:	940000cc 	bl	0xd3a0
    d074:	910043ff 	add	sp, sp, #0x10
    d078:	a8c17bfd 	ldp	x29, x30, [sp], #16
    d07c:	d65f03c0 	ret
    d080:	a9bf7bfd 	stp	x29, x30, [sp, #-16]!
    d084:	910003fd 	mov	x29, sp
    d088:	d10183ff 	sub	sp, sp, #0x60
    d08c:	f81f83a0 	stur	x0, [x29, #-8]
    d090:	f81f03a1 	stur	x1, [x29, #-16]
    d094:	d285e900 	mov	x0, #0x2f48                	// #12104
    d098:	f2a000c0 	movk	x0, #0x6, lsl #16
    d09c:	f2c00aa0 	movk	x0, #0x55, lsl #32
    d0a0:	f2e00000 	movk	x0, #0x0, lsl #48
    d0a4:	d287fa11 	mov	x17, #0x3fd0                	// #16336
    d0a8:	f2a031b1 	movk	x17, #0x18d, lsl #16
    d0ac:	f2c00ab1 	movk	x17, #0x55, lsl #32
    d0b0:	f2e00011 	movk	x17, #0x0, lsl #48
    d0b4:	d63f0220 	blr	x17
    d0b8:	f81e83a0 	stur	x0, [x29, #-24]
    d0bc:	f85e83a0 	ldur	x0, [x29, #-24]
    d0c0:	94000084 	bl	0xd2d0
    d0c4:	d4200500 	brk	#0x28
    d0c8:	52800000 	mov	w0, #0x0                   	// #0
    d0cc:	72a00000 	movk	w0, #0x0, lsl #16
    d0d0:	b85e43a1 	ldur	w1, [x29, #-28]
    d0d4:	6b00003f 	cmp	w1, w0
    d0d8:	5400012a 	b.ge	0xd0fc  // b.tcont
    d0dc:	d4200500 	brk	#0x28
    d0e0:	528000e0 	mov	w0, #0x7                   	// #7
    d0e4:	72a00000 	movk	w0, #0x0, lsl #16
    d0e8:	d4200100 	brk	#0x8
    d0ec:	b81e03a0 	stur	w0, [x29, #-32]
    d0f0:	b81e43a1 	stur	w1, [x29, #-28]
    d0f4:	f85e83a0 	ldur	x0, [x29, #-24]
    d0f8:	b85e43a1 	ldur	w1, [x29, #-28]
    d0fc:	94000025 	bl	0xd190
    d100:	52800000 	mov	w0, #0x0                   	// #0
    d104:	72a00000 	movk	w0, #0x0, lsl #16
    d108:	d4200500 	brk	#0x28
    d10c:	b85e03a1 	ldur	w1, [x29, #-32]
    d110:	6b00003f 	cmp	w1, w0
    d114:	540004aa 	b.ge	0xd1a8  // b.tcont
    d118:	b81dc3a0 	stur	w0, [x29, #-36]
    d11c:	f85f83a2 	ldur	x2, [x29, #-8]
    d120:	11000440 	add	w0, w2, #0x1
    d124:	f85e83a3 	ldur	x3, [x29, #-24]
    d128:	7100007f 	cmp	w3, #0x0
    d12c:	54000501 	b.ne	0xd1cc  // b.any
    d130:	b81e43a0 	stur	w0, [x29, #-28]
    d134:	b81e03a1 	stur	w1, [x29, #-32]
    d138:	f81f83a2 	stur	x2, [x29, #-8]
    d13c:	f81e83a3 	stur	x3, [x29, #-24]
    d140:	d298b091 	mov	x17, #0xc584                	// #50564
    d144:	f2a031b1 	movk	x17, #0x18d, lsl #16
    d148:	f2c00ab1 	movk	x17, #0x55, lsl #32
    d14c:	f2e00011 	movk	x17, #0x0, lsl #48
    d150:	d63f0220 	blr	x17
    d154:	f85e83a0 	ldur	x0, [x29, #-24]
    d158:	f8410001 	ldur	x1, [x0, #16]
    d15c:	d4200500 	brk	#0x28
    d160:	f85f03a2 	ldur	x2, [x29, #-16]
    d164:	7100005f 	cmp	w2, #0x0
    d168:	54000481 	b.ne	0xd1f8  // b.any
    d16c:	f81e83a0 	stur	x0, [x29, #-24]
    d170:	f81d03a1 	stur	x1, [x29, #-48]
    d174:	f81f03a2 	stur	x2, [x29, #-16]
    d178:	d298b091 	mov	x17, #0xc584                	// #50564
    d17c:	f2a031b1 	movk	x17, #0x18d, lsl #16
    d180:	f2c00ab1 	movk	x17, #0x55, lsl #32
    d184:	f2e00011 	movk	x17, #0x0, lsl #48
    d188:	d63f0220 	blr	x17
    d18c:	528000e0 	mov	w0, #0x7                   	// #7
    d190:	72a00000 	movk	w0, #0x0, lsl #16
    d194:	d42001c0 	brk	#0xe
    d198:	d4200960 	brk	#0x4b
    d19c:	d42007c0 	brk	#0x3e
    d1a0:	d4200400 	brk	#0x20
    d1a4:	d4200a20 	brk	#0x51
    d1a8:	17ffffd8 	b	0xd108
    d1ac:	110007e1 	add	w1, wsp, #0x1
    d1b0:	d4200ae0 	brk	#0x57
    d1b4:	b81bc3a0 	stur	w0, [x29, #-68]
    d1b8:	381af3a1 	sturb	w1, [x29, #-81]
    d1bc:	f85e83a0 	ldur	x0, [x29, #-24]
    d1c0:	f85a03a1 	ldur	x1, [x29, #-96]
    d1c4:	94000067 	bl	0xd360
    d1c8:	910183ff 	add	sp, sp, #0x60
    d1cc:	a8c17bfd 	ldp	x29, x30, [sp], #16
    d1d0:	d65f03c0 	ret
    d1d4:	d503201f 	nop
    d1d8:	d503201f 	nop
    d1dc:	d503201f 	nop
    d1e0:	a9bf7bfd 	stp	x29, x30, [sp, #-16]!
    d1e4:	910003fd 	mov	x29, sp
    d1e8:	d10103ff 	sub	sp, sp, #0x40
    d1ec:	f81f83a0 	stur	x0, [x29, #-8]
    d1f0:	f81f03a1 	stur	x1, [x29, #-16]
    d1f4:	d2857d00 	mov	x0, #0x2be8                	// #11240
    d1f8:	f2a000c0 	movk	x0, #0x6, lsl #16
    d1fc:	f2c00aa0 	movk	x0, #0x55, lsl #32
    d200:	f2e00000 	movk	x0, #0x0, lsl #48
    d204:	d287fa11 	mov	x17, #0x3fd0                	// #16336
    d208:	f2a031b1 	movk	x17, #0x18d, lsl #16
    d20c:	f2c00ab1 	movk	x17, #0x55, lsl #32
    d210:	f2e00011 	movk	x17, #0x0, lsl #48
    d214:	d63f0220 	blr	x17
    d218:	f81e83a0 	stur	x0, [x29, #-24]
    d21c:	f85e83a0 	ldur	x0, [x29, #-24]
    d220:	97fff9f4 	bl	0xb9f0
    d224:	52800000 	mov	w0, #0x0                   	// #0
    d228:	72a00000 	movk	w0, #0x0, lsl #16
    d22c:	d4200500 	brk	#0x28
    d230:	b85e03a1 	ldur	w1, [x29, #-32]
    d234:	6b00003f 	cmp	w1, w0
    d238:	5400050a 	b.ge	0xd2d8  // b.tcont
    d23c:	b81dc3a0 	stur	w0, [x29, #-36]
    d240:	f85f83a2 	ldur	x2, [x29, #-8]
    d244:	11000440 	add	w0, w2, #0x1
    d248:	d4200500 	brk	#0x28
    d24c:	528000e3 	mov	w3, #0x7                   	// #7
    d250:	72a00003 	movk	w3, #0x0, lsl #16
    d254:	d42001c0 	brk	#0xe
    d258:	d4200960 	brk	#0x4b
    d25c:	d42007c0 	brk	#0x3e
    d260:	f85f03a4 	ldur	x4, [x29, #-16]
    d264:	7100009f 	cmp	w4, #0x0
    d268:	54000581 	b.ne	0xd318  // b.any
    d26c:	b81e43a0 	stur	w0, [x29, #-28]
    d270:	b81e03a1 	stur	w1, [x29, #-32]
    d274:	f81f83a2 	stur	x2, [x29, #-8]
    d278:	b81cc3a3 	stur	w3, [x29, #-52]
    d27c:	f81f03a4 	stur	x4, [x29, #-16]
    d280:	d298b091 	mov	x17, #0xc584                	// #50564
    d284:	f2a031b1 	movk	x17, #0x18d, lsl #16
    d288:	f2c00ab1 	movk	x17, #0x55, lsl #32
    d28c:	f2e00011 	movk	x17, #0x0, lsl #48
    d290:	d63f0220 	blr	x17
    d294:	d4200400 	brk	#0x20
    d298:	385c93a0 	ldurb	w0, [x29, #-55]
    d29c:	7100001f 	cmp	w0, #0x0
    d2a0:	540001a0 	b.eq	0xd2d4  // b.none
    d2a4:	f85e83a1 	ldur	x1, [x29, #-24]
    d2a8:	7100003f 	cmp	w1, #0x0
    d2ac:	54000401 	b.ne	0xd32c  // b.any
    d2b0:	381c93a0 	sturb	w0, [x29, #-55]
    d2b4:	f81e83a1 	stur	x1, [x29, #-24]
    d2b8:	d298b091 	mov	x17, #0xc584                	// #50564
    d2bc:	f2a031b1 	movk	x17, #0x18d, lsl #16
    d2c0:	f2c00ab1 	movk	x17, #0x55, lsl #32
    d2c4:	f2e00011 	movk	x17, #0x0, lsl #48
    d2c8:	d63f0220 	blr	x17
    d2cc:	f85e83a0 	ldur	x0, [x29, #-24]
    d2d0:	785ca3a1 	ldurh	w1, [x29, #-54]
    d2d4:	97fffab3 	bl	0xbda0
    d2d8:	17ffffd5 	b	0xd22c
    d2dc:	910103ff 	add	sp, sp, #0x40
    d2e0:	a8c17bfd 	ldp	x29, x30, [sp], #16
    d2e4:	d65f03c0 	ret
    d2e8:	d503201f 	nop
    d2ec:	d503201f 	nop
    d2f0:	a9bf7bfd 	stp	x29, x30, [sp, #-16]!
    d2f4:	910003fd 	mov	x29, sp
    d2f8:	d10103ff 	sub	sp, sp, #0x40
    d2fc:	d4200500 	brk	#0x28
    d300:	b85f03a2 	ldur	w2, [x29, #-16]
    d304:	6b02003f 	cmp	w1, w2
    d308:	5400016a 	b.ge	0xd334  // b.tcont
    d30c:	528000e3 	mov	w3, #0x7                   	// #7
    d310:	72a00003 	movk	w3, #0x0, lsl #16
    d314:	d4200100 	brk	#0x8
    d318:	f81f83a0 	stur	x0, [x29, #-8]
    d31c:	b81f43a1 	stur	w1, [x29, #-12]
    d320:	b81f03a2 	stur	w2, [x29, #-16]
    d324:	b81ec3a3 	stur	w3, [x29, #-20]
    d328:	f85f83a0 	ldur	x0, [x29, #-8]
    d32c:	b85f03a1 	ldur	w1, [x29, #-16]
    d330:	9400002c 	bl	0xd3e0
    d334:	14000020 	b	0xd3b4
    d338:	d4200500 	brk	#0x28
    d33c:	b85f43a0 	ldur	w0, [x29, #-12]
    d340:	b85f03a1 	ldur	w1, [x29, #-16]
    d344:	6b00003f 	cmp	w1, w0
    d348:	5400036a 	b.ge	0xd3b4  // b.tcont
    d34c:	d4200500 	brk	#0x28
    d350:	d4200500 	brk	#0x28
    d354:	528000e2 	mov	w2, #0x7                   	// #7
    d358:	72a00002 	movk	w2, #0x0, lsl #16
    d35c:	d42001c0 	brk	#0xe
    d360:	d4200500 	brk	#0x28
    d364:	d4200500 	brk	#0x28
    d368:	d4200100 	brk	#0x8
    d36c:	528000e3 	mov	w3, #0x7                   	// #7
    d370:	72a00003 	movk	w3, #0x0, lsl #16
    d374:	d42001c0 	brk	#0xe
    d378:	52800003 	mov	w3, #0x0                   	// #0
    d37c:	72a00003 	movk	w3, #0x0, lsl #16
    d380:	b81f43a0 	stur	w0, [x29, #-12]
    d384:	b81f03a1 	stur	w1, [x29, #-16]
    d388:	b81ec3a2 	stur	w2, [x29, #-20]
    d38c:	b81c83a3 	stur	w3, [x29, #-56]
    d390:	f85e03a0 	ldur	x0, [x29, #-32]
    d394:	b85f03a1 	ldur	w1, [x29, #-16]
    d398:	b85cc3a2 	ldur	w2, [x29, #-52]
    d39c:	b85c83a3 	ldur	w3, [x29, #-56]
    d3a0:	d290ff91 	mov	x17, #0x87fc                	// #34812
    d3a4:	f2a031b1 	movk	x17, #0x18d, lsl #16
    d3a8:	f2c00ab1 	movk	x17, #0x55, lsl #32
    d3ac:	f2e00011 	movk	x17, #0x0, lsl #48
    d3b0:	d63f0220 	blr	x17
    d3b4:	d4200520 	brk	#0x29
    d3b8:	910103ff 	add	sp, sp, #0x40
    d3bc:	a8c17bfd 	ldp	x29, x30, [sp], #16
    d3c0:	d65f03c0 	ret
    d3c4:	d503201f 	nop
    d3c8:	d503201f 	nop
    d3cc:	d503201f 	nop
    d3d0:	a9bf7bfd 	stp	x29, x30, [sp, #-16]!
    d3d4:	910003fd 	mov	x29, sp
    d3d8:	d100c3ff 	sub	sp, sp, #0x30
    d3dc:	d4200500 	brk	#0x28
    d3e0:	b85ec3a2 	ldur	w2, [x29, #-20]
    d3e4:	6b01005f 	cmp	w2, w1
    d3e8:	540000eb 	b.lt	0xd404  // b.tstop
    d3ec:	d4200500 	brk	#0x28
    d3f0:	52800003 	mov	w3, #0x0                   	// #0
    d3f4:	72a00003 	movk	w3, #0x0, lsl #16
    d3f8:	d4200760 	brk	#0x3b
    d3fc:	9100c3ff 	add	sp, sp, #0x30
    d400:	a8c17bfd 	ldp	x29, x30, [sp], #16
    d404:	d65f03c0 	ret
    d408:	d4200500 	brk	#0x28
    d40c:	528000e2 	mov	w2, #0x7                   	// #7
    d410:	72a00002 	movk	w2, #0x0, lsl #16
    d414:	d42001c0 	brk	#0xe
    d418:	d4200960 	brk	#0x4b
    d41c:	d4200760 	brk	#0x3b
    d420:	9100c3ff 	add	sp, sp, #0x30
    d424:	a8c17bfd 	ldp	x29, x30, [sp], #16
    d428:	d65f03c0 	ret
    d42c:	d503201f 	nop
    d430:	a9bf7bfd 	stp	x29, x30, [sp, #-16]!
    d434:	910003fd 	mov	x29, sp
    d438:	d100c3ff 	sub	sp, sp, #0x30
    d43c:	d4200500 	brk	#0x28
    d440:	b85e43a3 	ldur	w3, [x29, #-28]
    d444:	6b01007f 	cmp	w3, w1
    d448:	540000eb 	b.lt	0xd464  // b.tstop
    d44c:	f81f83a0 	stur	x0, [x29, #-8]
    d450:	b81f43a1 	stur	w1, [x29, #-12]
    d454:	f81e83a2 	stur	x2, [x29, #-24]
    d458:	b81e43a3 	stur	w3, [x29, #-28]
    d45c:	f85f83a0 	ldur	x0, [x29, #-8]
    d460:	b85f43a1 	ldur	w1, [x29, #-12]
    d464:	940000df 	bl	0xd7e0
    d468:	d4200500 	brk	#0x28
    d46c:	d13fa3e0 	sub	x0, sp, #0xfe8
    d470:	d2852901 	mov	x1, #0x2948                	// #10568
    d474:	f2a000c1 	movk	x1, #0x6, lsl #16
    d478:	f2c00aa1 	movk	x1, #0x55, lsl #32
    d47c:	f2e00001 	movk	x1, #0x0, lsl #48
    d480:	d2850d02 	mov	x2, #0x2868                	// #10344
    d484:	f2a000c2 	movk	x2, #0x6, lsl #16
    d488:	f2c00aa2 	movk	x2, #0x55, lsl #32
    d48c:	f2e00002 	movk	x2, #0x0, lsl #48
    d490:	d293ee91 	mov	x17, #0x9f74                	// #40820
    d494:	f2a031b1 	movk	x17, #0x18d, lsl #16
    d498:	f2c00ab1 	movk	x17, #0x55, lsl #32
    d49c:	f2e00011 	movk	x17, #0x0, lsl #48
    d4a0:	d63f0220 	blr	x17
    d4a4:	d42007c0 	brk	#0x3e
    d4a8:	528000e0 	mov	w0, #0x7                   	// #7
    d4ac:	72a00000 	movk	w0, #0x0, lsl #16
    d4b0:	d42001c0 	brk	#0xe
    d4b4:	d42009e0 	brk	#0x4f
    d4b8:	9100c3ff 	add	sp, sp, #0x30
    d4bc:	a8c17bfd 	ldp	x29, x30, [sp], #16
    d4c0:	d65f03c0 	ret
    d4c4:	d503201f 	nop
    d4c8:	d503201f 	nop
    d4cc:	d503201f 	nop
    d4d0:	a9bf7bfd 	stp	x29, x30, [sp, #-16]!
    d4d4:	910003fd 	mov	x29, sp
    d4d8:	d10083ff 	sub	sp, sp, #0x20
    d4dc:	f81f83a0 	stur	x0, [x29, #-8]
    d4e0:	f81f03a1 	stur	x1, [x29, #-16]
    d4e4:	d13fc3e0 	sub	x0, sp, #0xff0
    d4e8:	d2852901 	mov	x1, #0x2948                	// #10568
    d4ec:	f2a000c1 	movk	x1, #0x6, lsl #16
    d4f0:	f2c00aa1 	movk	x1, #0x55, lsl #32
    d4f4:	f2e00001 	movk	x1, #0x0, lsl #48
    d4f8:	d2850d02 	mov	x2, #0x2868                	// #10344
    d4fc:	f2a000c2 	movk	x2, #0x6, lsl #16
    d500:	f2c00aa2 	movk	x2, #0x55, lsl #32
    d504:	f2e00002 	movk	x2, #0x0, lsl #48
    d508:	d293ee91 	mov	x17, #0x9f74                	// #40820
    d50c:	f2a031b1 	movk	x17, #0x18d, lsl #16
    d510:	f2c00ab1 	movk	x17, #0x55, lsl #32
    d514:	f2e00011 	movk	x17, #0x0, lsl #48
    d518:	d63f0220 	blr	x17
    d51c:	f85f83a0 	ldur	x0, [x29, #-8]
    d520:	785ea3a1 	ldurh	w1, [x29, #-22]
    d524:	97fffa1f 	bl	0xbda0
    d528:	910083ff 	add	sp, sp, #0x20
    d52c:	a8c17bfd 	ldp	x29, x30, [sp], #16
    d530:	d65f03c0 	ret
    d534:	d503201f 	nop
    d538:	d503201f 	nop
    d53c:	d503201f 	nop
    d540:	a9bf7bfd 	stp	x29, x30, [sp, #-16]!
    d544:	910003fd 	mov	x29, sp
    d548:	d10043ff 	sub	sp, sp, #0x10
    d54c:	f81f83a0 	stur	x0, [x29, #-8]
    d550:	f85f83a0 	ldur	x0, [x29, #-8]
    d554:	97fff9f7 	bl	0xbd30
    d558:	910043ff 	add	sp, sp, #0x10
    d55c:	a8c17bfd 	ldp	x29, x30, [sp], #16
    d560:	d65f03c0 	ret
    d564:	d503201f 	nop
    d568:	d503201f 	nop
    d56c:	d503201f 	nop
    d570:	a9bf7bfd 	stp	x29, x30, [sp, #-16]!
    d574:	910003fd 	mov	x29, sp
    d578:	d10043ff 	sub	sp, sp, #0x10
    d57c:	f81f83a0 	stur	x0, [x29, #-8]
    d580:	f85f83a0 	ldur	x0, [x29, #-8]
    d584:	97fffa57 	bl	0xbee0
    d588:	910043ff 	add	sp, sp, #0x10
    d58c:	a8c17bfd 	ldp	x29, x30, [sp], #16
    d590:	d65f03c0 	ret
    d594:	d503201f 	nop
    d598:	d503201f 	nop
    d59c:	d503201f 	nop
    d5a0:	a9bf7bfd 	stp	x29, x30, [sp, #-16]!
    d5a4:	910003fd 	mov	x29, sp
    d5a8:	d10083ff 	sub	sp, sp, #0x20
    d5ac:	f81f83a0 	stur	x0, [x29, #-8]
    d5b0:	f81f03a1 	stur	x1, [x29, #-16]
    d5b4:	d13fc3e0 	sub	x0, sp, #0xff0
    d5b8:	d2852901 	mov	x1, #0x2948                	// #10568
    d5bc:	f2a000c1 	movk	x1, #0x6, lsl #16
    d5c0:	f2c00aa1 	movk	x1, #0x55, lsl #32
    d5c4:	f2e00001 	movk	x1, #0x0, lsl #48
    d5c8:	d2850d02 	mov	x2, #0x2868                	// #10344
    d5cc:	f2a000c2 	movk	x2, #0x6, lsl #16
    d5d0:	f2c00aa2 	movk	x2, #0x55, lsl #32
    d5d4:	f2e00002 	movk	x2, #0x0, lsl #48
    d5d8:	d293ee91 	mov	x17, #0x9f74                	// #40820
    d5dc:	f2a031b1 	movk	x17, #0x18d, lsl #16
    d5e0:	f2c00ab1 	movk	x17, #0x55, lsl #32
    d5e4:	f2e00011 	movk	x17, #0x0, lsl #48
    d5e8:	d63f0220 	blr	x17
    d5ec:	f85f83a0 	ldur	x0, [x29, #-8]
    d5f0:	785ee3a1 	ldurh	w1, [x29, #-18]
    d5f4:	97fffcbb 	bl	0xc8e0
    d5f8:	910083ff 	add	sp, sp, #0x20
    d5fc:	a8c17bfd 	ldp	x29, x30, [sp], #16
    d600:	d65f03c0 	ret
    d604:	d503201f 	nop
    d608:	d503201f 	nop
    d60c:	d503201f 	nop
    d610:	a9bf7bfd 	stp	x29, x30, [sp, #-16]!
    d614:	910003fd 	mov	x29, sp
    d618:	d10083ff 	sub	sp, sp, #0x20
    d61c:	f81f83a0 	stur	x0, [x29, #-8]
    d620:	b81f43a1 	stur	w1, [x29, #-12]
    d624:	f81e83a2 	stur	x2, [x29, #-24]
    d628:	d13fa3e0 	sub	x0, sp, #0xfe8
    d62c:	d2852901 	mov	x1, #0x2948                	// #10568
    d630:	f2a000c1 	movk	x1, #0x6, lsl #16
    d634:	f2c00aa1 	movk	x1, #0x55, lsl #32
    d638:	f2e00001 	movk	x1, #0x0, lsl #48
    d63c:	d2850d02 	mov	x2, #0x2868                	// #10344
    d640:	f2a000c2 	movk	x2, #0x6, lsl #16
    d644:	f2c00aa2 	movk	x2, #0x55, lsl #32
    d648:	f2e00002 	movk	x2, #0x0, lsl #48
    d64c:	d293ee91 	mov	x17, #0x9f74                	// #40820
    d650:	f2a031b1 	movk	x17, #0x18d, lsl #16
    d654:	f2c00ab1 	movk	x17, #0x55, lsl #32
    d658:	f2e00011 	movk	x17, #0x0, lsl #48
    d65c:	d63f0220 	blr	x17
    d660:	f85f83a0 	ldur	x0, [x29, #-8]
    d664:	b85f43a1 	ldur	w1, [x29, #-12]
    d668:	785e63a2 	ldurh	w2, [x29, #-26]
    d66c:	97fffce1 	bl	0xc9f0
    d670:	910083ff 	add	sp, sp, #0x20
    d674:	a8c17bfd 	ldp	x29, x30, [sp], #16
    d678:	d65f03c0 	ret
    d67c:	d503201f 	nop
    d680:	a9bf7bfd 	stp	x29, x30, [sp, #-16]!
    d684:	910003fd 	mov	x29, sp
    d688:	d10083ff 	sub	sp, sp, #0x20
    d68c:	f81f83a0 	stur	x0, [x29, #-8]
    d690:	f81f03a1 	stur	x1, [x29, #-16]
    d694:	d13fc3e0 	sub	x0, sp, #0xff0
    d698:	d2852901 	mov	x1, #0x2948                	// #10568
    d69c:	f2a000c1 	movk	x1, #0x6, lsl #16
    d6a0:	f2c00aa1 	movk	x1, #0x55, lsl #32
    d6a4:	f2e00001 	movk	x1, #0x0, lsl #48
    d6a8:	d2850d02 	mov	x2, #0x2868                	// #10344
    d6ac:	f2a000c2 	movk	x2, #0x6, lsl #16
    d6b0:	f2c00aa2 	movk	x2, #0x55, lsl #32
    d6b4:	f2e00002 	movk	x2, #0x0, lsl #48
    d6b8:	d293ee91 	mov	x17, #0x9f74                	// #40820
    d6bc:	f2a031b1 	movk	x17, #0x18d, lsl #16
    d6c0:	f2c00ab1 	movk	x17, #0x55, lsl #32
    d6c4:	f2e00011 	movk	x17, #0x0, lsl #48
    d6c8:	d63f0220 	blr	x17
    d6cc:	f85f83a0 	ldur	x0, [x29, #-8]
    d6d0:	785ec3a1 	ldurh	w1, [x29, #-20]
    d6d4:	97fffd1f 	bl	0xcb50
    d6d8:	910083ff 	add	sp, sp, #0x20
    d6dc:	a8c17bfd 	ldp	x29, x30, [sp], #16
    d6e0:	d65f03c0 	ret
    d6e4:	d503201f 	nop
    d6e8:	d503201f 	nop
    d6ec:	d503201f 	nop
    d6f0:	a9bf7bfd 	stp	x29, x30, [sp, #-16]!
    d6f4:	910003fd 	mov	x29, sp
    d6f8:	d10083ff 	sub	sp, sp, #0x20
    d6fc:	f81f83a0 	stur	x0, [x29, #-8]
    d700:	f81f03a1 	stur	x1, [x29, #-16]
    d704:	d13fc3e0 	sub	x0, sp, #0xff0
    d708:	d2852901 	mov	x1, #0x2948                	// #10568
    d70c:	f2a000c1 	movk	x1, #0x6, lsl #16
    d710:	f2c00aa1 	movk	x1, #0x55, lsl #32
    d714:	f2e00001 	movk	x1, #0x0, lsl #48
    d718:	d2850d02 	mov	x2, #0x2868                	// #10344
    d71c:	f2a000c2 	movk	x2, #0x6, lsl #16
    d720:	f2c00aa2 	movk	x2, #0x55, lsl #32
    d724:	f2e00002 	movk	x2, #0x0, lsl #48
    d728:	d293ee91 	mov	x17, #0x9f74                	// #40820
    d72c:	f2a031b1 	movk	x17, #0x18d, lsl #16
    d730:	f2c00ab1 	movk	x17, #0x55, lsl #32
    d734:	f2e00011 	movk	x17, #0x0, lsl #48
    d738:	d63f0220 	blr	x17
    d73c:	f85f83a0 	ldur	x0, [x29, #-8]
    d740:	785ec3a1 	ldurh	w1, [x29, #-20]
    d744:	97fffd1b 	bl	0xcbb0
    d748:	910083ff 	add	sp, sp, #0x20
    d74c:	a8c17bfd 	ldp	x29, x30, [sp], #16
    d750:	d65f03c0 	ret
    d754:	d503201f 	nop
    d758:	d503201f 	nop
    d75c:	d503201f 	nop
    d760:	a9bf7bfd 	stp	x29, x30, [sp, #-16]!
    d764:	910003fd 	mov	x29, sp
    d768:	d100c3ff 	sub	sp, sp, #0x30
    d76c:	d4200760 	brk	#0x3b
    d770:	d4200760 	brk	#0x3b
    d774:	d4200400 	brk	#0x20
    d778:	9100c3ff 	add	sp, sp, #0x30
    d77c:	a8c17bfd 	ldp	x29, x30, [sp], #16
    d780:	d65f03c0 	ret
    d784:	d503201f 	nop
    d788:	d503201f 	nop
    d78c:	d503201f 	nop
    d790:	a9bf7bfd 	stp	x29, x30, [sp, #-16]!
    d794:	910003fd 	mov	x29, sp
    d798:	d10083ff 	sub	sp, sp, #0x20
    d79c:	7100003f 	cmp	w1, #0x0
    d7a0:	54000041 	b.ne	0xd7a8  // b.any
    d7a4:	aa1f03e2 	mov	x2, xzr
    d7a8:	14000001 	b	0xd7ac
    d7ac:	d4200440 	brk	#0x22
    d7b0:	f81f83a0 	stur	x0, [x29, #-8]
    d7b4:	f81f03a1 	stur	x1, [x29, #-16]
    d7b8:	f81e83a2 	stur	x2, [x29, #-24]
    d7bc:	f85f83a0 	ldur	x0, [x29, #-8]
    d7c0:	f85e83a1 	ldur	x1, [x29, #-24]
    d7c4:	97fffafb 	bl	0xc3b0
    d7c8:	910083ff 	add	sp, sp, #0x20
    d7cc:	a8c17bfd 	ldp	x29, x30, [sp], #16
    d7d0:	d65f03c0 	ret
    d7d4:	d503201f 	nop
    d7d8:	d503201f 	nop
    d7dc:	d503201f 	nop
    d7e0:	a9bf7bfd 	stp	x29, x30, [sp, #-16]!
    d7e4:	910003fd 	mov	x29, sp
    d7e8:	d101c3ff 	sub	sp, sp, #0x70
    d7ec:	52800002 	mov	w2, #0x0                   	// #0
    d7f0:	72a00002 	movk	w2, #0x0, lsl #16
    d7f4:	6b01005f 	cmp	w2, w1
    d7f8:	540003ca 	b.ge	0xd870  // b.tcont
    d7fc:	d295b504 	mov	x4, #0xada8                	// #44456
    d800:	f2a000c4 	movk	x4, #0x6, lsl #16
    d804:	f2c00aa4 	movk	x4, #0x55, lsl #32
    d808:	f2e00004 	movk	x4, #0x0, lsl #48
    d80c:	f8400083 	ldur	x3, [x4]
    d810:	b81f03a1 	stur	w1, [x29, #-16]
    d814:	d4200ae0 	brk	#0x57
    d818:	f81f83a0 	stur	x0, [x29, #-8]
    d81c:	b81f43a1 	stur	w1, [x29, #-12]
    d820:	b81ec3a2 	stur	w2, [x29, #-20]
    d824:	f81d83a3 	stur	x3, [x29, #-40]
    d828:	b85f03a0 	ldur	w0, [x29, #-16]
    d82c:	f85d03a1 	ldur	x1, [x29, #-48]
    d830:	d292a211 	mov	x17, #0x9510                	// #38160
    d834:	f2a031d1 	movk	x17, #0x18e, lsl #16
    d838:	f2c00ab1 	movk	x17, #0x55, lsl #32
    d83c:	f2e00011 	movk	x17, #0x0, lsl #48
    d840:	d63f0220 	blr	x17
    d844:	f81c83a0 	stur	x0, [x29, #-56]
    d848:	f85c83a0 	ldur	x0, [x29, #-56]
    d84c:	b85f03a1 	ldur	w1, [x29, #-16]
    d850:	97ffccc8 	bl	0xb70
    d854:	f81c03a0 	stur	x0, [x29, #-64]
    d858:	f85d83a0 	ldur	x0, [x29, #-40]
    d85c:	f85c03a1 	ldur	x1, [x29, #-64]
    d860:	97ffcd58 	bl	0xdc0
    d864:	f81d83a0 	stur	x0, [x29, #-40]
    d868:	f85d83a0 	ldur	x0, [x29, #-40]
    d86c:	97ffd6bd 	bl	0x3360
    d870:	d4200880 	brk	#0x44
    d874:	528000e1 	mov	w1, #0x7                   	// #7
    d878:	72a00001 	movk	w1, #0x0, lsl #16
    d87c:	d42000e0 	brk	#0x7
    d880:	d4200500 	brk	#0x28
    d884:	b85bc3a2 	ldur	w2, [x29, #-68]
    d888:	b85f03a3 	ldur	w3, [x29, #-16]
    d88c:	6b02007f 	cmp	w3, w2
    d890:	5400086a 	b.ge	0xd99c  // b.tcont
    d894:	d4200500 	brk	#0x28
    d898:	52800242 	mov	w2, #0x12                  	// #18
    d89c:	72a00002 	movk	w2, #0x0, lsl #16
    d8a0:	d4200120 	brk	#0x9
    d8a4:	528000e2 	mov	w2, #0x7                   	// #7
    d8a8:	72a00002 	movk	w2, #0x0, lsl #16
    d8ac:	d42001e0 	brk	#0xf
    d8b0:	6b01007f 	cmp	w3, w1
    d8b4:	5400002a 	b.ge	0xd8b8  // b.tcont
    d8b8:	2a0303e1 	mov	w1, w3
    d8bc:	d4200500 	brk	#0x28
    d8c0:	528000e4 	mov	w4, #0x7                   	// #7
    d8c4:	72a00004 	movk	w4, #0x0, lsl #16
    d8c8:	d42001c0 	brk	#0xe
    d8cc:	f81e03a0 	stur	x0, [x29, #-32]
    d8d0:	b81ec3a1 	stur	w1, [x29, #-20]
    d8d4:	b81bc3a2 	stur	w2, [x29, #-68]
    d8d8:	b81f03a3 	stur	w3, [x29, #-16]
    d8dc:	b81b83a4 	stur	w4, [x29, #-72]
    d8e0:	b85bc3a0 	ldur	w0, [x29, #-68]
    d8e4:	d2905f91 	mov	x17, #0x82fc                	// #33532
    d8e8:	f2a031b1 	movk	x17, #0x18d, lsl #16
    d8ec:	f2c00ab1 	movk	x17, #0x55, lsl #32
    d8f0:	f2e00011 	movk	x17, #0x0, lsl #48
    d8f4:	d63f0220 	blr	x17
    d8f8:	d4200500 	brk	#0x28
    d8fc:	d4200500 	brk	#0x28
    d900:	528000e1 	mov	w1, #0x7                   	// #7
    d904:	72a00001 	movk	w1, #0x0, lsl #16
    d908:	d42001c0 	brk	#0xe
    d90c:	52800001 	mov	w1, #0x0                   	// #0
    d910:	72a00001 	movk	w1, #0x0, lsl #16
    d914:	d4200500 	brk	#0x28
    d918:	52800002 	mov	w2, #0x0                   	// #0
    d91c:	72a00002 	movk	w2, #0x0, lsl #16
    d920:	f81b03a0 	stur	x0, [x29, #-80]
    d924:	b81b83a1 	stur	w1, [x29, #-72]
    d928:	b81943a2 	stur	w2, [x29, #-108]
    d92c:	f85b03a0 	ldur	x0, [x29, #-80]
    d930:	b85b83a1 	ldur	w1, [x29, #-72]
    d934:	f85983a2 	ldur	x2, [x29, #-104]
    d938:	b85943a3 	ldur	w3, [x29, #-108]
    d93c:	b85bc3a4 	ldur	w4, [x29, #-68]
    d940:	d2906d91 	mov	x17, #0x836c                	// #33644
    d944:	f2a031b1 	movk	x17, #0x18d, lsl #16
    d948:	f2c00ab1 	movk	x17, #0x55, lsl #32
    d94c:	f2e00011 	movk	x17, #0x0, lsl #48
    d950:	d63f0220 	blr	x17
    d954:	d4200500 	brk	#0x28
    d958:	528000e0 	mov	w0, #0x7                   	// #7
    d95c:	72a00000 	movk	w0, #0x0, lsl #16
    d960:	d42001c0 	brk	#0xe
    d964:	d4200100 	brk	#0x8
    d968:	52800000 	mov	w0, #0x0                   	// #0
    d96c:	72a00000 	movk	w0, #0x0, lsl #16
    d970:	b81903a0 	stur	w0, [x29, #-112]
    d974:	f85b03a0 	ldur	x0, [x29, #-80]
    d978:	b85bc3a1 	ldur	w1, [x29, #-68]
    d97c:	b85943a2 	ldur	w2, [x29, #-108]
    d980:	b85903a3 	ldur	w3, [x29, #-112]
    d984:	d290ff91 	mov	x17, #0x87fc                	// #34812
    d988:	f2a031b1 	movk	x17, #0x18d, lsl #16
    d98c:	f2c00ab1 	movk	x17, #0x55, lsl #32
    d990:	f2e00011 	movk	x17, #0x0, lsl #48
    d994:	d63f0220 	blr	x17
    d998:	d4200520 	brk	#0x29
    d99c:	d4200520 	brk	#0x29
    d9a0:	d4200520 	brk	#0x29
    d9a4:	9101c3ff 	add	sp, sp, #0x70
    d9a8:	a8c17bfd 	ldp	x29, x30, [sp], #16
    d9ac:	d65f03c0 	ret
    d9b0:	a9bf7bfd 	stp	x29, x30, [sp, #-16]!
    d9b4:	910003fd 	mov	x29, sp
    d9b8:	d10083ff 	sub	sp, sp, #0x20
    d9bc:	aa1f03e2 	mov	x2, xzr
    d9c0:	f81f83a0 	stur	x0, [x29, #-8]
    d9c4:	f81f03a1 	stur	x1, [x29, #-16]
    d9c8:	f81e83a2 	stur	x2, [x29, #-24]
    d9cc:	d13fa3e0 	sub	x0, sp, #0xfe8
    d9d0:	d2852901 	mov	x1, #0x2948                	// #10568
    d9d4:	f2a000c1 	movk	x1, #0x6, lsl #16
    d9d8:	f2c00aa1 	movk	x1, #0x55, lsl #32
    d9dc:	f2e00001 	movk	x1, #0x0, lsl #48
    d9e0:	d285a102 	mov	x2, #0x2d08                	// #11528
    d9e4:	f2a000c2 	movk	x2, #0x6, lsl #16
    d9e8:	f2c00aa2 	movk	x2, #0x55, lsl #32
    d9ec:	f2e00002 	movk	x2, #0x0, lsl #48
    d9f0:	d2942991 	mov	x17, #0xa14c                	// #41292
    d9f4:	f2a031b1 	movk	x17, #0x18d, lsl #16
    d9f8:	f2c00ab1 	movk	x17, #0x55, lsl #32
    d9fc:	f2e00011 	movk	x17, #0x0, lsl #48
    da00:	d63f0220 	blr	x17
    da04:	f85f83a0 	ldur	x0, [x29, #-8]
    da08:	f85e03a1 	ldur	x1, [x29, #-32]
    da0c:	97ffdb1d 	bl	0x4680
    da10:	d4200520 	brk	#0x29
    da14:	910083ff 	add	sp, sp, #0x20
    da18:	a8c17bfd 	ldp	x29, x30, [sp], #16
    da1c:	d65f03c0 	ret
    da20:	a9bf7bfd 	stp	x29, x30, [sp, #-16]!
    da24:	910003fd 	mov	x29, sp
    da28:	d10083ff 	sub	sp, sp, #0x20
    da2c:	d4200500 	brk	#0x28
    da30:	d4200500 	brk	#0x28
    da34:	f85e03a1 	ldur	x1, [x29, #-32]
    da38:	7100003f 	cmp	w1, #0x0
    da3c:	54000401 	b.ne	0xdabc  // b.any
    da40:	f81f83a0 	stur	x0, [x29, #-8]
    da44:	f81e03a1 	stur	x1, [x29, #-32]
    da48:	d298b091 	mov	x17, #0xc584                	// #50564
    da4c:	f2a031b1 	movk	x17, #0x18d, lsl #16
    da50:	f2c00ab1 	movk	x17, #0x55, lsl #32
    da54:	f2e00011 	movk	x17, #0x0, lsl #48
    da58:	d63f0220 	blr	x17
    da5c:	f85e03a0 	ldur	x0, [x29, #-32]
    da60:	f8408001 	ldur	x1, [x0, #8]
    da64:	b85f03a2 	ldur	w2, [x29, #-16]
    da68:	6b02003f 	cmp	w1, w2
    da6c:	5400004b 	b.lt	0xda74  // b.tstop
    da70:	110003e3 	mov	w3, wsp
    da74:	14000001 	b	0xda78
    da78:	110007e3 	add	w3, wsp, #0x1
    da7c:	910083ff 	add	sp, sp, #0x20
    da80:	a8c17bfd 	ldp	x29, x30, [sp], #16
    da84:	d65f03c0 	ret
    da88:	d503201f 	nop
    da8c:	d503201f 	nop
    da90:	a9bf7bfd 	stp	x29, x30, [sp, #-16]!
    da94:	910003fd 	mov	x29, sp
    da98:	d10083ff 	sub	sp, sp, #0x20
    da9c:	d4200500 	brk	#0x28
    daa0:	f85e83a1 	ldur	x1, [x29, #-24]
    daa4:	7100003f 	cmp	w1, #0x0
    daa8:	54000401 	b.ne	0xdb28  // b.any
    daac:	f81f83a0 	stur	x0, [x29, #-8]
    dab0:	f81e83a1 	stur	x1, [x29, #-24]
    dab4:	d298b091 	mov	x17, #0xc584                	// #50564
    dab8:	f2a031b1 	movk	x17, #0x18d, lsl #16
    dabc:	f2c00ab1 	movk	x17, #0x55, lsl #32
    dac0:	f2e00011 	movk	x17, #0x0, lsl #48
    dac4:	d63f0220 	blr	x17
    dac8:	f85f83a0 	ldur	x0, [x29, #-8]
    dacc:	f8410001 	ldur	x1, [x0, #16]
    dad0:	b81e03a1 	stur	w1, [x29, #-32]
    dad4:	11000401 	add	w1, w0, #0x1
    dad8:	f85f03a2 	ldur	x2, [x29, #-16]
    dadc:	f8000040 	stur	x0, [x2]
    dae0:	d42003c0 	brk	#0x1e
    dae4:	910083ff 	add	sp, sp, #0x20
    dae8:	a8c17bfd 	ldp	x29, x30, [sp], #16
    daec:	d65f03c0 	ret
    daf0:	a9bf7bfd 	stp	x29, x30, [sp, #-16]!
    daf4:	910003fd 	mov	x29, sp
    daf8:	d10083ff 	sub	sp, sp, #0x20
    dafc:	aa1f03e2 	mov	x2, xzr
    db00:	f81f83a0 	stur	x0, [x29, #-8]
    db04:	f81f03a1 	stur	x1, [x29, #-16]
    db08:	f81e83a2 	stur	x2, [x29, #-24]
    db0c:	d13fa3e0 	sub	x0, sp, #0xfe8
    db10:	d2852901 	mov	x1, #0x2948                	// #10568
    db14:	f2a000c1 	movk	x1, #0x6, lsl #16
    db18:	f2c00aa1 	movk	x1, #0x55, lsl #32
    db1c:	f2e00001 	movk	x1, #0x0, lsl #48
    db20:	d285a102 	mov	x2, #0x2d08                	// #11528
    db24:	f2a000c2 	movk	x2, #0x6, lsl #16
    db28:	f2c00aa2 	movk	x2, #0x55, lsl #32
    db2c:	f2e00002 	movk	x2, #0x0, lsl #48
    db30:	d2942991 	mov	x17, #0xa14c                	// #41292
    db34:	f2a031b1 	movk	x17, #0x18d, lsl #16
    db38:	f2c00ab1 	movk	x17, #0x55, lsl #32
    db3c:	f2e00011 	movk	x17, #0x0, lsl #48
    db40:	d63f0220 	blr	x17
    db44:	f85f83a0 	ldur	x0, [x29, #-8]
    db48:	f85e03a1 	ldur	x1, [x29, #-32]
    db4c:	97ffdb0d 	bl	0x4780
    db50:	d4200520 	brk	#0x29
    db54:	910083ff 	add	sp, sp, #0x20
    db58:	a8c17bfd 	ldp	x29, x30, [sp], #16
    db5c:	d65f03c0 	ret
    db60:	a9bf7bfd 	stp	x29, x30, [sp, #-16]!
    db64:	910003fd 	mov	x29, sp
    db68:	d10083ff 	sub	sp, sp, #0x20
    db6c:	7100003f 	cmp	w1, #0x0
    db70:	54000041 	b.ne	0xdb78  // b.any
    db74:	110003e2 	mov	w2, wsp
    db78:	14000001 	b	0xdb7c
    db7c:	d4200b00 	brk	#0x58
    db80:	f81f83a0 	stur	x0, [x29, #-8]
    db84:	f81f03a1 	stur	x1, [x29, #-16]
    db88:	381ef3a2 	sturb	w2, [x29, #-17]
    db8c:	d285a100 	mov	x0, #0x2d08                	// #11528
    db90:	f2a000c0 	movk	x0, #0x6, lsl #16
    db94:	f2c00aa0 	movk	x0, #0x55, lsl #32
    db98:	f2e00000 	movk	x0, #0x0, lsl #48
    db9c:	d287fa11 	mov	x17, #0x3fd0                	// #16336
    dba0:	f2a031b1 	movk	x17, #0x18d, lsl #16
    dba4:	f2c00ab1 	movk	x17, #0x55, lsl #32
    dba8:	f2e00011 	movk	x17, #0x0, lsl #48
    dbac:	d63f0220 	blr	x17
    dbb0:	f85f83a1 	ldur	x1, [x29, #-8]
    dbb4:	f8008020 	stur	x0, [x1, #8]
    dbb8:	f85f03a2 	ldur	x2, [x29, #-16]
    dbbc:	f8002040 	stur	x0, [x2, #2]
    dbc0:	910083ff 	add	sp, sp, #0x20
    dbc4:	a8c17bfd 	ldp	x29, x30, [sp], #16
    dbc8:	d65f03c0 	ret
    dbcc:	d503201f 	nop
    dbd0:	a9bf7bfd 	stp	x29, x30, [sp, #-16]!
    dbd4:	910003fd 	mov	x29, sp
    dbd8:	d10083ff 	sub	sp, sp, #0x20
    dbdc:	f81f83a0 	stur	x0, [x29, #-8]
    dbe0:	d285e900 	mov	x0, #0x2f48                	// #12104
    dbe4:	f2a000c0 	movk	x0, #0x6, lsl #16
    dbe8:	f2c00aa0 	movk	x0, #0x55, lsl #32
    dbec:	f2e00000 	movk	x0, #0x0, lsl #48
    dbf0:	d287fa11 	mov	x17, #0x3fd0                	// #16336
    dbf4:	f2a031b1 	movk	x17, #0x18d, lsl #16
    dbf8:	f2c00ab1 	movk	x17, #0x55, lsl #32
    dbfc:	f2e00011 	movk	x17, #0x0, lsl #48
    dc00:	d63f0220 	blr	x17
    dc04:	f81f03a0 	stur	x0, [x29, #-16]
    dc08:	f85f03a0 	ldur	x0, [x29, #-16]
    dc0c:	940000b1 	bl	0xded0
    dc10:	d4200520 	brk	#0x29
    dc14:	110007e0 	add	w0, wsp, #0x1
    dc18:	d4200520 	brk	#0x29
    dc1c:	910083ff 	add	sp, sp, #0x20
    dc20:	a8c17bfd 	ldp	x29, x30, [sp], #16
    dc24:	d65f03c0 	ret
    dc28:	d503201f 	nop
    dc2c:	d503201f 	nop
    dc30:	a9bf7bfd 	stp	x29, x30, [sp, #-16]!
    dc34:	910003fd 	mov	x29, sp
    dc38:	d10083ff 	sub	sp, sp, #0x20
    dc3c:	d4200500 	brk	#0x28
    dc40:	f85e83a1 	ldur	x1, [x29, #-24]
    dc44:	7100003f 	cmp	w1, #0x0
    dc48:	54000401 	b.ne	0xdcc8  // b.any
    dc4c:	f81f83a0 	stur	x0, [x29, #-8]
    dc50:	f81e83a1 	stur	x1, [x29, #-24]
    dc54:	d298b091 	mov	x17, #0xc584                	// #50564
    dc58:	f2a031b1 	movk	x17, #0x18d, lsl #16
    dc5c:	f2c00ab1 	movk	x17, #0x55, lsl #32
    dc60:	f2e00011 	movk	x17, #0x0, lsl #48
    dc64:	d63f0220 	blr	x17
    dc68:	f85e83a0 	ldur	x0, [x29, #-24]
    dc6c:	f8408001 	ldur	x1, [x0, #8]
    dc70:	910083ff 	add	sp, sp, #0x20
    dc74:	a8c17bfd 	ldp	x29, x30, [sp], #16
    dc78:	d65f03c0 	ret
    dc7c:	d503201f 	nop
    dc80:	a9bf7bfd 	stp	x29, x30, [sp, #-16]!
    dc84:	910003fd 	mov	x29, sp
    dc88:	d10083ff 	sub	sp, sp, #0x20
    dc8c:	d4200500 	brk	#0x28
    dc90:	f85e03a2 	ldur	x2, [x29, #-32]
    dc94:	7100005f 	cmp	w2, #0x0
    dc98:	54000481 	b.ne	0xdd28  // b.any
    dc9c:	f81f83a0 	stur	x0, [x29, #-8]
    dca0:	b81f43a1 	stur	w1, [x29, #-12]
    dca4:	f81e03a2 	stur	x2, [x29, #-32]
    dca8:	d298b091 	mov	x17, #0xc584                	// #50564
    dcac:	f2a031b1 	movk	x17, #0x18d, lsl #16
    dcb0:	f2c00ab1 	movk	x17, #0x55, lsl #32
    dcb4:	f2e00011 	movk	x17, #0x0, lsl #48
    dcb8:	d63f0220 	blr	x17
    dcbc:	d42003c0 	brk	#0x1e
    dcc0:	910083ff 	add	sp, sp, #0x20
    dcc4:	a8c17bfd 	ldp	x29, x30, [sp], #16
    dcc8:	d65f03c0 	ret
    dccc:	d503201f 	nop
    dcd0:	a9bf7bfd 	stp	x29, x30, [sp, #-16]!
    dcd4:	910003fd 	mov	x29, sp
    dcd8:	d10083ff 	sub	sp, sp, #0x20
    dcdc:	d4200500 	brk	#0x28
    dce0:	f85e03a3 	ldur	x3, [x29, #-32]
    dce4:	7100007f 	cmp	w3, #0x0
    dce8:	54000501 	b.ne	0xdd88  // b.any
    dcec:	f81f83a0 	stur	x0, [x29, #-8]
    dcf0:	b81f43a1 	stur	w1, [x29, #-12]
    dcf4:	f81e83a2 	stur	x2, [x29, #-24]
    dcf8:	f81e03a3 	stur	x3, [x29, #-32]
    dcfc:	d298b091 	mov	x17, #0xc584                	// #50564
    dd00:	f2a031b1 	movk	x17, #0x18d, lsl #16
    dd04:	f2c00ab1 	movk	x17, #0x55, lsl #32
    dd08:	f2e00011 	movk	x17, #0x0, lsl #48
    dd0c:	d63f0220 	blr	x17
    dd10:	d42003c0 	brk	#0x1e
    dd14:	910083ff 	add	sp, sp, #0x20
    dd18:	a8c17bfd 	ldp	x29, x30, [sp], #16
    dd1c:	d65f03c0 	ret
    dd20:	a9bf7bfd 	stp	x29, x30, [sp, #-16]!
    dd24:	910003fd 	mov	x29, sp
    dd28:	d100c3ff 	sub	sp, sp, #0x30
    dd2c:	d4200500 	brk	#0x28
    dd30:	f85d83a5 	ldur	x5, [x29, #-40]
    dd34:	710000bf 	cmp	w5, #0x0
    dd38:	54000601 	b.ne	0xddf8  // b.any
    dd3c:	f81f83a0 	stur	x0, [x29, #-8]
    dd40:	b81f43a1 	stur	w1, [x29, #-12]
    dd44:	f81e83a2 	stur	x2, [x29, #-24]
    dd48:	b81e43a3 	stur	w3, [x29, #-28]
    dd4c:	b81e03a4 	stur	w4, [x29, #-32]
    dd50:	f81d83a5 	stur	x5, [x29, #-40]
    dd54:	d298b091 	mov	x17, #0xc584                	// #50564
    dd58:	f2a031b1 	movk	x17, #0x18d, lsl #16
    dd5c:	f2c00ab1 	movk	x17, #0x55, lsl #32
    dd60:	f2e00011 	movk	x17, #0x0, lsl #48
    dd64:	d63f0220 	blr	x17
    dd68:	d42003c0 	brk	#0x1e
    dd6c:	9100c3ff 	add	sp, sp, #0x30
    dd70:	a8c17bfd 	ldp	x29, x30, [sp], #16
    dd74:	d65f03c0 	ret
    dd78:	d503201f 	nop
    dd7c:	d503201f 	nop
    dd80:	a9bf7bfd 	stp	x29, x30, [sp, #-16]!
    dd84:	910003fd 	mov	x29, sp
    dd88:	d10203ff 	sub	sp, sp, #0x80
    dd8c:	d4200500 	brk	#0x28
    dd90:	7100003f 	cmp	w1, #0x0
    dd94:	54000401 	b.ne	0xde14  // b.any
    dd98:	f81f83a0 	stur	x0, [x29, #-8]
    dd9c:	f81f03a1 	stur	x1, [x29, #-16]
    dda0:	d298b091 	mov	x17, #0xc584                	// #50564
    dda4:	f2a031b1 	movk	x17, #0x18d, lsl #16
    dda8:	f2c00ab1 	movk	x17, #0x55, lsl #32
    ddac:	f2e00011 	movk	x17, #0x0, lsl #48
    ddb0:	d63f0220 	blr	x17
    ddb4:	f85f03a0 	ldur	x0, [x29, #-16]
    ddb8:	f8408001 	ldur	x1, [x0, #8]
    ddbc:	f85e83a2 	ldur	x2, [x29, #-24]
    ddc0:	7100005f 	cmp	w2, #0x0
    ddc4:	54000481 	b.ne	0xde54  // b.any
    ddc8:	f81f03a0 	stur	x0, [x29, #-16]
    ddcc:	f81e03a1 	stur	x1, [x29, #-32]
    ddd0:	f81e83a2 	stur	x2, [x29, #-24]
    ddd4:	d298b091 	mov	x17, #0xc584                	// #50564
    ddd8:	f2a031b1 	movk	x17, #0x18d, lsl #16
    dddc:	f2c00ab1 	movk	x17, #0x55, lsl #32
    dde0:	f2e00011 	movk	x17, #0x0, lsl #48
    dde4:	d63f0220 	blr	x17
    dde8:	f85e83a0 	ldur	x0, [x29, #-24]
    ddec:	f8408001 	ldur	x1, [x0, #8]
    ddf0:	f85e03a2 	ldur	x2, [x29, #-32]
    ddf4:	7100005f 	cmp	w2, #0x0
    ddf8:	54000481 	b.ne	0xde88  // b.any
    ddfc:	f81e83a0 	stur	x0, [x29, #-24]
    de00:	b81d43a1 	stur	w1, [x29, #-44]
    de04:	f81e03a2 	stur	x2, [x29, #-32]
    de08:	d298b091 	mov	x17, #0xc584                	// #50564
    de0c:	f2a031b1 	movk	x17, #0x18d, lsl #16
    de10:	f2c00ab1 	movk	x17, #0x55, lsl #32
    de14:	f2e00011 	movk	x17, #0x0, lsl #48
    de18:	d63f0220 	blr	x17
    de1c:	f85e03a0 	ldur	x0, [x29, #-32]
    de20:	f8408001 	ldur	x1, [x0, #8]
    de24:	d42000e0 	brk	#0x7
    de28:	d2852902 	mov	x2, #0x2948                	// #10568
    de2c:	f2a000c2 	movk	x2, #0x6, lsl #16
    de30:	f2c00aa2 	movk	x2, #0x55, lsl #32
    de34:	f2e00002 	movk	x2, #0x0, lsl #48
    de38:	f81e03a0 	stur	x0, [x29, #-32]
    de3c:	b81cc3a1 	stur	w1, [x29, #-52]
    de40:	f81b83a2 	stur	x2, [x29, #-72]
    de44:	f85b83a0 	ldur	x0, [x29, #-72]
    de48:	b85d03a1 	ldur	w1, [x29, #-48]
    de4c:	d28db011 	mov	x17, #0x6d80                	// #28032
    de50:	f2a031b1 	movk	x17, #0x18d, lsl #16
    de54:	f2c00ab1 	movk	x17, #0x55, lsl #32
    de58:	f2e00011 	movk	x17, #0x0, lsl #48
    de5c:	d63f0220 	blr	x17
    de60:	f81b03a0 	stur	x0, [x29, #-80]
    de64:	52800001 	mov	w1, #0x0                   	// #0
    de68:	72a00001 	movk	w1, #0x0, lsl #16
    de6c:	b85d43a2 	ldur	w2, [x29, #-44]
    de70:	b81ac3a2 	stur	w2, [x29, #-84]
    de74:	b85ac3a3 	ldur	w3, [x29, #-84]
    de78:	6b01007f 	cmp	w3, w1
    de7c:	5400028a 	b.ge	0xdecc  // b.tcont
    de80:	b81a83a1 	stur	w1, [x29, #-88]
    de84:	f85f83a4 	ldur	x4, [x29, #-8]
    de88:	11000481 	add	w1, w4, #0x1
    de8c:	f85e83a5 	ldur	x5, [x29, #-24]
    de90:	710000bf 	cmp	w5, #0x0
    de94:	54000601 	b.ne	0xdf54  // b.any
    de98:	f81c03a0 	stur	x0, [x29, #-64]
    de9c:	b81cc3a1 	stur	w1, [x29, #-52]
    dea0:	b81d43a2 	stur	w2, [x29, #-44]
    dea4:	b81ac3a3 	stur	w3, [x29, #-84]
    dea8:	f81f83a4 	stur	x4, [x29, #-8]
    deac:	f81e83a5 	stur	x5, [x29, #-24]
    deb0:	d298b091 	mov	x17, #0xc584                	// #50564
    deb4:	f2a031b1 	movk	x17, #0x18d, lsl #16
    deb8:	f2c00ab1 	movk	x17, #0x55, lsl #32
    debc:	f2e00011 	movk	x17, #0x0, lsl #48
    dec0:	d63f0220 	blr	x17
    dec4:	d42003c0 	brk	#0x1e
    dec8:	d4200a20 	brk	#0x51
    decc:	17ffffe9 	b	0xde70
    ded0:	52800000 	mov	w0, #0x0                   	// #0
    ded4:	72a00000 	movk	w0, #0x0, lsl #16
    ded8:	f85e03a1 	ldur	x1, [x29, #-32]
    dedc:	7100003f 	cmp	w1, #0x0
    dee0:	54000401 	b.ne	0xdf60  // b.any
    dee4:	b81cc3a0 	stur	w0, [x29, #-52]
    dee8:	f81e03a1 	stur	x1, [x29, #-32]
    deec:	d298b091 	mov	x17, #0xc584                	// #50564
    def0:	f2a031b1 	movk	x17, #0x18d, lsl #16
    def4:	f2c00ab1 	movk	x17, #0x55, lsl #32
    def8:	f2e00011 	movk	x17, #0x0, lsl #48
    defc:	d63f0220 	blr	x17
    df00:	f85e03a0 	ldur	x0, [x29, #-32]
    df04:	f8408001 	ldur	x1, [x0, #8]
    df08:	b85cc3a2 	ldur	w2, [x29, #-52]
    df0c:	6b02003f 	cmp	w1, w2
    df10:	5400024a 	b.ge	0xdf58  // b.tcont
    df14:	b81a83a2 	stur	w2, [x29, #-88]
    df18:	f85f83a3 	ldur	x3, [x29, #-8]
    df1c:	11000462 	add	w2, w3, #0x1
    df20:	7100001f 	cmp	w0, #0x0
    df24:	54000501 	b.ne	0xdfc4  // b.any
    df28:	f81e03a0 	stur	x0, [x29, #-32]
    df2c:	b81ac3a1 	stur	w1, [x29, #-84]
    df30:	b81cc3a2 	stur	w2, [x29, #-52]
    df34:	f81f83a3 	stur	x3, [x29, #-8]
    df38:	d298b091 	mov	x17, #0xc584                	// #50564
    df3c:	f2a031b1 	movk	x17, #0x18d, lsl #16
    df40:	f2c00ab1 	movk	x17, #0x55, lsl #32
    df44:	f2e00011 	movk	x17, #0x0, lsl #48
    df48:	d63f0220 	blr	x17
    df4c:	d42003c0 	brk	#0x1e
    df50:	d42000e0 	brk	#0x7
    df54:	d4200a20 	brk	#0x51
    df58:	17ffffeb 	b	0xdf04
    df5c:	f85b03a0 	ldur	x0, [x29, #-80]
    df60:	940000c8 	bl	0xe280
    df64:	110007e1 	add	w1, wsp, #0x1
    df68:	d4200ae0 	brk	#0x57
    df6c:	f81903a0 	stur	x0, [x29, #-112]
    df70:	3818f3a1 	sturb	w1, [x29, #-113]
    df74:	f85903a0 	ldur	x0, [x29, #-112]
    df78:	f85803a1 	ldur	x1, [x29, #-128]
    df7c:	97fffef9 	bl	0xdb60
    df80:	910203ff 	add	sp, sp, #0x80
    df84:	a8c17bfd 	ldp	x29, x30, [sp], #16
    df88:	d65f03c0 	ret
    df8c:	d503201f 	nop
    df90:	a9bf7bfd 	stp	x29, x30, [sp, #-16]!
    df94:	910003fd 	mov	x29, sp
    df98:	d10083ff 	sub	sp, sp, #0x20
    df9c:	d4200500 	brk	#0x28
    dfa0:	f85e03a2 	ldur	x2, [x29, #-32]
    dfa4:	7100005f 	cmp	w2, #0x0
    dfa8:	54000481 	b.ne	0xe038  // b.any
    dfac:	f81f83a0 	stur	x0, [x29, #-8]
    dfb0:	f81f03a1 	stur	x1, [x29, #-16]
    dfb4:	f81e03a2 	stur	x2, [x29, #-32]
    dfb8:	d298b091 	mov	x17, #0xc584                	// #50564
    dfbc:	f2a031b1 	movk	x17, #0x18d, lsl #16
    dfc0:	f2c00ab1 	movk	x17, #0x55, lsl #32
    dfc4:	f2e00011 	movk	x17, #0x0, lsl #48
    dfc8:	d63f0220 	blr	x17
    dfcc:	d42003c0 	brk	#0x1e
    dfd0:	910083ff 	add	sp, sp, #0x20
    dfd4:	a8c17bfd 	ldp	x29, x30, [sp], #16
    dfd8:	d65f03c0 	ret
    dfdc:	d503201f 	nop
    dfe0:	a9bf7bfd 	stp	x29, x30, [sp, #-16]!
    dfe4:	910003fd 	mov	x29, sp
    dfe8:	d10083ff 	sub	sp, sp, #0x20
    dfec:	d4200500 	brk	#0x28
    dff0:	f85e83a1 	ldur	x1, [x29, #-24]
    dff4:	7100003f 	cmp	w1, #0x0
    dff8:	54000401 	b.ne	0xe078  // b.any
    dffc:	f81f83a0 	stur	x0, [x29, #-8]
    e000:	f81e83a1 	stur	x1, [x29, #-24]
    e004:	d298b091 	mov	x17, #0xc584                	// #50564
    e008:	f2a031b1 	movk	x17, #0x18d, lsl #16
    e00c:	f2c00ab1 	movk	x17, #0x55, lsl #32
    e010:	f2e00011 	movk	x17, #0x0, lsl #48
    e014:	d63f0220 	blr	x17
    e018:	d42003c0 	brk	#0x1e
    e01c:	910083ff 	add	sp, sp, #0x20
    e020:	a8c17bfd 	ldp	x29, x30, [sp], #16
    e024:	d65f03c0 	ret
    e028:	d503201f 	nop
    e02c:	d503201f 	nop
    e030:	a9bf7bfd 	stp	x29, x30, [sp, #-16]!
    e034:	910003fd 	mov	x29, sp
    e038:	d10083ff 	sub	sp, sp, #0x20
    e03c:	d4200500 	brk	#0x28
    e040:	f85e03a2 	ldur	x2, [x29, #-32]
    e044:	7100005f 	cmp	w2, #0x0
    e048:	54000481 	b.ne	0xe0d8  // b.any
    e04c:	f81f83a0 	stur	x0, [x29, #-8]
    e050:	f81f03a1 	stur	x1, [x29, #-16]
    e054:	f81e03a2 	stur	x2, [x29, #-32]
    e058:	d298b091 	mov	x17, #0xc584                	// #50564
    e05c:	f2a031b1 	movk	x17, #0x18d, lsl #16
    e060:	f2c00ab1 	movk	x17, #0x55, lsl #32
    e064:	f2e00011 	movk	x17, #0x0, lsl #48
    e068:	d63f0220 	blr	x17
    e06c:	d42003c0 	brk	#0x1e
    e070:	910083ff 	add	sp, sp, #0x20
    e074:	a8c17bfd 	ldp	x29, x30, [sp], #16
    e078:	d65f03c0 	ret
    e07c:	d503201f 	nop
    e080:	a9bf7bfd 	stp	x29, x30, [sp, #-16]!
    e084:	910003fd 	mov	x29, sp
    e088:	d10043ff 	sub	sp, sp, #0x10
    e08c:	d4200500 	brk	#0x28
    e090:	f85f03a1 	ldur	x1, [x29, #-16]
    e094:	7100003f 	cmp	w1, #0x0
    e098:	54000401 	b.ne	0xe118  // b.any
    e09c:	f81f83a0 	stur	x0, [x29, #-8]
    e0a0:	f81f03a1 	stur	x1, [x29, #-16]
    e0a4:	d298b091 	mov	x17, #0xc584                	// #50564
    e0a8:	f2a031b1 	movk	x17, #0x18d, lsl #16
    e0ac:	f2c00ab1 	movk	x17, #0x55, lsl #32
    e0b0:	f2e00011 	movk	x17, #0x0, lsl #48
    e0b4:	d63f0220 	blr	x17
    e0b8:	d42003c0 	brk	#0x1e
    e0bc:	910043ff 	add	sp, sp, #0x10
    e0c0:	a8c17bfd 	ldp	x29, x30, [sp], #16
    e0c4:	d65f03c0 	ret
    e0c8:	d503201f 	nop
    e0cc:	d503201f 	nop
    e0d0:	a9bf7bfd 	stp	x29, x30, [sp, #-16]!
    e0d4:	910003fd 	mov	x29, sp
    e0d8:	d10083ff 	sub	sp, sp, #0x20
    e0dc:	d4200500 	brk	#0x28
    e0e0:	f85e83a2 	ldur	x2, [x29, #-24]
    e0e4:	7100005f 	cmp	w2, #0x0
    e0e8:	54000481 	b.ne	0xe178  // b.any
    e0ec:	f81f83a0 	stur	x0, [x29, #-8]
    e0f0:	b81f43a1 	stur	w1, [x29, #-12]
    e0f4:	f81e83a2 	stur	x2, [x29, #-24]
    e0f8:	d298b091 	mov	x17, #0xc584                	// #50564
    e0fc:	f2a031b1 	movk	x17, #0x18d, lsl #16
    e100:	f2c00ab1 	movk	x17, #0x55, lsl #32
    e104:	f2e00011 	movk	x17, #0x0, lsl #48
    e108:	d63f0220 	blr	x17
    e10c:	d42003c0 	brk	#0x1e
    e110:	910083ff 	add	sp, sp, #0x20
    e114:	a8c17bfd 	ldp	x29, x30, [sp], #16
    e118:	d65f03c0 	ret
    e11c:	d503201f 	nop
    e120:	a9bf7bfd 	stp	x29, x30, [sp, #-16]!
    e124:	910003fd 	mov	x29, sp
    e128:	d10083ff 	sub	sp, sp, #0x20
    e12c:	d4200500 	brk	#0x28
    e130:	f85e83a1 	ldur	x1, [x29, #-24]
    e134:	7100003f 	cmp	w1, #0x0
    e138:	54000401 	b.ne	0xe1b8  // b.any
    e13c:	f81f83a0 	stur	x0, [x29, #-8]
    e140:	f81e83a1 	stur	x1, [x29, #-24]
    e144:	d298b091 	mov	x17, #0xc584                	// #50564
    e148:	f2a031b1 	movk	x17, #0x18d, lsl #16
    e14c:	f2c00ab1 	movk	x17, #0x55, lsl #32
    e150:	f2e00011 	movk	x17, #0x0, lsl #48
    e154:	d63f0220 	blr	x17
    e158:	d42003c0 	brk	#0x1e
    e15c:	910083ff 	add	sp, sp, #0x20
    e160:	a8c17bfd 	ldp	x29, x30, [sp], #16
    e164:	d65f03c0 	ret
    e168:	d503201f 	nop
    e16c:	d503201f 	nop
    e170:	a9bf7bfd 	stp	x29, x30, [sp, #-16]!
    e174:	910003fd 	mov	x29, sp
    e178:	d10103ff 	sub	sp, sp, #0x40
    e17c:	d4200500 	brk	#0x28
    e180:	f85d83a3 	ldur	x3, [x29, #-40]
    e184:	7100007f 	cmp	w3, #0x0
    e188:	54000501 	b.ne	0xe228  // b.any
    e18c:	f81f83a0 	stur	x0, [x29, #-8]
    e190:	b81f43a1 	stur	w1, [x29, #-12]
    e194:	f81e83a2 	stur	x2, [x29, #-24]
    e198:	f81d83a3 	stur	x3, [x29, #-40]
    e19c:	d298b091 	mov	x17, #0xc584                	// #50564
    e1a0:	f2a031b1 	movk	x17, #0x18d, lsl #16
    e1a4:	f2c00ab1 	movk	x17, #0x55, lsl #32
    e1a8:	f2e00011 	movk	x17, #0x0, lsl #48
    e1ac:	d63f0220 	blr	x17
    e1b0:	d42003c0 	brk	#0x1e
    e1b4:	110007e0 	add	w0, wsp, #0x1
    e1b8:	d4200ae0 	brk	#0x57
    e1bc:	381d73a0 	sturb	w0, [x29, #-41]
    e1c0:	f85d83a0 	ldur	x0, [x29, #-40]
    e1c4:	f85c83a1 	ldur	x1, [x29, #-56]
    e1c8:	97fffe66 	bl	0xdb60
    e1cc:	910103ff 	add	sp, sp, #0x40
    e1d0:	a8c17bfd 	ldp	x29, x30, [sp], #16
    e1d4:	d65f03c0 	ret
    e1d8:	d503201f 	nop
    e1dc:	d503201f 	nop
    e1e0:	a9bf7bfd 	stp	x29, x30, [sp, #-16]!
    e1e4:	910003fd 	mov	x29, sp
    e1e8:	d10083ff 	sub	sp, sp, #0x20
    e1ec:	d4200500 	brk	#0x28
    e1f0:	f85e83a2 	ldur	x2, [x29, #-24]
    e1f4:	7100005f 	cmp	w2, #0x0
    e1f8:	54000481 	b.ne	0xe288  // b.any
    e1fc:	f81f83a0 	stur	x0, [x29, #-8]
    e200:	f81f03a1 	stur	x1, [x29, #-16]
    e204:	f81e83a2 	stur	x2, [x29, #-24]
    e208:	d298b091 	mov	x17, #0xc584                	// #50564
    e20c:	f2a031b1 	movk	x17, #0x18d, lsl #16
    e210:	f2c00ab1 	movk	x17, #0x55, lsl #32
    e214:	f2e00011 	movk	x17, #0x0, lsl #48
    e218:	d63f0220 	blr	x17
    e21c:	d42003c0 	brk	#0x1e
    e220:	910083ff 	add	sp, sp, #0x20
    e224:	a8c17bfd 	ldp	x29, x30, [sp], #16
    e228:	d65f03c0 	ret
    e22c:	d503201f 	nop
    e230:	a9bf7bfd 	stp	x29, x30, [sp, #-16]!
    e234:	910003fd 	mov	x29, sp
    e238:	d100c3ff 	sub	sp, sp, #0x30
    e23c:	d4200500 	brk	#0x28
    e240:	f85e03a3 	ldur	x3, [x29, #-32]
    e244:	7100007f 	cmp	w3, #0x0
    e248:	54000501 	b.ne	0xe2e8  // b.any
    e24c:	f81f83a0 	stur	x0, [x29, #-8]
    e250:	b81f43a1 	stur	w1, [x29, #-12]
    e254:	b81f03a2 	stur	w2, [x29, #-16]
    e258:	f81e03a3 	stur	x3, [x29, #-32]
    e25c:	d298b091 	mov	x17, #0xc584                	// #50564
    e260:	f2a031b1 	movk	x17, #0x18d, lsl #16
    e264:	f2c00ab1 	movk	x17, #0x55, lsl #32
    e268:	f2e00011 	movk	x17, #0x0, lsl #48
    e26c:	d63f0220 	blr	x17
    e270:	d42003c0 	brk	#0x1e
    e274:	110007e0 	add	w0, wsp, #0x1
    e278:	d4200ae0 	brk	#0x57
    e27c:	381df3a0 	sturb	w0, [x29, #-33]
    e280:	f85e03a0 	ldur	x0, [x29, #-32]
    e284:	f85d03a1 	ldur	x1, [x29, #-48]
    e288:	97fffe36 	bl	0xdb60
    e28c:	9100c3ff 	add	sp, sp, #0x30
    e290:	a8c17bfd 	ldp	x29, x30, [sp], #16
    e294:	d65f03c0 	ret
    e298:	d503201f 	nop
    e29c:	d503201f 	nop
    e2a0:	a9bf7bfd 	stp	x29, x30, [sp, #-16]!
    e2a4:	910003fd 	mov	x29, sp
    e2a8:	d10083ff 	sub	sp, sp, #0x20
    e2ac:	d4200500 	brk	#0x28
    e2b0:	f85e83a1 	ldur	x1, [x29, #-24]
    e2b4:	7100003f 	cmp	w1, #0x0
    e2b8:	54000401 	b.ne	0xe338  // b.any
    e2bc:	f81f83a0 	stur	x0, [x29, #-8]
    e2c0:	f81e83a1 	stur	x1, [x29, #-24]
    e2c4:	d298b091 	mov	x17, #0xc584                	// #50564
    e2c8:	f2a031b1 	movk	x17, #0x18d, lsl #16
    e2cc:	f2c00ab1 	movk	x17, #0x55, lsl #32
    e2d0:	f2e00011 	movk	x17, #0x0, lsl #48
    e2d4:	d63f0220 	blr	x17
    e2d8:	d42003c0 	brk	#0x1e
    e2dc:	910083ff 	add	sp, sp, #0x20
    e2e0:	a8c17bfd 	ldp	x29, x30, [sp], #16
    e2e4:	d65f03c0 	ret
    e2e8:	d503201f 	nop
    e2ec:	d503201f 	nop
    e2f0:	a9bf7bfd 	stp	x29, x30, [sp, #-16]!
    e2f4:	910003fd 	mov	x29, sp
    e2f8:	d10083ff 	sub	sp, sp, #0x20
    e2fc:	f81f83a0 	stur	x0, [x29, #-8]
    e300:	f85f83a0 	ldur	x0, [x29, #-8]
    e304:	97ffffe7 	bl	0xe2a0
    e308:	7100001f 	cmp	w0, #0x0
    e30c:	54000381 	b.ne	0xe37c  // b.any
    e310:	f81e83a0 	stur	x0, [x29, #-24]
    e314:	d298b091 	mov	x17, #0xc584                	// #50564
    e318:	f2a031b1 	movk	x17, #0x18d, lsl #16
    e31c:	f2c00ab1 	movk	x17, #0x55, lsl #32
    e320:	f2e00011 	movk	x17, #0x0, lsl #48
    e324:	d63f0220 	blr	x17
    e328:	f85e83a0 	ldur	x0, [x29, #-24]
    e32c:	f8408001 	ldur	x1, [x0, #8]
    e330:	910083ff 	add	sp, sp, #0x20
    e334:	a8c17bfd 	ldp	x29, x30, [sp], #16
    e338:	d65f03c0 	ret
    e33c:	d503201f 	nop
    e340:	a9bf7bfd 	stp	x29, x30, [sp, #-16]!
    e344:	910003fd 	mov	x29, sp
    e348:	d10083ff 	sub	sp, sp, #0x20
    e34c:	d4200500 	brk	#0x28
    e350:	f85e83a2 	ldur	x2, [x29, #-24]
    e354:	7100005f 	cmp	w2, #0x0
    e358:	54000481 	b.ne	0xe3e8  // b.any
    e35c:	f81f83a0 	stur	x0, [x29, #-8]
    e360:	f81f03a1 	stur	x1, [x29, #-16]
    e364:	f81e83a2 	stur	x2, [x29, #-24]
    e368:	d298b091 	mov	x17, #0xc584                	// #50564
    e36c:	f2a031b1 	movk	x17, #0x18d, lsl #16
    e370:	f2c00ab1 	movk	x17, #0x55, lsl #32
    e374:	f2e00011 	movk	x17, #0x0, lsl #48
    e378:	d63f0220 	blr	x17
    e37c:	d42003c0 	brk	#0x1e
    e380:	910083ff 	add	sp, sp, #0x20
    e384:	a8c17bfd 	ldp	x29, x30, [sp], #16
    e388:	d65f03c0 	ret
    e38c:	d503201f 	nop
    e390:	a9bf7bfd 	stp	x29, x30, [sp, #-16]!
    e394:	910003fd 	mov	x29, sp
    e398:	d10083ff 	sub	sp, sp, #0x20
    e39c:	d4200500 	brk	#0x28
    e3a0:	f85e03a3 	ldur	x3, [x29, #-32]
    e3a4:	7100007f 	cmp	w3, #0x0
    e3a8:	54000501 	b.ne	0xe448  // b.any
    e3ac:	f81f83a0 	stur	x0, [x29, #-8]
    e3b0:	b81f43a1 	stur	w1, [x29, #-12]
    e3b4:	f81e83a2 	stur	x2, [x29, #-24]
    e3b8:	f81e03a3 	stur	x3, [x29, #-32]
    e3bc:	d298b091 	mov	x17, #0xc584                	// #50564
    e3c0:	f2a031b1 	movk	x17, #0x18d, lsl #16
    e3c4:	f2c00ab1 	movk	x17, #0x55, lsl #32
    e3c8:	f2e00011 	movk	x17, #0x0, lsl #48
    e3cc:	d63f0220 	blr	x17
    e3d0:	d42003c0 	brk	#0x1e
    e3d4:	910083ff 	add	sp, sp, #0x20
    e3d8:	a8c17bfd 	ldp	x29, x30, [sp], #16
    e3dc:	d65f03c0 	ret
    e3e0:	a9bf7bfd 	stp	x29, x30, [sp, #-16]!
    e3e4:	910003fd 	mov	x29, sp
    e3e8:	d10083ff 	sub	sp, sp, #0x20
    e3ec:	d4200500 	brk	#0x28
    e3f0:	f85e03a2 	ldur	x2, [x29, #-32]
    e3f4:	7100005f 	cmp	w2, #0x0
    e3f8:	54000481 	b.ne	0xe488  // b.any
    e3fc:	f81f83a0 	stur	x0, [x29, #-8]
    e400:	f81f03a1 	stur	x1, [x29, #-16]
    e404:	f81e03a2 	stur	x2, [x29, #-32]
    e408:	d298b091 	mov	x17, #0xc584                	// #50564
    e40c:	f2a031b1 	movk	x17, #0x18d, lsl #16
    e410:	f2c00ab1 	movk	x17, #0x55, lsl #32
    e414:	f2e00011 	movk	x17, #0x0, lsl #48
    e418:	d63f0220 	blr	x17
    e41c:	d42003c0 	brk	#0x1e
    e420:	910083ff 	add	sp, sp, #0x20
    e424:	a8c17bfd 	ldp	x29, x30, [sp], #16
    e428:	d65f03c0 	ret
    e42c:	d503201f 	nop
    e430:	a9bf7bfd 	stp	x29, x30, [sp, #-16]!
    e434:	910003fd 	mov	x29, sp
    e438:	d10083ff 	sub	sp, sp, #0x20
    e43c:	d4200500 	brk	#0x28
    e440:	f85e03a2 	ldur	x2, [x29, #-32]
    e444:	7100005f 	cmp	w2, #0x0
    e448:	54000481 	b.ne	0xe4d8  // b.any
    e44c:	f81f83a0 	stur	x0, [x29, #-8]
    e450:	f81f03a1 	stur	x1, [x29, #-16]
    e454:	f81e03a2 	stur	x2, [x29, #-32]
    e458:	d298b091 	mov	x17, #0xc584                	// #50564
    e45c:	f2a031b1 	movk	x17, #0x18d, lsl #16
    e460:	f2c00ab1 	movk	x17, #0x55, lsl #32
    e464:	f2e00011 	movk	x17, #0x0, lsl #48
    e468:	d63f0220 	blr	x17
    e46c:	d42003c0 	brk	#0x1e
    e470:	910083ff 	add	sp, sp, #0x20
    e474:	a8c17bfd 	ldp	x29, x30, [sp], #16
    e478:	d65f03c0 	ret
    e47c:	d503201f 	nop
    e480:	a9bf7bfd 	stp	x29, x30, [sp, #-16]!
    e484:	910003fd 	mov	x29, sp
    e488:	d10103ff 	sub	sp, sp, #0x40
    e48c:	f81f83a0 	stur	x0, [x29, #-8]
    e490:	f81f03a1 	stur	x1, [x29, #-16]
    e494:	f81e83a2 	stur	x2, [x29, #-24]
    e498:	d13fa3e0 	sub	x0, sp, #0xfe8
    e49c:	d2876101 	mov	x1, #0x3b08                	// #15112
    e4a0:	f2a000c1 	movk	x1, #0x6, lsl #16
    e4a4:	f2c00aa1 	movk	x1, #0x55, lsl #32
    e4a8:	f2e00001 	movk	x1, #0x0, lsl #48
    e4ac:	d2851102 	mov	x2, #0x2888                	// #10376
    e4b0:	f2a000c2 	movk	x2, #0x6, lsl #16
    e4b4:	f2c00aa2 	movk	x2, #0x55, lsl #32
    e4b8:	f2e00002 	movk	x2, #0x0, lsl #48
    e4bc:	d293ee91 	mov	x17, #0x9f74                	// #40820
    e4c0:	f2a031b1 	movk	x17, #0x18d, lsl #16
    e4c4:	f2c00ab1 	movk	x17, #0x55, lsl #32
    e4c8:	f2e00011 	movk	x17, #0x0, lsl #48
    e4cc:	d63f0220 	blr	x17
    e4d0:	d4200500 	brk	#0x28
    e4d4:	f85d83a0 	ldur	x0, [x29, #-40]
    e4d8:	7100001f 	cmp	w0, #0x0
    e4dc:	54000381 	b.ne	0xe54c  // b.any
    e4e0:	f81d83a0 	stur	x0, [x29, #-40]
    e4e4:	d298b091 	mov	x17, #0xc584                	// #50564
    e4e8:	f2a031b1 	movk	x17, #0x18d, lsl #16
    e4ec:	f2c00ab1 	movk	x17, #0x55, lsl #32
    e4f0:	f2e00011 	movk	x17, #0x0, lsl #48
    e4f4:	d63f0220 	blr	x17
    e4f8:	f85d83a0 	ldur	x0, [x29, #-40]
    e4fc:	f8408001 	ldur	x1, [x0, #8]
    e500:	d4200500 	brk	#0x28
    e504:	b85e43a2 	ldur	w2, [x29, #-28]
    e508:	6b02003f 	cmp	w1, w2
    e50c:	540002aa 	b.ge	0xe560  // b.tcont
    e510:	7100001f 	cmp	w0, #0x0
    e514:	54000481 	b.ne	0xe5a4  // b.any
    e518:	f81d83a0 	stur	x0, [x29, #-40]
    e51c:	b81e03a1 	stur	w1, [x29, #-32]
    e520:	b81e43a2 	stur	w2, [x29, #-28]
    e524:	d298b091 	mov	x17, #0xc584                	// #50564
    e528:	f2a031b1 	movk	x17, #0x18d, lsl #16
    e52c:	f2c00ab1 	movk	x17, #0x55, lsl #32
    e530:	f2e00011 	movk	x17, #0x0, lsl #48
    e534:	d63f0220 	blr	x17
    e538:	d42003c0 	brk	#0x1e
    e53c:	f85c83a0 	ldur	x0, [x29, #-56]
    e540:	f85f03a1 	ldur	x1, [x29, #-16]
    e544:	6b00003f 	cmp	w1, w0
    e548:	54000061 	b.ne	0xe554  // b.any
    e54c:	910103ff 	add	sp, sp, #0x40
    e550:	a8c17bfd 	ldp	x29, x30, [sp], #16
    e554:	d65f03c0 	ret
    e558:	f85f83a2 	ldur	x2, [x29, #-8]
    e55c:	11000443 	add	w3, w2, #0x1
    e560:	17ffffe8 	b	0xe500
    e564:	52800204 	mov	w4, #0x10                  	// #16
    e568:	72a00004 	movk	w4, #0x0, lsl #16
    e56c:	910103ff 	add	sp, sp, #0x40
    e570:	a8c17bfd 	ldp	x29, x30, [sp], #16
    e574:	d65f03c0 	ret
    e578:	d503201f 	nop
    e57c:	d503201f 	nop
    e580:	a9bf7bfd 	stp	x29, x30, [sp, #-16]!
    e584:	910003fd 	mov	x29, sp
    e588:	d10103ff 	sub	sp, sp, #0x40
    e58c:	d4200500 	brk	#0x28
    e590:	f85d83a3 	ldur	x3, [x29, #-40]
    e594:	7100007f 	cmp	w3, #0x0
    e598:	54000501 	b.ne	0xe638  // b.any
    e59c:	f81f83a0 	stur	x0, [x29, #-8]
    e5a0:	f81f03a1 	stur	x1, [x29, #-16]
    e5a4:	f81e83a2 	stur	x2, [x29, #-24]
    e5a8:	f81d83a3 	stur	x3, [x29, #-40]
    e5ac:	d298b091 	mov	x17, #0xc584                	// #50564
    e5b0:	f2a031b1 	movk	x17, #0x18d, lsl #16
    e5b4:	f2c00ab1 	movk	x17, #0x55, lsl #32
    e5b8:	f2e00011 	movk	x17, #0x0, lsl #48
    e5bc:	d63f0220 	blr	x17
    e5c0:	f85d83a0 	ldur	x0, [x29, #-40]
    e5c4:	f8408001 	ldur	x1, [x0, #8]
    e5c8:	f85e83a2 	ldur	x2, [x29, #-24]
    e5cc:	7100005f 	cmp	w2, #0x0
    e5d0:	54000240 	b.eq	0xe618  // b.none
    e5d4:	f81d83a0 	stur	x0, [x29, #-40]
    e5d8:	b81e43a1 	stur	w1, [x29, #-28]
    e5dc:	f81e83a2 	stur	x2, [x29, #-24]
    e5e0:	d13fa3e0 	sub	x0, sp, #0xfe8
    e5e4:	d2876101 	mov	x1, #0x3b08                	// #15112
    e5e8:	f2a000c1 	movk	x1, #0x6, lsl #16
    e5ec:	f2c00aa1 	movk	x1, #0x55, lsl #32
    e5f0:	f2e00001 	movk	x1, #0x0, lsl #48
    e5f4:	d2851102 	mov	x2, #0x2888                	// #10376
    e5f8:	f2a000c2 	movk	x2, #0x6, lsl #16
    e5fc:	f2c00aa2 	movk	x2, #0x55, lsl #32
    e600:	f2e00002 	movk	x2, #0x0, lsl #48
    e604:	d293ee91 	mov	x17, #0x9f74                	// #40820
    e608:	f2a031b1 	movk	x17, #0x18d, lsl #16
    e60c:	f2c00ab1 	movk	x17, #0x55, lsl #32
    e610:	f2e00011 	movk	x17, #0x0, lsl #48
    e614:	d63f0220 	blr	x17
    e618:	14000003 	b	0xe624
    e61c:	528000e0 	mov	w0, #0x7                   	// #7
    e620:	72a00000 	movk	w0, #0x0, lsl #16
    e624:	d4200100 	brk	#0x8
    e628:	b85d43a1 	ldur	w1, [x29, #-44]
    e62c:	b85e43a2 	ldur	w2, [x29, #-28]
    e630:	6b01005f 	cmp	w2, w1
    e634:	540000ab 	b.lt	0xe648  // b.tstop
    e638:	528000e3 	mov	w3, #0x7                   	// #7
    e63c:	72a00003 	movk	w3, #0x0, lsl #16
    e640:	d4200100 	brk	#0x8
    e644:	2a0003e1 	mov	w1, w0
    e648:	14000006 	b	0xe660
    e64c:	52800003 	mov	w3, #0x0                   	// #0
    e650:	72a00003 	movk	w3, #0x0, lsl #16
    e654:	6b01007f 	cmp	w3, w1
    e658:	5400004a 	b.ge	0xe660  // b.tcont
    e65c:	d42000e0 	brk	#0x7
    e660:	2a0003e1 	mov	w1, w0
    e664:	52800003 	mov	w3, #0x0                   	// #0
    e668:	72a00003 	movk	w3, #0x0, lsl #16
    e66c:	6b01007f 	cmp	w3, w1
    e670:	5400032b 	b.lt	0xe6d4  // b.tstop
    e674:	d4200500 	brk	#0x28
    e678:	f85d83a4 	ldur	x4, [x29, #-40]
    e67c:	7100009f 	cmp	w4, #0x0
    e680:	54000581 	b.ne	0xe730  // b.any
    e684:	b81d03a0 	stur	w0, [x29, #-48]
    e688:	b81d43a1 	stur	w1, [x29, #-44]
    e68c:	b81e43a2 	stur	w2, [x29, #-28]
    e690:	b81cc3a3 	stur	w3, [x29, #-52]
    e694:	f81d83a4 	stur	x4, [x29, #-40]
    e698:	d298b091 	mov	x17, #0xc584                	// #50564
    e69c:	f2a031b1 	movk	x17, #0x18d, lsl #16
    e6a0:	f2c00ab1 	movk	x17, #0x55, lsl #32
    e6a4:	f2e00011 	movk	x17, #0x0, lsl #48
    e6a8:	d63f0220 	blr	x17
    e6ac:	d42003c0 	brk	#0x1e
    e6b0:	f85c03a0 	ldur	x0, [x29, #-64]
    e6b4:	f85f03a1 	ldur	x1, [x29, #-16]
    e6b8:	6b00003f 	cmp	w1, w0
    e6bc:	54000061 	b.ne	0xe6c8  // b.any
    e6c0:	910103ff 	add	sp, sp, #0x40
    e6c4:	a8c17bfd 	ldp	x29, x30, [sp], #16
    e6c8:	d65f03c0 	ret
    e6cc:	f85f83a2 	ldur	x2, [x29, #-8]
    e6d0:	51000443 	sub	w3, w2, #0x1
    e6d4:	17ffffe3 	b	0xe660
    e6d8:	52800204 	mov	w4, #0x10                  	// #16
    e6dc:	72a00004 	movk	w4, #0x0, lsl #16
    e6e0:	910103ff 	add	sp, sp, #0x40
    e6e4:	a8c17bfd 	ldp	x29, x30, [sp], #16
    e6e8:	d65f03c0 	ret
    e6ec:	d503201f 	nop
    e6f0:	a9bf7bfd 	stp	x29, x30, [sp, #-16]!
    e6f4:	910003fd 	mov	x29, sp
    e6f8:	d101c3ff 	sub	sp, sp, #0x70
    e6fc:	d4200500 	brk	#0x28
    e700:	f85e83a1 	ldur	x1, [x29, #-24]
    e704:	7100003f 	cmp	w1, #0x0
    e708:	54000401 	b.ne	0xe788  // b.any
    e70c:	f81f83a0 	stur	x0, [x29, #-8]
    e710:	f81e83a1 	stur	x1, [x29, #-24]
    e714:	d298b091 	mov	x17, #0xc584                	// #50564
    e718:	f2a031b1 	movk	x17, #0x18d, lsl #16
    e71c:	f2c00ab1 	movk	x17, #0x55, lsl #32
    e720:	f2e00011 	movk	x17, #0x0, lsl #48
    e724:	d63f0220 	blr	x17
    e728:	f85e83a0 	ldur	x0, [x29, #-24]
    e72c:	f8408001 	ldur	x1, [x0, #8]
    e730:	d2852902 	mov	x2, #0x2948                	// #10568
    e734:	f2a000c2 	movk	x2, #0x6, lsl #16
    e738:	f2c00aa2 	movk	x2, #0x55, lsl #32
    e73c:	f2e00002 	movk	x2, #0x0, lsl #48
    e740:	f81e83a0 	stur	x0, [x29, #-24]
    e744:	b81f43a1 	stur	w1, [x29, #-12]
    e748:	f81d03a2 	stur	x2, [x29, #-48]
    e74c:	f85d03a0 	ldur	x0, [x29, #-48]
    e750:	b85f43a1 	ldur	w1, [x29, #-12]
    e754:	d28db011 	mov	x17, #0x6d80                	// #28032
    e758:	f2a031b1 	movk	x17, #0x18d, lsl #16
    e75c:	f2c00ab1 	movk	x17, #0x55, lsl #32
    e760:	f2e00011 	movk	x17, #0x0, lsl #48
    e764:	d63f0220 	blr	x17
    e768:	f81c83a0 	stur	x0, [x29, #-56]
    e76c:	52800001 	mov	w1, #0x0                   	// #0
    e770:	72a00001 	movk	w1, #0x0, lsl #16
    e774:	d4200500 	brk	#0x28
    e778:	f85e83a2 	ldur	x2, [x29, #-24]
    e77c:	7100005f 	cmp	w2, #0x0
    e780:	54000481 	b.ne	0xe810  // b.any
    e784:	f81d83a0 	stur	x0, [x29, #-40]
    e788:	b81e43a1 	stur	w1, [x29, #-28]
    e78c:	f81e83a2 	stur	x2, [x29, #-24]
    e790:	d298b091 	mov	x17, #0xc584                	// #50564
    e794:	f2a031b1 	movk	x17, #0x18d, lsl #16
    e798:	f2c00ab1 	movk	x17, #0x55, lsl #32
    e79c:	f2e00011 	movk	x17, #0x0, lsl #48
    e7a0:	d63f0220 	blr	x17
    e7a4:	f85e83a0 	ldur	x0, [x29, #-24]
    e7a8:	f8408001 	ldur	x1, [x0, #8]
    e7ac:	b85e43a2 	ldur	w2, [x29, #-28]
    e7b0:	6b02003f 	cmp	w1, w2
    e7b4:	5400024a 	b.ge	0xe7fc  // b.tcont
    e7b8:	b81c03a2 	stur	w2, [x29, #-64]
    e7bc:	f85f83a3 	ldur	x3, [x29, #-8]
    e7c0:	11000462 	add	w2, w3, #0x1
    e7c4:	d4200500 	brk	#0x28
    e7c8:	7100001f 	cmp	w0, #0x0
    e7cc:	54000501 	b.ne	0xe86c  // b.any
    e7d0:	f81e83a0 	stur	x0, [x29, #-24]
    e7d4:	b81c43a1 	stur	w1, [x29, #-60]
    e7d8:	b81e43a2 	stur	w2, [x29, #-28]
    e7dc:	f81f83a3 	stur	x3, [x29, #-8]
    e7e0:	d298b091 	mov	x17, #0xc584                	// #50564
    e7e4:	f2a031b1 	movk	x17, #0x18d, lsl #16
    e7e8:	f2c00ab1 	movk	x17, #0x55, lsl #32
    e7ec:	f2e00011 	movk	x17, #0x0, lsl #48
    e7f0:	d63f0220 	blr	x17
    e7f4:	d42003c0 	brk	#0x1e
    e7f8:	d4200a20 	brk	#0x51
    e7fc:	17ffffeb 	b	0xe7a8
    e800:	f85c83a0 	ldur	x0, [x29, #-56]
    e804:	9400009f 	bl	0xea80
    e808:	110007e1 	add	w1, wsp, #0x1
    e80c:	d4200ae0 	brk	#0x57
    e810:	f81a83a0 	stur	x0, [x29, #-88]
    e814:	381a73a1 	sturb	w1, [x29, #-89]
    e818:	f85a83a0 	ldur	x0, [x29, #-88]
    e81c:	f85983a1 	ldur	x1, [x29, #-104]
    e820:	97fffcd0 	bl	0xdb60
    e824:	9101c3ff 	add	sp, sp, #0x70
    e828:	a8c17bfd 	ldp	x29, x30, [sp], #16
    e82c:	d65f03c0 	ret
    e830:	a9bf7bfd 	stp	x29, x30, [sp, #-16]!
    e834:	910003fd 	mov	x29, sp
    e838:	d10083ff 	sub	sp, sp, #0x20
    e83c:	f81f83a0 	stur	x0, [x29, #-8]
    e840:	d28a8500 	mov	x0, #0x5428                	// #21544
    e844:	f2a000c0 	movk	x0, #0x6, lsl #16
    e848:	f2c00aa0 	movk	x0, #0x55, lsl #32
    e84c:	f2e00000 	movk	x0, #0x0, lsl #48
    e850:	d287fa11 	mov	x17, #0x3fd0                	// #16336
    e854:	f2a031b1 	movk	x17, #0x18d, lsl #16
    e858:	f2c00ab1 	movk	x17, #0x55, lsl #32
    e85c:	f2e00011 	movk	x17, #0x0, lsl #48
    e860:	d63f0220 	blr	x17
    e864:	d4200500 	brk	#0x28
    e868:	f81f03a0 	stur	x0, [x29, #-16]
    e86c:	f85f03a0 	ldur	x0, [x29, #-16]
    e870:	f85e83a1 	ldur	x1, [x29, #-24]
    e874:	97fffc4f 	bl	0xd9b0
    e878:	910083ff 	add	sp, sp, #0x20
    e87c:	a8c17bfd 	ldp	x29, x30, [sp], #16
    e880:	d65f03c0 	ret
    e884:	d503201f 	nop
    e888:	d503201f 	nop
    e88c:	d503201f 	nop
    e890:	a9bf7bfd 	stp	x29, x30, [sp, #-16]!
    e894:	910003fd 	mov	x29, sp
    e898:	d10083ff 	sub	sp, sp, #0x20
    e89c:	f81f83a0 	stur	x0, [x29, #-8]
    e8a0:	d28a9500 	mov	x0, #0x54a8                	// #21672
    e8a4:	f2a000c0 	movk	x0, #0x6, lsl #16
    e8a8:	f2c00aa0 	movk	x0, #0x55, lsl #32
    e8ac:	f2e00000 	movk	x0, #0x0, lsl #48
    e8b0:	d287fa11 	mov	x17, #0x3fd0                	// #16336
    e8b4:	f2a031b1 	movk	x17, #0x18d, lsl #16
    e8b8:	f2c00ab1 	movk	x17, #0x55, lsl #32
    e8bc:	f2e00011 	movk	x17, #0x0, lsl #48
    e8c0:	d63f0220 	blr	x17
    e8c4:	d4200500 	brk	#0x28
    e8c8:	f81f03a0 	stur	x0, [x29, #-16]
    e8cc:	f85f03a0 	ldur	x0, [x29, #-16]
    e8d0:	f85e83a1 	ldur	x1, [x29, #-24]
    e8d4:	97fffc87 	bl	0xdaf0
    e8d8:	910083ff 	add	sp, sp, #0x20
    e8dc:	a8c17bfd 	ldp	x29, x30, [sp], #16
    e8e0:	d65f03c0 	ret
    e8e4:	d503201f 	nop
    e8e8:	d503201f 	nop
    e8ec:	d503201f 	nop
    e8f0:	a9bf7bfd 	stp	x29, x30, [sp, #-16]!
    e8f4:	910003fd 	mov	x29, sp
    e8f8:	d101c3ff 	sub	sp, sp, #0x70
    e8fc:	d4200500 	brk	#0x28
    e900:	f85e03a2 	ldur	x2, [x29, #-32]
    e904:	7100005f 	cmp	w2, #0x0
    e908:	54000481 	b.ne	0xe998  // b.any
    e90c:	f81f83a0 	stur	x0, [x29, #-8]
    e910:	f81f03a1 	stur	x1, [x29, #-16]
    e914:	f81e03a2 	stur	x2, [x29, #-32]
    e918:	d298b091 	mov	x17, #0xc584                	// #50564
    e91c:	f2a031b1 	movk	x17, #0x18d, lsl #16
    e920:	f2c00ab1 	movk	x17, #0x55, lsl #32
    e924:	f2e00011 	movk	x17, #0x0, lsl #48
    e928:	d63f0220 	blr	x17
    e92c:	f85e03a0 	ldur	x0, [x29, #-32]
    e930:	f8408001 	ldur	x1, [x0, #8]
    e934:	d2852902 	mov	x2, #0x2948                	// #10568
    e938:	f2a000c2 	movk	x2, #0x6, lsl #16
    e93c:	f2c00aa2 	movk	x2, #0x55, lsl #32
    e940:	f2e00002 	movk	x2, #0x0, lsl #48
    e944:	f81e03a0 	stur	x0, [x29, #-32]
    e948:	b81ec3a1 	stur	w1, [x29, #-20]
    e94c:	f81c83a2 	stur	x2, [x29, #-56]
    e950:	f85c83a0 	ldur	x0, [x29, #-56]
    e954:	b85ec3a1 	ldur	w1, [x29, #-20]
    e958:	d28db011 	mov	x17, #0x6d80                	// #28032
    e95c:	f2a031b1 	movk	x17, #0x18d, lsl #16
    e960:	f2c00ab1 	movk	x17, #0x55, lsl #32
    e964:	f2e00011 	movk	x17, #0x0, lsl #48
    e968:	d63f0220 	blr	x17
    e96c:	f81c03a0 	stur	x0, [x29, #-64]
    e970:	52800001 	mov	w1, #0x0                   	// #0
    e974:	72a00001 	movk	w1, #0x0, lsl #16
    e978:	d4200500 	brk	#0x28
    e97c:	f85e03a2 	ldur	x2, [x29, #-32]
    e980:	7100005f 	cmp	w2, #0x0
    e984:	54000481 	b.ne	0xea14  // b.any
    e988:	f81d03a0 	stur	x0, [x29, #-48]
    e98c:	b81dc3a1 	stur	w1, [x29, #-36]
    e990:	f81e03a2 	stur	x2, [x29, #-32]
    e994:	d298b091 	mov	x17, #0xc584                	// #50564
    e998:	f2a031b1 	movk	x17, #0x18d, lsl #16
    e99c:	f2c00ab1 	movk	x17, #0x55, lsl #32
    e9a0:	f2e00011 	movk	x17, #0x0, lsl #48
    e9a4:	d63f0220 	blr	x17
    e9a8:	f85e03a0 	ldur	x0, [x29, #-32]
    e9ac:	f8408001 	ldur	x1, [x0, #8]
    e9b0:	b85dc3a2 	ldur	w2, [x29, #-36]
    e9b4:	6b02003f 	cmp	w1, w2
    e9b8:	540003ca 	b.ge	0xea30  // b.tcont
    e9bc:	b81b83a2 	stur	w2, [x29, #-72]
    e9c0:	f85f83a3 	ldur	x3, [x29, #-8]
    e9c4:	11000462 	add	w2, w3, #0x1
    e9c8:	f85f03a4 	ldur	x4, [x29, #-16]
    e9cc:	7100009f 	cmp	w4, #0x0
    e9d0:	54000581 	b.ne	0xea80  // b.any
    e9d4:	f81e03a0 	stur	x0, [x29, #-32]
    e9d8:	b81bc3a1 	stur	w1, [x29, #-68]
    e9dc:	b81dc3a2 	stur	w2, [x29, #-36]
    e9e0:	f81f83a3 	stur	x3, [x29, #-8]
    e9e4:	f81f03a4 	stur	x4, [x29, #-16]
    e9e8:	d298b091 	mov	x17, #0xc584                	// #50564
    e9ec:	f2a031b1 	movk	x17, #0x18d, lsl #16
    e9f0:	f2c00ab1 	movk	x17, #0x55, lsl #32
    e9f4:	f2e00011 	movk	x17, #0x0, lsl #48
    e9f8:	d63f0220 	blr	x17
    e9fc:	d4200500 	brk	#0x28
    ea00:	f85e03a0 	ldur	x0, [x29, #-32]
    ea04:	7100001f 	cmp	w0, #0x0
    ea08:	54000381 	b.ne	0xea78  // b.any
    ea0c:	f81e03a0 	stur	x0, [x29, #-32]
    ea10:	d298b091 	mov	x17, #0xc584                	// #50564
    ea14:	f2a031b1 	movk	x17, #0x18d, lsl #16
    ea18:	f2c00ab1 	movk	x17, #0x55, lsl #32
    ea1c:	f2e00011 	movk	x17, #0x0, lsl #48
    ea20:	d63f0220 	blr	x17
    ea24:	d42003c0 	brk	#0x1e
    ea28:	d4200400 	brk	#0x20
    ea2c:	d4200a20 	brk	#0x51
    ea30:	17ffffdf 	b	0xe9ac
    ea34:	f85c03a0 	ldur	x0, [x29, #-64]
    ea38:	94000012 	bl	0xea80
    ea3c:	110007e1 	add	w1, wsp, #0x1
    ea40:	d4200ae0 	brk	#0x57
    ea44:	f81a03a0 	stur	x0, [x29, #-96]
    ea48:	3819f3a1 	sturb	w1, [x29, #-97]
    ea4c:	f85a03a0 	ldur	x0, [x29, #-96]
    ea50:	f85903a1 	ldur	x1, [x29, #-112]
    ea54:	97fffc43 	bl	0xdb60
    ea58:	9101c3ff 	add	sp, sp, #0x70
    ea5c:	a8c17bfd 	ldp	x29, x30, [sp], #16
    ea60:	d65f03c0 	ret
    ea64:	d503201f 	nop
    ea68:	d503201f 	nop
    ea6c:	d503201f 	nop
    ea70:	a9bf7bfd 	stp	x29, x30, [sp, #-16]!
    ea74:	910003fd 	mov	x29, sp
    ea78:	d10143ff 	sub	sp, sp, #0x50
    ea7c:	f81f83a0 	stur	x0, [x29, #-8]
    ea80:	f81f03a1 	stur	x1, [x29, #-16]
    ea84:	d285e900 	mov	x0, #0x2f48                	// #12104
    ea88:	f2a000c0 	movk	x0, #0x6, lsl #16
    ea8c:	f2c00aa0 	movk	x0, #0x55, lsl #32
    ea90:	f2e00000 	movk	x0, #0x0, lsl #48
    ea94:	d287fa11 	mov	x17, #0x3fd0                	// #16336
    ea98:	f2a031b1 	movk	x17, #0x18d, lsl #16
    ea9c:	f2c00ab1 	movk	x17, #0x55, lsl #32
    eaa0:	f2e00011 	movk	x17, #0x0, lsl #48
    eaa4:	d63f0220 	blr	x17
    eaa8:	f81e83a0 	stur	x0, [x29, #-24]
    eaac:	f85e83a0 	ldur	x0, [x29, #-24]
    eab0:	94000008 	bl	0xead0
    eab4:	52800000 	mov	w0, #0x0                   	// #0
    eab8:	72a00000 	movk	w0, #0x0, lsl #16
    eabc:	d4200500 	brk	#0x28
    eac0:	f85d83a1 	ldur	x1, [x29, #-40]
    eac4:	7100003f 	cmp	w1, #0x0
    eac8:	54000401 	b.ne	0xeb48  // b.any
    eacc:	b81e43a0 	stur	w0, [x29, #-28]
    ead0:	f81d83a1 	stur	x1, [x29, #-40]
    ead4:	d298b091 	mov	x17, #0xc584                	// #50564
    ead8:	f2a031b1 	movk	x17, #0x18d, lsl #16
    eadc:	f2c00ab1 	movk	x17, #0x55, lsl #32
    eae0:	f2e00011 	movk	x17, #0x0, lsl #48
    eae4:	d63f0220 	blr	x17
    eae8:	f85d83a0 	ldur	x0, [x29, #-40]
    eaec:	f8408001 	ldur	x1, [x0, #8]
    eaf0:	b85e43a2 	ldur	w2, [x29, #-28]
    eaf4:	6b02003f 	cmp	w1, w2
    eaf8:	5400056a 	b.ge	0xeba4  // b.tcont
    eafc:	b81d43a2 	stur	w2, [x29, #-44]
    eb00:	f85f83a3 	ldur	x3, [x29, #-8]
    eb04:	11000462 	add	w2, w3, #0x1
    eb08:	d4200500 	brk	#0x28
    eb0c:	7100001f 	cmp	w0, #0x0
    eb10:	54000501 	b.ne	0xebb0  // b.any
    eb14:	f81d83a0 	stur	x0, [x29, #-40]
    eb18:	b81e03a1 	stur	w1, [x29, #-32]
    eb1c:	b81e43a2 	stur	w2, [x29, #-28]
    eb20:	f81f83a3 	stur	x3, [x29, #-8]
    eb24:	d298b091 	mov	x17, #0xc584                	// #50564
    eb28:	f2a031b1 	movk	x17, #0x18d, lsl #16
    eb2c:	f2c00ab1 	movk	x17, #0x55, lsl #32
    eb30:	f2e00011 	movk	x17, #0x0, lsl #48
    eb34:	d63f0220 	blr	x17
    eb38:	d42003c0 	brk	#0x1e
    eb3c:	f85f03a0 	ldur	x0, [x29, #-16]
    eb40:	7100001f 	cmp	w0, #0x0
    eb44:	54000381 	b.ne	0xebb4  // b.any
    eb48:	f81f03a0 	stur	x0, [x29, #-16]
    eb4c:	d298b091 	mov	x17, #0xc584                	// #50564
    eb50:	f2a031b1 	movk	x17, #0x18d, lsl #16
    eb54:	f2c00ab1 	movk	x17, #0x55, lsl #32
    eb58:	f2e00011 	movk	x17, #0x0, lsl #48
    eb5c:	d63f0220 	blr	x17
    eb60:	d4200400 	brk	#0x20
    eb64:	385c73a0 	ldurb	w0, [x29, #-57]
    eb68:	7100001f 	cmp	w0, #0x0
    eb6c:	540001a0 	b.eq	0xeba0  // b.none
    eb70:	f85e83a1 	ldur	x1, [x29, #-24]
    eb74:	7100003f 	cmp	w1, #0x0
    eb78:	54000401 	b.ne	0xebf8  // b.any
    eb7c:	381c73a0 	sturb	w0, [x29, #-57]
    eb80:	f81e83a1 	stur	x1, [x29, #-24]
    eb84:	d298b091 	mov	x17, #0xc584                	// #50564
    eb88:	f2a031b1 	movk	x17, #0x18d, lsl #16
    eb8c:	f2c00ab1 	movk	x17, #0x55, lsl #32
    eb90:	f2e00011 	movk	x17, #0x0, lsl #48
    eb94:	d63f0220 	blr	x17
    eb98:	f85e83a0 	ldur	x0, [x29, #-24]
    eb9c:	f85c83a1 	ldur	x1, [x29, #-56]
    eba0:	940000a8 	bl	0xee40
    eba4:	17ffffd2 	b	0xeaec
    eba8:	110007e1 	add	w1, wsp, #0x1
    ebac:	d4200ae0 	brk	#0x57
    ebb0:	b81d03a0 	stur	w0, [x29, #-48]
    ebb4:	381c73a1 	sturb	w1, [x29, #-57]
    ebb8:	f85e83a0 	ldur	x0, [x29, #-24]
    ebbc:	f85b03a1 	ldur	x1, [x29, #-80]
    ebc0:	97fffbe8 	bl	0xdb60
    ebc4:	910143ff 	add	sp, sp, #0x50
    ebc8:	a8c17bfd 	ldp	x29, x30, [sp], #16
    ebcc:	d65f03c0 	ret
    ebd0:	a9bf7bfd 	stp	x29, x30, [sp, #-16]!
    ebd4:	910003fd 	mov	x29, sp
    ebd8:	d100c3ff 	sub	sp, sp, #0x30
    ebdc:	528005a2 	mov	w2, #0x2d                  	// #45
    ebe0:	72a00002 	movk	w2, #0x0, lsl #16
    ebe4:	6b01005f 	cmp	w2, w1
    ebe8:	54000261 	b.ne	0xec34  // b.any
    ebec:	d4200500 	brk	#0x28
    ebf0:	f85e03a3 	ldur	x3, [x29, #-32]
    ebf4:	7100007f 	cmp	w3, #0x0
    ebf8:	54000501 	b.ne	0xec98  // b.any
    ebfc:	f81f83a0 	stur	x0, [x29, #-8]
    ec00:	b81f43a1 	stur	w1, [x29, #-12]
    ec04:	b81ec3a2 	stur	w2, [x29, #-20]
    ec08:	f81e03a3 	stur	x3, [x29, #-32]
    ec0c:	d298b091 	mov	x17, #0xc584                	// #50564
    ec10:	f2a031b1 	movk	x17, #0x18d, lsl #16
    ec14:	f2c00ab1 	movk	x17, #0x55, lsl #32
    ec18:	f2e00011 	movk	x17, #0x0, lsl #48
    ec1c:	d63f0220 	blr	x17
    ec20:	f85e03a0 	ldur	x0, [x29, #-32]
    ec24:	f8408001 	ldur	x1, [x0, #8]
    ec28:	d4200760 	brk	#0x3b
    ec2c:	9100c3ff 	add	sp, sp, #0x30
    ec30:	a8c17bfd 	ldp	x29, x30, [sp], #16
    ec34:	d65f03c0 	ret
    ec38:	aa1f03e2 	mov	x2, xzr
    ec3c:	9100c3ff 	add	sp, sp, #0x30
    ec40:	a8c17bfd 	ldp	x29, x30, [sp], #16
    ec44:	d65f03c0 	ret
    ec48:	d503201f 	nop
    ec4c:	d503201f 	nop
    ec50:	a9bf7bfd 	stp	x29, x30, [sp, #-16]!
    ec54:	910003fd 	mov	x29, sp
    ec58:	d10203ff 	sub	sp, sp, #0x80
    ec5c:	d4200500 	brk	#0x28
    ec60:	d4200aa0 	brk	#0x55
    ec64:	f85e03a2 	ldur	x2, [x29, #-32]
    ec68:	6b01005f 	cmp	w2, w1
    ec6c:	54000081 	b.ne	0xec7c  // b.any
    ec70:	d4200500 	brk	#0x28
    ec74:	910203ff 	add	sp, sp, #0x80
    ec78:	a8c17bfd 	ldp	x29, x30, [sp], #16
    ec7c:	d65f03c0 	ret
    ec80:	d4200500 	brk	#0x28
    ec84:	385d73a3 	ldurb	w3, [x29, #-41]
    ec88:	7100047f 	cmp	w3, #0x1
    ec8c:	54000080 	b.eq	0xec9c  // b.none
    ec90:	aa1f03e4 	mov	x4, xzr
    ec94:	910203ff 	add	sp, sp, #0x80
    ec98:	a8c17bfd 	ldp	x29, x30, [sp], #16
    ec9c:	d65f03c0 	ret
    eca0:	aa1f03e5 	mov	x5, xzr
    eca4:	d2857502 	mov	x2, #0x2ba8                	// #11176
    eca8:	f2a000c2 	movk	x2, #0x6, lsl #16
    ecac:	f2c00aa2 	movk	x2, #0x55, lsl #32
    ecb0:	f2e00002 	movk	x2, #0x0, lsl #48
    ecb4:	6b01005f 	cmp	w2, w1
    ecb8:	54000de1 	b.ne	0xee74  // b.any
    ecbc:	aa1f03e6 	mov	x6, xzr
    ecc0:	d4200500 	brk	#0x28
    ecc4:	f85e83a7 	ldur	x7, [x29, #-24]
    ecc8:	710000ff 	cmp	w7, #0x0
    eccc:	54000701 	b.ne	0xedac  // b.any
    ecd0:	f81f83a0 	stur	x0, [x29, #-8]
    ecd4:	f81f03a1 	stur	x1, [x29, #-16]
    ecd8:	f81e03a2 	stur	x2, [x29, #-32]
    ecdc:	381d73a3 	sturb	w3, [x29, #-41]
    ece0:	f81d83a4 	stur	x4, [x29, #-40]
    ece4:	f81c83a5 	stur	x5, [x29, #-56]
    ece8:	f81c03a6 	stur	x6, [x29, #-64]
    ecec:	f81e83a7 	stur	x7, [x29, #-24]
    ecf0:	d298b091 	mov	x17, #0xc584                	// #50564
    ecf4:	f2a031b1 	movk	x17, #0x18d, lsl #16
    ecf8:	f2c00ab1 	movk	x17, #0x55, lsl #32
    ecfc:	f2e00011 	movk	x17, #0x0, lsl #48
    ed00:	d63f0220 	blr	x17
    ed04:	f85e83a0 	ldur	x0, [x29, #-24]
    ed08:	f8408001 	ldur	x1, [x0, #8]
    ed0c:	52800062 	mov	w2, #0x3                   	// #3
    ed10:	72a00002 	movk	w2, #0x0, lsl #16
    ed14:	d42001c0 	brk	#0xe
    ed18:	f81e83a0 	stur	x0, [x29, #-24]
    ed1c:	b81b43a1 	stur	w1, [x29, #-76]
    ed20:	b81b03a2 	stur	w2, [x29, #-80]
    ed24:	b85b43a0 	ldur	w0, [x29, #-76]
    ed28:	d2905f91 	mov	x17, #0x82fc                	// #33532
    ed2c:	f2a031b1 	movk	x17, #0x18d, lsl #16
    ed30:	f2c00ab1 	movk	x17, #0x55, lsl #32
    ed34:	f2e00011 	movk	x17, #0x0, lsl #48
    ed38:	d63f0220 	blr	x17
    ed3c:	f81c03a0 	stur	x0, [x29, #-64]
    ed40:	52800001 	mov	w1, #0x0                   	// #0
    ed44:	72a00001 	movk	w1, #0x0, lsl #16
    ed48:	d4200500 	brk	#0x28
    ed4c:	f85e83a2 	ldur	x2, [x29, #-24]
    ed50:	7100005f 	cmp	w2, #0x0
    ed54:	54000481 	b.ne	0xede4  // b.any
    ed58:	f81b83a0 	stur	x0, [x29, #-72]
    ed5c:	b81b43a1 	stur	w1, [x29, #-76]
    ed60:	f81e83a2 	stur	x2, [x29, #-24]
    ed64:	d298b091 	mov	x17, #0xc584                	// #50564
    ed68:	f2a031b1 	movk	x17, #0x18d, lsl #16
    ed6c:	f2c00ab1 	movk	x17, #0x55, lsl #32
    ed70:	f2e00011 	movk	x17, #0x0, lsl #48
    ed74:	d63f0220 	blr	x17
    ed78:	f85e83a0 	ldur	x0, [x29, #-24]
    ed7c:	f8408001 	ldur	x1, [x0, #8]
    ed80:	b85b43a2 	ldur	w2, [x29, #-76]
    ed84:	6b02003f 	cmp	w1, w2
    ed88:	5400046a 	b.ge	0xee14  // b.tcont
    ed8c:	b81ac3a2 	stur	w2, [x29, #-84]
    ed90:	f85f83a3 	ldur	x3, [x29, #-8]
    ed94:	11000462 	add	w2, w3, #0x1
    ed98:	d4200500 	brk	#0x28
    ed9c:	7100001f 	cmp	w0, #0x0
    eda0:	54000501 	b.ne	0xee40  // b.any
    eda4:	f81e83a0 	stur	x0, [x29, #-24]
    eda8:	b81b03a1 	stur	w1, [x29, #-80]
    edac:	b81b43a2 	stur	w2, [x29, #-76]
    edb0:	f81f83a3 	stur	x3, [x29, #-8]
    edb4:	d298b091 	mov	x17, #0xc584                	// #50564
    edb8:	f2a031b1 	movk	x17, #0x18d, lsl #16
    edbc:	f2c00ab1 	movk	x17, #0x55, lsl #32
    edc0:	f2e00011 	movk	x17, #0x0, lsl #48
    edc4:	d63f0220 	blr	x17
    edc8:	d42003c0 	brk	#0x1e
    edcc:	d13f63e0 	sub	x0, sp, #0xfd8
    edd0:	d2852901 	mov	x1, #0x2948                	// #10568
    edd4:	f2a000c1 	movk	x1, #0x6, lsl #16
    edd8:	f2c00aa1 	movk	x1, #0x55, lsl #32
    eddc:	f2e00001 	movk	x1, #0x0, lsl #48
    ede0:	d2851102 	mov	x2, #0x2888                	// #10376
    ede4:	f2a000c2 	movk	x2, #0x6, lsl #16
    ede8:	f2c00aa2 	movk	x2, #0x55, lsl #32
    edec:	f2e00002 	movk	x2, #0x0, lsl #48
    edf0:	d293ee91 	mov	x17, #0x9f74                	// #40820
    edf4:	f2a031b1 	movk	x17, #0x18d, lsl #16
    edf8:	f2c00ab1 	movk	x17, #0x55, lsl #32
    edfc:	f2e00011 	movk	x17, #0x0, lsl #48
    ee00:	d63f0220 	blr	x17
    ee04:	52800060 	mov	w0, #0x3                   	// #3
    ee08:	72a00000 	movk	w0, #0x0, lsl #16
    ee0c:	d42001c0 	brk	#0xe
    ee10:	d4200a00 	brk	#0x50
    ee14:	17ffffda 	b	0xed7c
    ee18:	d4200500 	brk	#0x28
    ee1c:	f85e83a1 	ldur	x1, [x29, #-24]
    ee20:	7100003f 	cmp	w1, #0x0
    ee24:	54000401 	b.ne	0xeea4  // b.any
    ee28:	b81a03a0 	stur	w0, [x29, #-96]
    ee2c:	f81e83a1 	stur	x1, [x29, #-24]
    ee30:	d298b091 	mov	x17, #0xc584                	// #50564
    ee34:	f2a031b1 	movk	x17, #0x18d, lsl #16
    ee38:	f2c00ab1 	movk	x17, #0x55, lsl #32
    ee3c:	f2e00011 	movk	x17, #0x0, lsl #48
    ee40:	d63f0220 	blr	x17
    ee44:	f85e83a0 	ldur	x0, [x29, #-24]
    ee48:	f8408001 	ldur	x1, [x0, #8]
    ee4c:	f81e83a0 	stur	x0, [x29, #-24]
    ee50:	b81b43a1 	stur	w1, [x29, #-76]
    ee54:	f85c03a0 	ldur	x0, [x29, #-64]
    ee58:	b85b43a1 	ldur	w1, [x29, #-76]
    ee5c:	97ffd7b9 	bl	0x4d40
    ee60:	d4200520 	brk	#0x29
    ee64:	110003e1 	mov	w1, wsp
    ee68:	d4200520 	brk	#0x29
    ee6c:	910203ff 	add	sp, sp, #0x80
    ee70:	a8c17bfd 	ldp	x29, x30, [sp], #16
    ee74:	d65f03c0 	ret
    ee78:	aa1f03e2 	mov	x2, xzr
    ee7c:	d2858d03 	mov	x3, #0x2c68                	// #11368
    ee80:	f2a000c3 	movk	x3, #0x6, lsl #16
    ee84:	f2c00aa3 	movk	x3, #0x55, lsl #32
    ee88:	f2e00003 	movk	x3, #0x0, lsl #48
    ee8c:	f85f03a4 	ldur	x4, [x29, #-16]
    ee90:	6b04007f 	cmp	w3, w4
    ee94:	54000d41 	b.ne	0xf03c  // b.any
    ee98:	aa1f03e5 	mov	x5, xzr
    ee9c:	d4200500 	brk	#0x28
    eea0:	f85e83a6 	ldur	x6, [x29, #-24]
    eea4:	710000df 	cmp	w6, #0x0
    eea8:	54000681 	b.ne	0xef78  // b.any
    eeac:	f81983a0 	stur	x0, [x29, #-104]
    eeb0:	381d73a1 	sturb	w1, [x29, #-41]
    eeb4:	f81903a2 	stur	x2, [x29, #-112]
    eeb8:	f81e03a3 	stur	x3, [x29, #-32]
    eebc:	f81f03a4 	stur	x4, [x29, #-16]
    eec0:	f81c03a5 	stur	x5, [x29, #-64]
    eec4:	f81e83a6 	stur	x6, [x29, #-24]
    eec8:	d298b091 	mov	x17, #0xc584                	// #50564
    eecc:	f2a031b1 	movk	x17, #0x18d, lsl #16
    eed0:	f2c00ab1 	movk	x17, #0x55, lsl #32
    eed4:	f2e00011 	movk	x17, #0x0, lsl #48
    eed8:	d63f0220 	blr	x17
    eedc:	f85e83a0 	ldur	x0, [x29, #-24]
    eee0:	f8408001 	ldur	x1, [x0, #8]
    eee4:	52800242 	mov	w2, #0x12                  	// #18
    eee8:	72a00002 	movk	w2, #0x0, lsl #16
    eeec:	d42001c0 	brk	#0xe
    eef0:	f81e83a0 	stur	x0, [x29, #-24]
    eef4:	b81b43a1 	stur	w1, [x29, #-76]
    eef8:	b81b03a2 	stur	w2, [x29, #-80]
    eefc:	b85b43a0 	ldur	w0, [x29, #-76]
    ef00:	d2905f91 	mov	x17, #0x82fc                	// #33532
    ef04:	f2a031b1 	movk	x17, #0x18d, lsl #16
    ef08:	f2c00ab1 	movk	x17, #0x55, lsl #32
    ef0c:	f2e00011 	movk	x17, #0x0, lsl #48
    ef10:	d63f0220 	blr	x17
    ef14:	f81c03a0 	stur	x0, [x29, #-64]
    ef18:	52800001 	mov	w1, #0x0                   	// #0
    ef1c:	72a00001 	movk	w1, #0x0, lsl #16
    ef20:	d4200500 	brk	#0x28
    ef24:	f85e83a2 	ldur	x2, [x29, #-24]
    ef28:	7100005f 	cmp	w2, #0x0
    ef2c:	54000481 	b.ne	0xefbc  // b.any
    ef30:	f81b83a0 	stur	x0, [x29, #-72]
    ef34:	b81b43a1 	stur	w1, [x29, #-76]
    ef38:	f81e83a2 	stur	x2, [x29, #-24]
    ef3c:	d298b091 	mov	x17, #0xc584                	// #50564
    ef40:	f2a031b1 	movk	x17, #0x18d, lsl #16
    ef44:	f2c00ab1 	movk	x17, #0x55, lsl #32
    ef48:	f2e00011 	movk	x17, #0x0, lsl #48
    ef4c:	d63f0220 	blr	x17
    ef50:	f85e83a0 	ldur	x0, [x29, #-24]
    ef54:	f8408001 	ldur	x1, [x0, #8]
    ef58:	b85b43a2 	ldur	w2, [x29, #-76]
    ef5c:	6b02003f 	cmp	w1, w2
    ef60:	540003ea 	b.ge	0xefdc  // b.tcont
    ef64:	b81ac3a2 	stur	w2, [x29, #-84]
    ef68:	f85f83a3 	ldur	x3, [x29, #-8]
    ef6c:	11000462 	add	w2, w3, #0x1
    ef70:	d4200500 	brk	#0x28
    ef74:	7100001f 	cmp	w0, #0x0
    ef78:	54000501 	b.ne	0xf018  // b.any
    ef7c:	f81e83a0 	stur	x0, [x29, #-24]
    ef80:	b81b03a1 	stur	w1, [x29, #-80]
    ef84:	b81b43a2 	stur	w2, [x29, #-76]
    ef88:	f81f83a3 	stur	x3, [x29, #-8]
    ef8c:	d298b091 	mov	x17, #0xc584                	// #50564
    ef90:	f2a031b1 	movk	x17, #0x18d, lsl #16
    ef94:	f2c00ab1 	movk	x17, #0x55, lsl #32
    ef98:	f2e00011 	movk	x17, #0x0, lsl #48
    ef9c:	d63f0220 	blr	x17
    efa0:	d42003c0 	brk	#0x1e
    efa4:	d13f63e0 	sub	x0, sp, #0xfd8
    efa8:	d2852901 	mov	x1, #0x2948                	// #10568
    efac:	f2a000c1 	movk	x1, #0x6, lsl #16
    efb0:	f2c00aa1 	movk	x1, #0x55, lsl #32
    efb4:	f2e00001 	movk	x1, #0x0, lsl #48
    efb8:	d2952111 	mov	x17, #0xa908                	// #43272
    efbc:	f2a031b1 	movk	x17, #0x18d, lsl #16
    efc0:	f2c00ab1 	movk	x17, #0x55, lsl #32
    efc4:	f2e00011 	movk	x17, #0x0, lsl #48
    efc8:	d63f0220 	blr	x17
    efcc:	52800240 	mov	w0, #0x12                  	// #18
    efd0:	72a00000 	movk	w0, #0x0, lsl #16
    efd4:	d42001c0 	brk	#0xe
    efd8:	d4200a00 	brk	#0x50
    efdc:	17ffffde 	b	0xef54
    efe0:	d4200500 	brk	#0x28
    efe4:	f85e83a1 	ldur	x1, [x29, #-24]
    efe8:	7100003f 	cmp	w1, #0x0
    efec:	54000401 	b.ne	0xf06c  // b.any
    eff0:	b81a43a0 	stur	w0, [x29, #-92]
    eff4:	f81e83a1 	stur	x1, [x29, #-24]
    eff8:	d298b091 	mov	x17, #0xc584                	// #50564
    effc:	f2a031b1 	movk	x17, #0x18d, lsl #16
    f000:	f2c00ab1 	movk	x17, #0x55, lsl #32
    f004:	f2e00011 	movk	x17, #0x0, lsl #48
    f008:	d63f0220 	blr	x17
    f00c:	f85e83a0 	ldur	x0, [x29, #-24]
    f010:	f8408001 	ldur	x1, [x0, #8]
    f014:	f81e83a0 	stur	x0, [x29, #-24]
    f018:	b81b43a1 	stur	w1, [x29, #-76]
    f01c:	f85c03a0 	ldur	x0, [x29, #-64]
    f020:	b85b43a1 	ldur	w1, [x29, #-76]
    f024:	97ffd78f 	bl	0x4e60
    f028:	d4200520 	brk	#0x29
    f02c:	110003e1 	mov	w1, wsp
    f030:	d4200520 	brk	#0x29
    f034:	910203ff 	add	sp, sp, #0x80
    f038:	a8c17bfd 	ldp	x29, x30, [sp], #16
    f03c:	d65f03c0 	ret
    f040:	aa1f03e2 	mov	x2, xzr
    f044:	910203ff 	add	sp, sp, #0x80
    f048:	a8c17bfd 	ldp	x29, x30, [sp], #16
    f04c:	d65f03c0 	ret
    f050:	a9bf7bfd 	stp	x29, x30, [sp, #-16]!
    f054:	910003fd 	mov	x29, sp
    f058:	d10083ff 	sub	sp, sp, #0x20
    f05c:	d4200500 	brk	#0x28
    f060:	f85e83a2 	ldur	x2, [x29, #-24]
    f064:	6b01005f 	cmp	w2, w1
    f068:	540000a1 	b.ne	0xf07c  // b.any
    f06c:	52800003 	mov	w3, #0x0                   	// #0
    f070:	72a00003 	movk	w3, #0x0, lsl #16
    f074:	910083ff 	add	sp, sp, #0x20
    f078:	a8c17bfd 	ldp	x29, x30, [sp], #16
    f07c:	d65f03c0 	ret
    f080:	f81f83a0 	stur	x0, [x29, #-8]
    f084:	f81f03a1 	stur	x1, [x29, #-16]
    f088:	f81e83a2 	stur	x2, [x29, #-24]
    f08c:	b81e43a3 	stur	w3, [x29, #-28]
    f090:	f85f83a0 	ldur	x0, [x29, #-8]
    f094:	f85f03a1 	ldur	x1, [x29, #-16]
    f098:	d2955811 	mov	x17, #0xaac0                	// #43712
    f09c:	f2a031b1 	movk	x17, #0x18d, lsl #16
    f0a0:	f2c00ab1 	movk	x17, #0x55, lsl #32
    f0a4:	f2e00011 	movk	x17, #0x0, lsl #48
    f0a8:	d63f0220 	blr	x17
    f0ac:	910083ff 	add	sp, sp, #0x20
    f0b0:	a8c17bfd 	ldp	x29, x30, [sp], #16
    f0b4:	d65f03c0 	ret
    f0b8:	d503201f 	nop
    f0bc:	d503201f 	nop
    f0c0:	a9bf7bfd 	stp	x29, x30, [sp, #-16]!
    f0c4:	910003fd 	mov	x29, sp
    f0c8:	d10083ff 	sub	sp, sp, #0x20
    f0cc:	aa1f03e2 	mov	x2, xzr
    f0d0:	f81f83a0 	stur	x0, [x29, #-8]
    f0d4:	f81f03a1 	stur	x1, [x29, #-16]
    f0d8:	f81e83a2 	stur	x2, [x29, #-24]
    f0dc:	d13fa3e0 	sub	x0, sp, #0xfe8
    f0e0:	d2852901 	mov	x1, #0x2948                	// #10568
    f0e4:	f2a000c1 	movk	x1, #0x6, lsl #16
    f0e8:	f2c00aa1 	movk	x1, #0x55, lsl #32
    f0ec:	f2e00001 	movk	x1, #0x0, lsl #48
    f0f0:	d285a102 	mov	x2, #0x2d08                	// #11528
    f0f4:	f2a000c2 	movk	x2, #0x6, lsl #16
    f0f8:	f2c00aa2 	movk	x2, #0x55, lsl #32
    f0fc:	f2e00002 	movk	x2, #0x0, lsl #48
    f100:	d2942991 	mov	x17, #0xa14c                	// #41292
    f104:	f2a031b1 	movk	x17, #0x18d, lsl #16
    f108:	f2c00ab1 	movk	x17, #0x55, lsl #32
    f10c:	f2e00011 	movk	x17, #0x0, lsl #48
    f110:	d63f0220 	blr	x17
    f114:	f85f83a0 	ldur	x0, [x29, #-8]
    f118:	f85e03a1 	ldur	x1, [x29, #-32]
    f11c:	97ffd559 	bl	0x4680
    f120:	d4200520 	brk	#0x29
    f124:	910083ff 	add	sp, sp, #0x20
    f128:	a8c17bfd 	ldp	x29, x30, [sp], #16
    f12c:	d65f03c0 	ret
    f130:	a9bf7bfd 	stp	x29, x30, [sp, #-16]!
    f134:	910003fd 	mov	x29, sp
    f138:	d10083ff 	sub	sp, sp, #0x20
    f13c:	d4200500 	brk	#0x28
    f140:	d4200500 	brk	#0x28
    f144:	f85e03a1 	ldur	x1, [x29, #-32]
    f148:	7100003f 	cmp	w1, #0x0
    f14c:	54000401 	b.ne	0xf1cc  // b.any
    f150:	f81f83a0 	stur	x0, [x29, #-8]
    f154:	f81e03a1 	stur	x1, [x29, #-32]
    f158:	d298b091 	mov	x17, #0xc584                	// #50564
    f15c:	f2a031b1 	movk	x17, #0x18d, lsl #16
    f160:	f2c00ab1 	movk	x17, #0x55, lsl #32
    f164:	f2e00011 	movk	x17, #0x0, lsl #48
    f168:	d63f0220 	blr	x17
    f16c:	f85e03a0 	ldur	x0, [x29, #-32]
    f170:	f8408001 	ldur	x1, [x0, #8]
    f174:	b85f03a2 	ldur	w2, [x29, #-16]
    f178:	6b02003f 	cmp	w1, w2
    f17c:	5400004b 	b.lt	0xf184  // b.tstop
    f180:	110003e3 	mov	w3, wsp
    f184:	14000001 	b	0xf188
    f188:	110007e3 	add	w3, wsp, #0x1
    f18c:	910083ff 	add	sp, sp, #0x20
    f190:	a8c17bfd 	ldp	x29, x30, [sp], #16
    f194:	d65f03c0 	ret
    f198:	d503201f 	nop
    f19c:	d503201f 	nop
    f1a0:	a9bf7bfd 	stp	x29, x30, [sp, #-16]!
    f1a4:	910003fd 	mov	x29, sp
    f1a8:	d100c3ff 	sub	sp, sp, #0x30
    f1ac:	d4200500 	brk	#0x28
    f1b0:	f85e83a1 	ldur	x1, [x29, #-24]
    f1b4:	7100003f 	cmp	w1, #0x0
    f1b8:	54000401 	b.ne	0xf238  // b.any
    f1bc:	f81f83a0 	stur	x0, [x29, #-8]
    f1c0:	f81e83a1 	stur	x1, [x29, #-24]
    f1c4:	d298b091 	mov	x17, #0xc584                	// #50564
    f1c8:	f2a031b1 	movk	x17, #0x18d, lsl #16
    f1cc:	f2c00ab1 	movk	x17, #0x55, lsl #32
    f1d0:	f2e00011 	movk	x17, #0x0, lsl #48
    f1d4:	d63f0220 	blr	x17
    f1d8:	f85e83a0 	ldur	x0, [x29, #-24]
    f1dc:	f8410001 	ldur	x1, [x0, #16]
    f1e0:	f85f83a2 	ldur	x2, [x29, #-8]
    f1e4:	f8410043 	ldur	x3, [x2, #16]
    f1e8:	b81e03a3 	stur	w3, [x29, #-32]
    f1ec:	11000443 	add	w3, w2, #0x1
    f1f0:	f8000022 	stur	x2, [x1]
    f1f4:	d42009a0 	brk	#0x4d
    f1f8:	9100c3ff 	add	sp, sp, #0x30
    f1fc:	a8c17bfd 	ldp	x29, x30, [sp], #16
    f200:	d65f03c0 	ret
    f204:	d503201f 	nop
    f208:	d503201f 	nop
    f20c:	d503201f 	nop
    f210:	a9bf7bfd 	stp	x29, x30, [sp, #-16]!
    f214:	910003fd 	mov	x29, sp
    f218:	d10083ff 	sub	sp, sp, #0x20
    f21c:	aa1f03e2 	mov	x2, xzr
    f220:	f81f83a0 	stur	x0, [x29, #-8]
    f224:	f81f03a1 	stur	x1, [x29, #-16]
    f228:	f81e83a2 	stur	x2, [x29, #-24]
    f22c:	d13fa3e0 	sub	x0, sp, #0xfe8
    f230:	d2852901 	mov	x1, #0x2948                	// #10568
    f234:	f2a000c1 	movk	x1, #0x6, lsl #16
    f238:	f2c00aa1 	movk	x1, #0x55, lsl #32
    f23c:	f2e00001 	movk	x1, #0x0, lsl #48
    f240:	d285a102 	mov	x2, #0x2d08                	// #11528
    f244:	f2a000c2 	movk	x2, #0x6, lsl #16
    f248:	f2c00aa2 	movk	x2, #0x55, lsl #32
    f24c:	f2e00002 	movk	x2, #0x0, lsl #48
    f250:	d2942991 	mov	x17, #0xa14c                	// #41292
    f254:	f2a031b1 	movk	x17, #0x18d, lsl #16
    f258:	f2c00ab1 	movk	x17, #0x55, lsl #32
    f25c:	f2e00011 	movk	x17, #0x0, lsl #48
    f260:	d63f0220 	blr	x17
    f264:	f85f83a0 	ldur	x0, [x29, #-8]
    f268:	f85e03a1 	ldur	x1, [x29, #-32]
    f26c:	97ffd545 	bl	0x4780
    f270:	d4200520 	brk	#0x29
    f274:	910083ff 	add	sp, sp, #0x20
    f278:	a8c17bfd 	ldp	x29, x30, [sp], #16
    f27c:	d65f03c0 	ret
    f280:	a9bf7bfd 	stp	x29, x30, [sp, #-16]!
    f284:	910003fd 	mov	x29, sp
    f288:	d10083ff 	sub	sp, sp, #0x20
    f28c:	f81f83a0 	stur	x0, [x29, #-8]
    f290:	d285e900 	mov	x0, #0x2f48                	// #12104
    f294:	f2a000c0 	movk	x0, #0x6, lsl #16
    f298:	f2c00aa0 	movk	x0, #0x55, lsl #32
    f29c:	f2e00000 	movk	x0, #0x0, lsl #48
    f2a0:	d287fa11 	mov	x17, #0x3fd0                	// #16336
    f2a4:	f2a031b1 	movk	x17, #0x18d, lsl #16
    f2a8:	f2c00ab1 	movk	x17, #0x55, lsl #32
    f2ac:	f2e00011 	movk	x17, #0x0, lsl #48
    f2b0:	d63f0220 	blr	x17
    f2b4:	f8008000 	stur	x0, [x0, #8]
    f2b8:	d4200a60 	brk	#0x53
    f2bc:	f85f83a1 	ldur	x1, [x29, #-8]
    f2c0:	f8004020 	stur	x0, [x1, #4]
    f2c4:	910083ff 	add	sp, sp, #0x20
    f2c8:	a8c17bfd 	ldp	x29, x30, [sp], #16
    f2cc:	d65f03c0 	ret
    f2d0:	a9bf7bfd 	stp	x29, x30, [sp, #-16]!
    f2d4:	910003fd 	mov	x29, sp
    f2d8:	d10083ff 	sub	sp, sp, #0x20
    f2dc:	52800001 	mov	w1, #0x0                   	// #0
    f2e0:	72a00001 	movk	w1, #0x0, lsl #16
    f2e4:	d4200520 	brk	#0x29
    f2e8:	52800001 	mov	w1, #0x0                   	// #0
    f2ec:	72a00001 	movk	w1, #0x0, lsl #16
    f2f0:	d2852902 	mov	x2, #0x2948                	// #10568
    f2f4:	f2a000c2 	movk	x2, #0x6, lsl #16
    f2f8:	f2c00aa2 	movk	x2, #0x55, lsl #32
    f2fc:	f2e00002 	movk	x2, #0x0, lsl #48
    f300:	f81f83a0 	stur	x0, [x29, #-8]
    f304:	b81f43a1 	stur	w1, [x29, #-12]
    f308:	f81e03a2 	stur	x2, [x29, #-32]
    f30c:	f85e03a0 	ldur	x0, [x29, #-32]
    f310:	b85f43a1 	ldur	w1, [x29, #-12]
    f314:	d28db011 	mov	x17, #0x6d80                	// #28032
    f318:	f2a031b1 	movk	x17, #0x18d, lsl #16
    f31c:	f2c00ab1 	movk	x17, #0x55, lsl #32
    f320:	f2e00011 	movk	x17, #0x0, lsl #48
    f324:	d63f0220 	blr	x17
    f328:	d4200520 	brk	#0x29
    f32c:	910083ff 	add	sp, sp, #0x20
    f330:	a8c17bfd 	ldp	x29, x30, [sp], #16
    f334:	d65f03c0 	ret
    f338:	d503201f 	nop
    f33c:	d503201f 	nop
    f340:	a9bf7bfd 	stp	x29, x30, [sp, #-16]!
    f344:	910003fd 	mov	x29, sp
    f348:	d10103ff 	sub	sp, sp, #0x40
    f34c:	d4200500 	brk	#0x28
    f350:	7100003f 	cmp	w1, #0x0
    f354:	54000401 	b.ne	0xf3d4  // b.any
    f358:	f81f83a0 	stur	x0, [x29, #-8]
    f35c:	f81f03a1 	stur	x1, [x29, #-16]
    f360:	d298b091 	mov	x17, #0xc584                	// #50564
    f364:	f2a031b1 	movk	x17, #0x18d, lsl #16
    f368:	f2c00ab1 	movk	x17, #0x55, lsl #32
    f36c:	f2e00011 	movk	x17, #0x0, lsl #48
    f370:	d63f0220 	blr	x17
    f374:	f85f03a0 	ldur	x0, [x29, #-16]
    f378:	f8408001 	ldur	x1, [x0, #8]
    f37c:	d42000e0 	brk	#0x7
    f380:	d2852902 	mov	x2, #0x2948                	// #10568
    f384:	f2a000c2 	movk	x2, #0x6, lsl #16
    f388:	f2c00aa2 	movk	x2, #0x55, lsl #32
    f38c:	f2e00002 	movk	x2, #0x0, lsl #48
    f390:	f81f03a0 	stur	x0, [x29, #-16]
    f394:	b81e83a1 	stur	w1, [x29, #-24]
    f398:	f81d03a2 	stur	x2, [x29, #-48]
    f39c:	f85d03a0 	ldur	x0, [x29, #-48]
    f3a0:	b85ec3a1 	ldur	w1, [x29, #-20]
    f3a4:	d28db011 	mov	x17, #0x6d80                	// #28032
    f3a8:	f2a031b1 	movk	x17, #0x18d, lsl #16
    f3ac:	f2c00ab1 	movk	x17, #0x55, lsl #32
    f3b0:	f2e00011 	movk	x17, #0x0, lsl #48
    f3b4:	d63f0220 	blr	x17
    f3b8:	52800001 	mov	w1, #0x0                   	// #0
    f3bc:	72a00001 	movk	w1, #0x0, lsl #16
    f3c0:	d4200500 	brk	#0x28
    f3c4:	52800002 	mov	w2, #0x0                   	// #0
    f3c8:	72a00002 	movk	w2, #0x0, lsl #16
    f3cc:	d4200500 	brk	#0x28
    f3d0:	f81d83a0 	stur	x0, [x29, #-40]
    f3d4:	b81e83a1 	stur	w1, [x29, #-24]
    f3d8:	b81c43a2 	stur	w2, [x29, #-60]
    f3dc:	f85d83a0 	ldur	x0, [x29, #-40]
    f3e0:	b85e83a1 	ldur	w1, [x29, #-24]
    f3e4:	f85c83a2 	ldur	x2, [x29, #-56]
    f3e8:	b85c43a3 	ldur	w3, [x29, #-60]
    f3ec:	b85c03a4 	ldur	w4, [x29, #-64]
    f3f0:	d28dc791 	mov	x17, #0x6e3c                	// #28220
    f3f4:	f2a031b1 	movk	x17, #0x18d, lsl #16
    f3f8:	f2c00ab1 	movk	x17, #0x55, lsl #32
    f3fc:	f2e00011 	movk	x17, #0x0, lsl #48
    f400:	d63f0220 	blr	x17
    f404:	d4200500 	brk	#0x28
    f408:	f85f03a0 	ldur	x0, [x29, #-16]
    f40c:	f8410001 	ldur	x1, [x0, #16]
    f410:	52800002 	mov	w2, #0x0                   	// #0
    f414:	72a00002 	movk	w2, #0x0, lsl #16
    f418:	f8408003 	ldur	x3, [x0, #8]
    f41c:	f81f03a0 	stur	x0, [x29, #-16]
    f420:	f81c83a1 	stur	x1, [x29, #-56]
    f424:	b81c43a2 	stur	w2, [x29, #-60]
    f428:	b81c03a3 	stur	w3, [x29, #-64]
    f42c:	f85d83a0 	ldur	x0, [x29, #-40]
    f430:	b85e83a1 	ldur	w1, [x29, #-24]
    f434:	f85c83a2 	ldur	x2, [x29, #-56]
    f438:	b85c43a3 	ldur	w3, [x29, #-60]
    f43c:	b85c03a4 	ldur	w4, [x29, #-64]
    f440:	d28dc791 	mov	x17, #0x6e3c                	// #28220
    f444:	f2a031b1 	movk	x17, #0x18d, lsl #16
    f448:	f2c00ab1 	movk	x17, #0x55, lsl #32
    f44c:	f2e00011 	movk	x17, #0x0, lsl #48
    f450:	d63f0220 	blr	x17
    f454:	f85d83a0 	ldur	x0, [x29, #-40]
    f458:	97ffff8a 	bl	0xf280
    f45c:	910103ff 	add	sp, sp, #0x40
    f460:	a8c17bfd 	ldp	x29, x30, [sp], #16
    f464:	d65f03c0 	ret
    f468:	d503201f 	nop
    f46c:	d503201f 	nop
    f470:	a9bf7bfd 	stp	x29, x30, [sp, #-16]!
    f474:	910003fd 	mov	x29, sp
    f478:	d10103ff 	sub	sp, sp, #0x40
    f47c:	f81f83a0 	stur	x0, [x29, #-8]
    f480:	f81f03a1 	stur	x1, [x29, #-16]
    f484:	d2878100 	mov	x0, #0x3c08                	// #15368
    f488:	f2a000c0 	movk	x0, #0x6, lsl #16
    f48c:	f2c00aa0 	movk	x0, #0x55, lsl #32
    f490:	f2e00000 	movk	x0, #0x0, lsl #48
    f494:	d287fa11 	mov	x17, #0x3fd0                	// #16336
    f498:	f2a031b1 	movk	x17, #0x18d, lsl #16
    f49c:	f2c00ab1 	movk	x17, #0x55, lsl #32
    f4a0:	f2e00011 	movk	x17, #0x0, lsl #48
    f4a4:	d63f0220 	blr	x17
    f4a8:	f81e83a0 	stur	x0, [x29, #-24]
    f4ac:	f85e83a0 	ldur	x0, [x29, #-24]
    f4b0:	97ffcb38 	bl	0x2190
    f4b4:	52800000 	mov	w0, #0x0                   	// #0
    f4b8:	72a00000 	movk	w0, #0x0, lsl #16
    f4bc:	d4200500 	brk	#0x28
    f4c0:	b85e03a1 	ldur	w1, [x29, #-32]
    f4c4:	6b00003f 	cmp	w1, w0
    f4c8:	5400050a 	b.ge	0xf568  // b.tcont
    f4cc:	b81dc3a0 	stur	w0, [x29, #-36]
    f4d0:	f85f83a2 	ldur	x2, [x29, #-8]
    f4d4:	11000440 	add	w0, w2, #0x1
    f4d8:	52800003 	mov	w3, #0x0                   	// #0
    f4dc:	72a00003 	movk	w3, #0x0, lsl #16
    f4e0:	b85dc3a4 	ldur	w4, [x29, #-36]
    f4e4:	6b03009f 	cmp	w4, w3
    f4e8:	5400022a 	b.ge	0xf52c  // b.tcont
    f4ec:	f85e83a5 	ldur	x5, [x29, #-24]
    f4f0:	710000bf 	cmp	w5, #0x0
    f4f4:	54000601 	b.ne	0xf5b4  // b.any
    f4f8:	b81e43a0 	stur	w0, [x29, #-28]
    f4fc:	b81e03a1 	stur	w1, [x29, #-32]
    f500:	f81f83a2 	stur	x2, [x29, #-8]
    f504:	b81d83a3 	stur	w3, [x29, #-40]
    f508:	b81dc3a4 	stur	w4, [x29, #-36]
    f50c:	f81e83a5 	stur	x5, [x29, #-24]
    f510:	d298b091 	mov	x17, #0xc584                	// #50564
    f514:	f2a031b1 	movk	x17, #0x18d, lsl #16
    f518:	f2c00ab1 	movk	x17, #0x55, lsl #32
    f51c:	f2e00011 	movk	x17, #0x0, lsl #48
    f520:	d63f0220 	blr	x17
    f524:	f85e83a0 	ldur	x0, [x29, #-24]
    f528:	f85f03a1 	ldur	x1, [x29, #-16]
    f52c:	97ffcb31 	bl	0x21f0
    f530:	d4200500 	brk	#0x28
    f534:	f85e83a0 	ldur	x0, [x29, #-24]
    f538:	7100001f 	cmp	w0, #0x0
    f53c:	54000381 	b.ne	0xf5ac  // b.any
    f540:	f81e83a0 	stur	x0, [x29, #-24]
    f544:	d298b091 	mov	x17, #0xc584                	// #50564
    f548:	f2a031b1 	movk	x17, #0x18d, lsl #16
    f54c:	f2c00ab1 	movk	x17, #0x55, lsl #32
    f550:	f2e00011 	movk	x17, #0x0, lsl #48
    f554:	d63f0220 	blr	x17
    f558:	d42009a0 	brk	#0x4d
    f55c:	f85e83a0 	ldur	x0, [x29, #-24]
    f560:	f85c03a1 	ldur	x1, [x29, #-64]
    f564:	97ffcb23 	bl	0x21f0
    f568:	17ffffd5 	b	0xf4bc
    f56c:	f85e83a0 	ldur	x0, [x29, #-24]
    f570:	7100001f 	cmp	w0, #0x0
    f574:	54000381 	b.ne	0xf5e4  // b.any
    f578:	f81e83a0 	stur	x0, [x29, #-24]
    f57c:	d298b091 	mov	x17, #0xc584                	// #50564
    f580:	f2a031b1 	movk	x17, #0x18d, lsl #16
    f584:	f2c00ab1 	movk	x17, #0x55, lsl #32
    f588:	f2e00011 	movk	x17, #0x0, lsl #48
    f58c:	d63f0220 	blr	x17
    f590:	f85e83a0 	ldur	x0, [x29, #-24]
    f594:	97ffcccb 	bl	0x28c0
    f598:	910103ff 	add	sp, sp, #0x40
    f59c:	a8c17bfd 	ldp	x29, x30, [sp], #16
    f5a0:	d65f03c0 	ret
    f5a4:	d503201f 	nop
    f5a8:	d503201f 	nop
    f5ac:	d503201f 	nop
    f5b0:	a9bf7bfd 	stp	x29, x30, [sp, #-16]!
    f5b4:	910003fd 	mov	x29, sp
    f5b8:	d10043ff 	sub	sp, sp, #0x10
    f5bc:	110007e1 	add	w1, wsp, #0x1
    f5c0:	910043ff 	add	sp, sp, #0x10
    f5c4:	a8c17bfd 	ldp	x29, x30, [sp], #16
    f5c8:	d65f03c0 	ret
    f5cc:	d503201f 	nop
    f5d0:	a9bf7bfd 	stp	x29, x30, [sp, #-16]!
    f5d4:	910003fd 	mov	x29, sp
    f5d8:	d100c3ff 	sub	sp, sp, #0x30
    f5dc:	d4200500 	brk	#0x28
    f5e0:	52800001 	mov	w1, #0x0                   	// #0
    f5e4:	72a00001 	movk	w1, #0x0, lsl #16
    f5e8:	b85f43a2 	ldur	w2, [x29, #-12]
    f5ec:	6b02003f 	cmp	w1, w2
    f5f0:	54000081 	b.ne	0xf600  // b.any
    f5f4:	aa1f03e3 	mov	x3, xzr
    f5f8:	9100c3ff 	add	sp, sp, #0x30
    f5fc:	a8c17bfd 	ldp	x29, x30, [sp], #16
    f600:	d65f03c0 	ret
    f604:	f8408002 	ldur	x2, [x0, #8]
    f608:	51000402 	sub	w2, w0, #0x1
    f60c:	f8010000 	stur	x0, [x0, #16]
    f610:	d4200500 	brk	#0x28
    f614:	d4200500 	brk	#0x28
    f618:	d42009a0 	brk	#0x4d
    f61c:	d4200500 	brk	#0x28
    f620:	d4200500 	brk	#0x28
    f624:	aa1f03e4 	mov	x4, xzr
    f628:	d4200a20 	brk	#0x51
    f62c:	9100c3ff 	add	sp, sp, #0x30
    f630:	a8c17bfd 	ldp	x29, x30, [sp], #16
    f634:	d65f03c0 	ret
    f638:	d503201f 	nop
    f63c:	d503201f 	nop
    f640:	a9bf7bfd 	stp	x29, x30, [sp, #-16]!
    f644:	910003fd 	mov	x29, sp
    f648:	d100c3ff 	sub	sp, sp, #0x30
    f64c:	d4200500 	brk	#0x28
    f650:	d4200500 	brk	#0x28
    f654:	d4200a60 	brk	#0x53
    f658:	b85dc3a2 	ldur	w2, [x29, #-36]
    f65c:	b85ec3a3 	ldur	w3, [x29, #-20]
    f660:	6b02007f 	cmp	w3, w2
    f664:	54000101 	b.ne	0xf684  // b.any
    f668:	f81f83a0 	stur	x0, [x29, #-8]
    f66c:	f81f03a1 	stur	x1, [x29, #-16]
    f670:	b81dc3a2 	stur	w2, [x29, #-36]
    f674:	b81ec3a3 	stur	w3, [x29, #-20]
    f678:	f85f83a0 	ldur	x0, [x29, #-8]
    f67c:	b85ec3a1 	ldur	w1, [x29, #-20]
    f680:	940000c4 	bl	0xf990
    f684:	14000004 	b	0xf694
    f688:	f85f83a0 	ldur	x0, [x29, #-8]
    f68c:	f8408001 	ldur	x1, [x0, #8]
    f690:	11000401 	add	w1, w0, #0x1
    f694:	f8055000 	stur	x0, [x0, #85]
    f698:	d4200500 	brk	#0x28
    f69c:	d4200a20 	brk	#0x51
    f6a0:	d4200500 	brk	#0x28
    f6a4:	9100c3ff 	add	sp, sp, #0x30
    f6a8:	a8c17bfd 	ldp	x29, x30, [sp], #16
    f6ac:	d65f03c0 	ret
    f6b0:	a9bf7bfd 	stp	x29, x30, [sp, #-16]!
    f6b4:	910003fd 	mov	x29, sp
    f6b8:	d10143ff 	sub	sp, sp, #0x50
    f6bc:	52800001 	mov	w1, #0x0                   	// #0
    f6c0:	72a00001 	movk	w1, #0x0, lsl #16
    f6c4:	d4200500 	brk	#0x28
    f6c8:	528000e2 	mov	w2, #0x7                   	// #7
    f6cc:	72a00002 	movk	w2, #0x0, lsl #16
    f6d0:	d42001e0 	brk	#0xf
    f6d4:	b85f03a3 	ldur	w3, [x29, #-16]
    f6d8:	6b01007f 	cmp	w3, w1
    f6dc:	5400020a 	b.ge	0xf71c  // b.tcont
    f6e0:	2a0103e2 	mov	w2, w1
    f6e4:	11000401 	add	w1, w0, #0x1
    f6e8:	d4200500 	brk	#0x28
    f6ec:	528000e4 	mov	w4, #0x7                   	// #7
    f6f0:	72a00004 	movk	w4, #0x0, lsl #16
    f6f4:	d4200100 	brk	#0x8
    f6f8:	d4200100 	brk	#0x8
    f6fc:	d4200500 	brk	#0x28
    f700:	d42009a0 	brk	#0x4d
    f704:	d4200500 	brk	#0x28
    f708:	d4200500 	brk	#0x28
    f70c:	d42009a0 	brk	#0x4d
    f710:	d4200a20 	brk	#0x51
    f714:	d4200500 	brk	#0x28
    f718:	d4200a20 	brk	#0x51
    f71c:	17ffffed 	b	0xf6d0
    f720:	910143ff 	add	sp, sp, #0x50
    f724:	a8c17bfd 	ldp	x29, x30, [sp], #16
    f728:	d65f03c0 	ret
    f72c:	d503201f 	nop
    f730:	a9bf7bfd 	stp	x29, x30, [sp, #-16]!
    f734:	910003fd 	mov	x29, sp
    f738:	d10103ff 	sub	sp, sp, #0x40
    f73c:	d4200500 	brk	#0x28
    f740:	52800001 	mov	w1, #0x0                   	// #0
    f744:	72a00001 	movk	w1, #0x0, lsl #16
    f748:	b85f43a2 	ldur	w2, [x29, #-12]
    f74c:	6b02003f 	cmp	w1, w2
    f750:	54000081 	b.ne	0xf760  // b.any
    f754:	aa1f03e3 	mov	x3, xzr
    f758:	910103ff 	add	sp, sp, #0x40
    f75c:	a8c17bfd 	ldp	x29, x30, [sp], #16
    f760:	d65f03c0 	ret
    f764:	f8408002 	ldur	x2, [x0, #8]
    f768:	51000402 	sub	w2, w0, #0x1
    f76c:	f8004000 	stur	x0, [x0, #4]
    f770:	d4200500 	brk	#0x28
    f774:	52800002 	mov	w2, #0x0                   	// #0
    f778:	72a00002 	movk	w2, #0x0, lsl #16
    f77c:	d42009a0 	brk	#0x4d
    f780:	d4200500 	brk	#0x28
    f784:	52800002 	mov	w2, #0x0                   	// #0
    f788:	72a00002 	movk	w2, #0x0, lsl #16
    f78c:	d4200500 	brk	#0x28
    f790:	528000e1 	mov	w1, #0x7                   	// #7
    f794:	72a00001 	movk	w1, #0x0, lsl #16
    f798:	d4200500 	brk	#0x28
    f79c:	f81f83a0 	stur	x0, [x29, #-8]
    f7a0:	b81f03a1 	stur	w1, [x29, #-16]
    f7a4:	b81f43a2 	stur	w2, [x29, #-12]
    f7a8:	f81e83a3 	stur	x3, [x29, #-24]
    f7ac:	f85d83a0 	ldur	x0, [x29, #-40]
    f7b0:	b85f43a1 	ldur	w1, [x29, #-12]
    f7b4:	f85d03a2 	ldur	x2, [x29, #-48]
    f7b8:	b85f03a3 	ldur	w3, [x29, #-16]
    f7bc:	b85cc3a4 	ldur	w4, [x29, #-52]
    f7c0:	d28dc791 	mov	x17, #0x6e3c                	// #28220
    f7c4:	f2a031b1 	movk	x17, #0x18d, lsl #16
    f7c8:	f2c00ab1 	movk	x17, #0x55, lsl #32
    f7cc:	f2e00011 	movk	x17, #0x0, lsl #48
    f7d0:	d63f0220 	blr	x17
    f7d4:	d4200500 	brk	#0x28
    f7d8:	d4200500 	brk	#0x28
    f7dc:	aa1f03e0 	mov	x0, xzr
    f7e0:	d4200a20 	brk	#0x51
    f7e4:	910103ff 	add	sp, sp, #0x40
    f7e8:	a8c17bfd 	ldp	x29, x30, [sp], #16
    f7ec:	d65f03c0 	ret
    f7f0:	a9bf7bfd 	stp	x29, x30, [sp, #-16]!
    f7f4:	910003fd 	mov	x29, sp
    f7f8:	d10143ff 	sub	sp, sp, #0x50
    f7fc:	52800003 	mov	w3, #0x0                   	// #0
    f800:	72a00003 	movk	w3, #0x0, lsl #16
    f804:	6b01007f 	cmp	w3, w1
    f808:	5400016a 	b.ge	0xf834  // b.tcont
    f80c:	d4200500 	brk	#0x28
    f810:	d42000e0 	brk	#0x7
    f814:	b85e43a4 	ldur	w4, [x29, #-28]
    f818:	2a0403e1 	mov	w1, w4
    f81c:	52800003 	mov	w3, #0x0                   	// #0
    f820:	72a00003 	movk	w3, #0x0, lsl #16
    f824:	6b04007f 	cmp	w3, w4
    f828:	5400006a 	b.ge	0xf834  // b.tcont
    f82c:	52800004 	mov	w4, #0x0                   	// #0
    f830:	72a00004 	movk	w4, #0x0, lsl #16
    f834:	2a0403e1 	mov	w1, w4
    f838:	7100005f 	cmp	w2, #0x0
    f83c:	54000041 	b.ne	0xf844  // b.any
    f840:	d4200500 	brk	#0x28
    f844:	1400001e 	b	0xf8bc
    f848:	f81f83a0 	stur	x0, [x29, #-8]
    f84c:	b81f43a1 	stur	w1, [x29, #-12]
    f850:	f81e83a2 	stur	x2, [x29, #-24]
    f854:	b81e03a3 	stur	w3, [x29, #-32]
    f858:	b81e43a4 	stur	w4, [x29, #-28]
    f85c:	d13fa3e0 	sub	x0, sp, #0xfe8
    f860:	d2876101 	mov	x1, #0x3b08                	// #15112
    f864:	f2a000c1 	movk	x1, #0x6, lsl #16
    f868:	f2c00aa1 	movk	x1, #0x55, lsl #32
    f86c:	f2e00001 	movk	x1, #0x0, lsl #48
    f870:	d2851102 	mov	x2, #0x2888                	// #10376
    f874:	f2a000c2 	movk	x2, #0x6, lsl #16
    f878:	f2c00aa2 	movk	x2, #0x55, lsl #32
    f87c:	f2e00002 	movk	x2, #0x0, lsl #48
    f880:	d293ee91 	mov	x17, #0x9f74                	// #40820
    f884:	f2a031b1 	movk	x17, #0x18d, lsl #16
    f888:	f2c00ab1 	movk	x17, #0x55, lsl #32
    f88c:	f2e00011 	movk	x17, #0x0, lsl #48
    f890:	d63f0220 	blr	x17
    f894:	52800000 	mov	w0, #0x0                   	// #0
    f898:	72a00000 	movk	w0, #0x0, lsl #16
    f89c:	b85e03a1 	ldur	w1, [x29, #-32]
    f8a0:	6b01001f 	cmp	w0, w1
    f8a4:	5400004a 	b.ge	0xf8ac  // b.tcont
    f8a8:	d4200500 	brk	#0x28
    f8ac:	d42000e0 	brk	#0x7
    f8b0:	d4200500 	brk	#0x28
    f8b4:	6b00003f 	cmp	w1, w0
    f8b8:	5400002a 	b.ge	0xf8bc  // b.tcont
    f8bc:	d4200500 	brk	#0x28
    f8c0:	d4200100 	brk	#0x8
    f8c4:	52800002 	mov	w2, #0x0                   	// #0
    f8c8:	72a00002 	movk	w2, #0x0, lsl #16
    f8cc:	6b01005f 	cmp	w2, w1
    f8d0:	5400024a 	b.ge	0xf918  // b.tcont
    f8d4:	b81dc3a0 	stur	w0, [x29, #-36]
    f8d8:	b81e03a1 	stur	w1, [x29, #-32]
    f8dc:	b81d83a2 	stur	w2, [x29, #-40]
    f8e0:	d285e900 	mov	x0, #0x2f48                	// #12104
    f8e4:	f2a000c0 	movk	x0, #0x6, lsl #16
    f8e8:	f2c00aa0 	movk	x0, #0x55, lsl #32
    f8ec:	f2e00000 	movk	x0, #0x0, lsl #48
    f8f0:	d287fa11 	mov	x17, #0x3fd0                	// #16336
    f8f4:	f2a031b1 	movk	x17, #0x18d, lsl #16
    f8f8:	f2c00ab1 	movk	x17, #0x55, lsl #32
    f8fc:	f2e00011 	movk	x17, #0x0, lsl #48
    f900:	d63f0220 	blr	x17
    f904:	f81d03a0 	stur	x0, [x29, #-48]
    f908:	f85d03a0 	ldur	x0, [x29, #-48]
    f90c:	97fffe71 	bl	0xf2d0
    f910:	910143ff 	add	sp, sp, #0x50
    f914:	a8c17bfd 	ldp	x29, x30, [sp], #16
    f918:	d65f03c0 	ret
    f91c:	d4200500 	brk	#0x28
    f920:	d2852900 	mov	x0, #0x2948                	// #10568
    f924:	f2a000c0 	movk	x0, #0x6, lsl #16
    f928:	f2c00aa0 	movk	x0, #0x55, lsl #32
    f92c:	f2e00000 	movk	x0, #0x0, lsl #48
    f930:	f81b83a0 	stur	x0, [x29, #-72]
    f934:	f85b83a0 	ldur	x0, [x29, #-72]
    f938:	b85e03a1 	ldur	w1, [x29, #-32]
    f93c:	d28db011 	mov	x17, #0x6d80                	// #28032
    f940:	f2a031b1 	movk	x17, #0x18d, lsl #16
    f944:	f2c00ab1 	movk	x17, #0x55, lsl #32
    f948:	f2e00011 	movk	x17, #0x0, lsl #48
    f94c:	d63f0220 	blr	x17
    f950:	52800001 	mov	w1, #0x0                   	// #0
    f954:	72a00001 	movk	w1, #0x0, lsl #16
    f958:	f81c03a0 	stur	x0, [x29, #-64]
    f95c:	b81dc3a1 	stur	w1, [x29, #-36]
    f960:	f85c03a0 	ldur	x0, [x29, #-64]
    f964:	b85dc3a1 	ldur	w1, [x29, #-36]
    f968:	f85c83a2 	ldur	x2, [x29, #-56]
    f96c:	b85f43a3 	ldur	w3, [x29, #-12]
    f970:	b85e03a4 	ldur	w4, [x29, #-32]
    f974:	d28dc791 	mov	x17, #0x6e3c                	// #28220
    f978:	f2a031b1 	movk	x17, #0x18d, lsl #16
    f97c:	f2c00ab1 	movk	x17, #0x55, lsl #32
    f980:	f2e00011 	movk	x17, #0x0, lsl #48
    f984:	d63f0220 	blr	x17
    f988:	f85c03a0 	ldur	x0, [x29, #-64]
    f98c:	97fffe3d 	bl	0xf280
    f990:	910143ff 	add	sp, sp, #0x50
    f994:	a8c17bfd 	ldp	x29, x30, [sp], #16
    f998:	d65f03c0 	ret
    f99c:	d503201f 	nop
    f9a0:	a9bf7bfd 	stp	x29, x30, [sp, #-16]!
    f9a4:	910003fd 	mov	x29, sp
    f9a8:	d10083ff 	sub	sp, sp, #0x20
    f9ac:	f81f83a0 	stur	x0, [x29, #-8]
    f9b0:	f81f03a1 	stur	x1, [x29, #-16]
    f9b4:	d13fe3e0 	sub	x0, sp, #0xff8
    f9b8:	d285e901 	mov	x1, #0x2f48                	// #12104
    f9bc:	f2a000c1 	movk	x1, #0x6, lsl #16
    f9c0:	f2c00aa1 	movk	x1, #0x55, lsl #32
    f9c4:	f2e00001 	movk	x1, #0x0, lsl #48
    f9c8:	d285a102 	mov	x2, #0x2d08                	// #11528
    f9cc:	f2a000c2 	movk	x2, #0x6, lsl #16
    f9d0:	f2c00aa2 	movk	x2, #0x55, lsl #32
    f9d4:	f2e00002 	movk	x2, #0x0, lsl #48
    f9d8:	d2942991 	mov	x17, #0xa14c                	// #41292
    f9dc:	f2a031b1 	movk	x17, #0x18d, lsl #16
    f9e0:	f2c00ab1 	movk	x17, #0x55, lsl #32
    f9e4:	f2e00011 	movk	x17, #0x0, lsl #48
    f9e8:	d63f0220 	blr	x17
    f9ec:	f85e83a0 	ldur	x0, [x29, #-24]
    f9f0:	f85f03a1 	ldur	x1, [x29, #-16]
    f9f4:	97ffd03b 	bl	0x3ae0
    f9f8:	910083ff 	add	sp, sp, #0x20
    f9fc:	a8c17bfd 	ldp	x29, x30, [sp], #16
    fa00:	d65f03c0 	ret
    fa04:	d503201f 	nop
    fa08:	d503201f 	nop
    fa0c:	d503201f 	nop
    fa10:	a9bf7bfd 	stp	x29, x30, [sp, #-16]!
    fa14:	910003fd 	mov	x29, sp
    fa18:	d10143ff 	sub	sp, sp, #0x50
    fa1c:	52800003 	mov	w3, #0x0                   	// #0
    fa20:	72a00003 	movk	w3, #0x0, lsl #16
    fa24:	6b02007f 	cmp	w3, w2
    fa28:	5400026a 	b.ge	0xfa74  // b.tcont
    fa2c:	f81f83a0 	stur	x0, [x29, #-8]
    fa30:	b81f43a1 	stur	w1, [x29, #-12]
    fa34:	b81f03a2 	stur	w2, [x29, #-16]
    fa38:	b81e83a3 	stur	w3, [x29, #-24]
    fa3c:	d285e900 	mov	x0, #0x2f48                	// #12104
    fa40:	f2a000c0 	movk	x0, #0x6, lsl #16
    fa44:	f2c00aa0 	movk	x0, #0x55, lsl #32
    fa48:	f2e00000 	movk	x0, #0x0, lsl #48
    fa4c:	d287fa11 	mov	x17, #0x3fd0                	// #16336
    fa50:	f2a031b1 	movk	x17, #0x18d, lsl #16
    fa54:	f2c00ab1 	movk	x17, #0x55, lsl #32
    fa58:	f2e00011 	movk	x17, #0x0, lsl #48
    fa5c:	d63f0220 	blr	x17
    fa60:	f81e03a0 	stur	x0, [x29, #-32]
    fa64:	f85e03a0 	ldur	x0, [x29, #-32]
    fa68:	97fffe1a 	bl	0xf2d0
    fa6c:	910143ff 	add	sp, sp, #0x50
    fa70:	a8c17bfd 	ldp	x29, x30, [sp], #16
    fa74:	d65f03c0 	ret
    fa78:	52800000 	mov	w0, #0x0                   	// #0
    fa7c:	72a00000 	movk	w0, #0x0, lsl #16
    fa80:	b85f43a1 	ldur	w1, [x29, #-12]
    fa84:	6b01001f 	cmp	w0, w1
    fa88:	5400016a 	b.ge	0xfab4  // b.tcont
    fa8c:	d4200500 	brk	#0x28
    fa90:	d42000e0 	brk	#0x7
    fa94:	b85ec3a2 	ldur	w2, [x29, #-20]
    fa98:	2a0203e1 	mov	w1, w2
    fa9c:	52800000 	mov	w0, #0x0                   	// #0
    faa0:	72a00000 	movk	w0, #0x0, lsl #16
    faa4:	6b02001f 	cmp	w0, w2
    faa8:	5400006a 	b.ge	0xfab4  // b.tcont
    faac:	52800002 	mov	w2, #0x0                   	// #0
    fab0:	72a00002 	movk	w2, #0x0, lsl #16
    fab4:	2a0203e1 	mov	w1, w2
    fab8:	d4200500 	brk	#0x28
    fabc:	6b00003f 	cmp	w1, w0
    fac0:	540000ea 	b.ge	0xfadc  // b.tcont
    fac4:	52800002 	mov	w2, #0x0                   	// #0
    fac8:	72a00002 	movk	w2, #0x0, lsl #16
    facc:	2a0203e1 	mov	w1, w2
    fad0:	52800002 	mov	w2, #0x0                   	// #0
    fad4:	72a00002 	movk	w2, #0x0, lsl #16
    fad8:	b81f03a2 	stur	w2, [x29, #-16]
    fadc:	1400000e 	b	0xfb14
    fae0:	d42000e0 	brk	#0x7
    fae4:	d4200500 	brk	#0x28
    fae8:	6b00005f 	cmp	w2, w0
    faec:	5400014a 	b.ge	0xfb14  // b.tcont
    faf0:	d4200500 	brk	#0x28
    faf4:	d4200100 	brk	#0x8
    faf8:	b81f03a2 	stur	w2, [x29, #-16]
    fafc:	52800000 	mov	w0, #0x0                   	// #0
    fb00:	72a00000 	movk	w0, #0x0, lsl #16
    fb04:	6b02001f 	cmp	w0, w2
    fb08:	5400006a 	b.ge	0xfb14  // b.tcont
    fb0c:	52800002 	mov	w2, #0x0                   	// #0
    fb10:	72a00002 	movk	w2, #0x0, lsl #16
    fb14:	b81f03a2 	stur	w2, [x29, #-16]
    fb18:	d4200500 	brk	#0x28
    fb1c:	d2852903 	mov	x3, #0x2948                	// #10568
    fb20:	f2a000c3 	movk	x3, #0x6, lsl #16
    fb24:	f2c00aa3 	movk	x3, #0x55, lsl #32
    fb28:	f2e00003 	movk	x3, #0x0, lsl #48
    fb2c:	b81e83a0 	stur	w0, [x29, #-24]
    fb30:	b81f43a1 	stur	w1, [x29, #-12]
    fb34:	b81ec3a2 	stur	w2, [x29, #-20]
    fb38:	f81c03a3 	stur	x3, [x29, #-64]
    fb3c:	f85c03a0 	ldur	x0, [x29, #-64]
    fb40:	b85f03a1 	ldur	w1, [x29, #-16]
    fb44:	d28db011 	mov	x17, #0x6d80                	// #28032
    fb48:	f2a031b1 	movk	x17, #0x18d, lsl #16
    fb4c:	f2c00ab1 	movk	x17, #0x55, lsl #32
    fb50:	f2e00011 	movk	x17, #0x0, lsl #48
    fb54:	d63f0220 	blr	x17
    fb58:	52800001 	mov	w1, #0x0                   	// #0
    fb5c:	72a00001 	movk	w1, #0x0, lsl #16
    fb60:	f81c83a0 	stur	x0, [x29, #-56]
    fb64:	b81ec3a1 	stur	w1, [x29, #-20]
    fb68:	f85c83a0 	ldur	x0, [x29, #-56]
    fb6c:	b85ec3a1 	ldur	w1, [x29, #-20]
    fb70:	f85d03a2 	ldur	x2, [x29, #-48]
    fb74:	b85f43a3 	ldur	w3, [x29, #-12]
    fb78:	b85f03a4 	ldur	w4, [x29, #-16]
    fb7c:	d28dc791 	mov	x17, #0x6e3c                	// #28220
    fb80:	f2a031b1 	movk	x17, #0x18d, lsl #16
    fb84:	f2c00ab1 	movk	x17, #0x55, lsl #32
    fb88:	f2e00011 	movk	x17, #0x0, lsl #48
    fb8c:	d63f0220 	blr	x17
    fb90:	f85c83a0 	ldur	x0, [x29, #-56]
    fb94:	97fffdbb 	bl	0xf280
    fb98:	d42000e0 	brk	#0x7
    fb9c:	d4200500 	brk	#0x28
    fba0:	d4200100 	brk	#0x8
    fba4:	f81e03a0 	stur	x0, [x29, #-32]
    fba8:	f85d03a0 	ldur	x0, [x29, #-48]
    fbac:	b85f43a1 	ldur	w1, [x29, #-12]
    fbb0:	f85d03a2 	ldur	x2, [x29, #-48]
    fbb4:	b85ec3a3 	ldur	w3, [x29, #-20]
    fbb8:	b85bc3a4 	ldur	w4, [x29, #-68]
    fbbc:	d28dc791 	mov	x17, #0x6e3c                	// #28220
    fbc0:	f2a031b1 	movk	x17, #0x18d, lsl #16
    fbc4:	f2c00ab1 	movk	x17, #0x55, lsl #32
    fbc8:	f2e00011 	movk	x17, #0x0, lsl #48
    fbcc:	d63f0220 	blr	x17
    fbd0:	f85f83a0 	ldur	x0, [x29, #-8]
    fbd4:	f8408001 	ldur	x1, [x0, #8]
    fbd8:	d4200100 	brk	#0x8
    fbdc:	f8055000 	stur	x0, [x0, #85]
    fbe0:	51000402 	sub	w2, w0, #0x1
    fbe4:	52800001 	mov	w1, #0x0                   	// #0
    fbe8:	72a00001 	movk	w1, #0x0, lsl #16
    fbec:	6b02003f 	cmp	w1, w2
    fbf0:	540000ab 	b.lt	0xfc04  // b.tstop
    fbf4:	d4200500 	brk	#0x28
    fbf8:	d42000e0 	brk	#0x7
    fbfc:	aa1f03e3 	mov	x3, xzr
    fc00:	d4200a20 	brk	#0x51
    fc04:	17fffff6 	b	0xfbdc
    fc08:	910143ff 	add	sp, sp, #0x50
    fc0c:	a8c17bfd 	ldp	x29, x30, [sp], #16
    fc10:	d65f03c0 	ret
    fc14:	d503201f 	nop
    fc18:	d503201f 	nop
    fc1c:	d503201f 	nop
    fc20:	a9bf7bfd 	stp	x29, x30, [sp, #-16]!
    fc24:	910003fd 	mov	x29, sp
    fc28:	d10183ff 	sub	sp, sp, #0x60
    fc2c:	d295c002 	mov	x2, #0xae00                	// #44544
    fc30:	f2a000c2 	movk	x2, #0x6, lsl #16
    fc34:	f2c00aa2 	movk	x2, #0x55, lsl #32
    fc38:	f2e00002 	movk	x2, #0x0, lsl #48
    fc3c:	f8400041 	ldur	x1, [x2]
    fc40:	f8438022 	ldur	x2, [x1, #56]
    fc44:	52800283 	mov	w3, #0x14                  	// #20
    fc48:	72a00003 	movk	w3, #0x0, lsl #16
    fc4c:	6b02007f 	cmp	w3, w2
    fc50:	5400010b 	b.lt	0xfc70  // b.tstop
    fc54:	d295c105 	mov	x5, #0xae08                	// #44552
    fc58:	f2a000c5 	movk	x5, #0x6, lsl #16
    fc5c:	f2c00aa5 	movk	x5, #0x55, lsl #32
    fc60:	f2e00005 	movk	x5, #0x0, lsl #48
    fc64:	f84000a4 	ldur	x4, [x5]
    fc68:	910183ff 	add	sp, sp, #0x60
    fc6c:	a8c17bfd 	ldp	x29, x30, [sp], #16
    fc70:	d65f03c0 	ret
    fc74:	d295c005 	mov	x5, #0xae00                	// #44544
    fc78:	f2a000c5 	movk	x5, #0x6, lsl #16
    fc7c:	f2c00aa5 	movk	x5, #0x55, lsl #32
    fc80:	f2e00005 	movk	x5, #0x0, lsl #48
    fc84:	f84000a1 	ldur	x1, [x5]
    fc88:	f8438022 	ldur	x2, [x1, #56]
    fc8c:	11000402 	add	w2, w0, #0x1
    fc90:	f85d03a5 	ldur	x5, [x29, #-48]
    fc94:	f80180a1 	stur	x1, [x5, #24]
    fc98:	f81f83a0 	stur	x0, [x29, #-8]
    fc9c:	f81e83a1 	stur	x1, [x29, #-24]
    fca0:	b81f43a2 	stur	w2, [x29, #-12]
    fca4:	b81e43a3 	stur	w3, [x29, #-28]
    fca8:	f81d83a4 	stur	x4, [x29, #-40]
    fcac:	f81d03a5 	stur	x5, [x29, #-48]
    fcb0:	d2878100 	mov	x0, #0x3c08                	// #15368
    fcb4:	f2a000c0 	movk	x0, #0x6, lsl #16
    fcb8:	f2c00aa0 	movk	x0, #0x55, lsl #32
    fcbc:	f2e00000 	movk	x0, #0x0, lsl #48
    fcc0:	d287fa11 	mov	x17, #0x3fd0                	// #16336
    fcc4:	f2a031b1 	movk	x17, #0x18d, lsl #16
    fcc8:	f2c00ab1 	movk	x17, #0x55, lsl #32
    fccc:	f2e00011 	movk	x17, #0x0, lsl #48
    fcd0:	d63f0220 	blr	x17
    fcd4:	f81c83a0 	stur	x0, [x29, #-56]
    fcd8:	f85c83a0 	ldur	x0, [x29, #-56]
    fcdc:	97ffc92d 	bl	0x2190
    fce0:	52800560 	mov	w0, #0x2b                  	// #43
    fce4:	72a00000 	movk	w0, #0x0, lsl #16
    fce8:	b81f43a0 	stur	w0, [x29, #-12]
    fcec:	f85c83a0 	ldur	x0, [x29, #-56]
    fcf0:	b85f43a1 	ldur	w1, [x29, #-12]
    fcf4:	97ffca07 	bl	0x2510
    fcf8:	d4200900 	brk	#0x48
    fcfc:	52800000 	mov	w0, #0x0                   	// #0
    fd00:	72a00000 	movk	w0, #0x0, lsl #16
    fd04:	d4200500 	brk	#0x28
    fd08:	b85e43a1 	ldur	w1, [x29, #-28]
    fd0c:	6b00003f 	cmp	w1, w0
    fd10:	5400056a 	b.ge	0xfdbc  // b.tcont
    fd14:	b81c43a0 	stur	w0, [x29, #-60]
    fd18:	f85f83a2 	ldur	x2, [x29, #-8]
    fd1c:	11000440 	add	w0, w2, #0x1
    fd20:	52800003 	mov	w3, #0x0                   	// #0
    fd24:	72a00003 	movk	w3, #0x0, lsl #16
    fd28:	b85c43a4 	ldur	w4, [x29, #-60]
    fd2c:	6b03009f 	cmp	w4, w3
    fd30:	5400028a 	b.ge	0xfd80  // b.tcont
    fd34:	f85c83a5 	ldur	x5, [x29, #-56]
    fd38:	710000bf 	cmp	w5, #0x0
    fd3c:	54000601 	b.ne	0xfdfc  // b.any
    fd40:	b81f43a0 	stur	w0, [x29, #-12]
    fd44:	b81e43a1 	stur	w1, [x29, #-28]
    fd48:	f81f83a2 	stur	x2, [x29, #-8]
    fd4c:	b81bc3a3 	stur	w3, [x29, #-68]
    fd50:	b81c43a4 	stur	w4, [x29, #-60]
    fd54:	f81c83a5 	stur	x5, [x29, #-56]
    fd58:	d298b091 	mov	x17, #0xc584                	// #50564
    fd5c:	f2a031b1 	movk	x17, #0x18d, lsl #16
    fd60:	f2c00ab1 	movk	x17, #0x55, lsl #32
    fd64:	f2e00011 	movk	x17, #0x0, lsl #48
    fd68:	d63f0220 	blr	x17
    fd6c:	52800580 	mov	w0, #0x2c                  	// #44
    fd70:	72a00000 	movk	w0, #0x0, lsl #16
    fd74:	b81c03a0 	stur	w0, [x29, #-64]
    fd78:	f85c83a0 	ldur	x0, [x29, #-56]
    fd7c:	b85c03a1 	ldur	w1, [x29, #-64]
    fd80:	97ffc9e4 	bl	0x2510
    fd84:	d4200500 	brk	#0x28
    fd88:	f85c83a0 	ldur	x0, [x29, #-56]
    fd8c:	7100001f 	cmp	w0, #0x0
    fd90:	54000381 	b.ne	0xfe00  // b.any
    fd94:	f81c83a0 	stur	x0, [x29, #-56]
    fd98:	d298b091 	mov	x17, #0xc584                	// #50564
    fd9c:	f2a031b1 	movk	x17, #0x18d, lsl #16
    fda0:	f2c00ab1 	movk	x17, #0x55, lsl #32
    fda4:	f2e00011 	movk	x17, #0x0, lsl #48
    fda8:	d63f0220 	blr	x17
    fdac:	d42009a0 	brk	#0x4d
    fdb0:	f85c83a0 	ldur	x0, [x29, #-56]
    fdb4:	f85d03a1 	ldur	x1, [x29, #-48]
    fdb8:	97ffc90e 	bl	0x21f0
    fdbc:	17ffffd2 	b	0xfd04
    fdc0:	d4200920 	brk	#0x49
    fdc4:	14000018 	b	0xfe24
    fdc8:	aa1f03e0 	mov	x0, xzr
    fdcc:	f81a83a0 	stur	x0, [x29, #-88]
    fdd0:	f85d03a0 	ldur	x0, [x29, #-48]
    fdd4:	97ffcd2b 	bl	0x3280
    fdd8:	7100001f 	cmp	w0, #0x0
    fddc:	54000381 	b.ne	0xfe4c  // b.any
    fde0:	f81a03a0 	stur	x0, [x29, #-96]
    fde4:	d298b091 	mov	x17, #0xc584                	// #50564
    fde8:	f2a031b1 	movk	x17, #0x18d, lsl #16
    fdec:	f2c00ab1 	movk	x17, #0x55, lsl #32
    fdf0:	f2e00011 	movk	x17, #0x0, lsl #48
    fdf4:	d63f0220 	blr	x17
    fdf8:	d42003c0 	brk	#0x1e
    fdfc:	d295c001 	mov	x1, #0xae00                	// #44544
    fe00:	f2a000c1 	movk	x1, #0x6, lsl #16
    fe04:	f2c00aa1 	movk	x1, #0x55, lsl #32
    fe08:	f2e00001 	movk	x1, #0x0, lsl #48
    fe0c:	f8400020 	ldur	x0, [x1]
    fe10:	f8438001 	ldur	x1, [x0, #56]
    fe14:	f85f83a2 	ldur	x2, [x29, #-8]
    fe18:	51000441 	sub	w1, w2, #0x1
    fe1c:	f85d03a3 	ldur	x3, [x29, #-48]
    fe20:	f8018060 	stur	x0, [x3, #24]
    fe24:	d42008a0 	brk	#0x45
    fe28:	f85c83a4 	ldur	x4, [x29, #-56]
    fe2c:	7100009f 	cmp	w4, #0x0
    fe30:	54000581 	b.ne	0xfee0  // b.any
    fe34:	f81e83a0 	stur	x0, [x29, #-24]
    fe38:	b81f43a1 	stur	w1, [x29, #-12]
    fe3c:	f81f83a2 	stur	x2, [x29, #-8]
    fe40:	f81d03a3 	stur	x3, [x29, #-48]
    fe44:	f81c83a4 	stur	x4, [x29, #-56]
    fe48:	d298b091 	mov	x17, #0xc584                	// #50564
    fe4c:	f2a031b1 	movk	x17, #0x18d, lsl #16
    fe50:	f2c00ab1 	movk	x17, #0x55, lsl #32
    fe54:	f2e00011 	movk	x17, #0x0, lsl #48
    fe58:	d63f0220 	blr	x17
    fe5c:	528004e0 	mov	w0, #0x27                  	// #39
    fe60:	72a00000 	movk	w0, #0x0, lsl #16
    fe64:	b81f43a0 	stur	w0, [x29, #-12]
    fe68:	f85c83a0 	ldur	x0, [x29, #-56]
    fe6c:	b85f43a1 	ldur	w1, [x29, #-12]
    fe70:	97ffc9a8 	bl	0x2510
    fe74:	d295c001 	mov	x1, #0xae00                	// #44544
    fe78:	f2a000c1 	movk	x1, #0x6, lsl #16
    fe7c:	f2c00aa1 	movk	x1, #0x55, lsl #32
    fe80:	f2e00001 	movk	x1, #0x0, lsl #48
    fe84:	f8400020 	ldur	x0, [x1]
    fe88:	f8438001 	ldur	x1, [x0, #56]
    fe8c:	f85f83a2 	ldur	x2, [x29, #-8]
    fe90:	51000441 	sub	w1, w2, #0x1
    fe94:	f85d03a3 	ldur	x3, [x29, #-48]
    fe98:	f8018060 	stur	x0, [x3, #24]
    fe9c:	f81e83a0 	stur	x0, [x29, #-24]
    fea0:	b81f43a1 	stur	w1, [x29, #-12]
    fea4:	f81f83a2 	stur	x2, [x29, #-8]
    fea8:	f81d03a3 	stur	x3, [x29, #-48]
    feac:	f85c83a0 	ldur	x0, [x29, #-56]
    feb0:	97ffca84 	bl	0x28c0
    feb4:	910183ff 	add	sp, sp, #0x60
    feb8:	a8c17bfd 	ldp	x29, x30, [sp], #16
    febc:	d65f03c0 	ret
    fec0:	a9bf7bfd 	stp	x29, x30, [sp, #-16]!
    fec4:	910003fd 	mov	x29, sp
    fec8:	d10103ff 	sub	sp, sp, #0x40
    fecc:	d4200500 	brk	#0x28
    fed0:	d4200500 	brk	#0x28
    fed4:	d4200a60 	brk	#0x53
    fed8:	b85e43a2 	ldur	w2, [x29, #-28]
    fedc:	b85e03a3 	ldur	w3, [x29, #-32]
    fee0:	6b02007f 	cmp	w3, w2
    fee4:	54000121 	b.ne	0xff08  // b.any
    fee8:	d4200500 	brk	#0x28
    feec:	f81f83a0 	stur	x0, [x29, #-8]
    fef0:	f81f03a1 	stur	x1, [x29, #-16]
    fef4:	b81e43a2 	stur	w2, [x29, #-28]
    fef8:	b81e03a3 	stur	w3, [x29, #-32]
    fefc:	f85f83a0 	ldur	x0, [x29, #-8]
    ff00:	b85e43a1 	ldur	w1, [x29, #-28]
    ff04:	940000a3 	bl	0x10190
    ff08:	14000004 	b	0xff18
    ff0c:	f85f83a0 	ldur	x0, [x29, #-8]
    ff10:	f8408001 	ldur	x1, [x0, #8]
    ff14:	11000401 	add	w1, w0, #0x1
    ff18:	f8028000 	stur	x0, [x0, #40]
    ff1c:	d4200500 	brk	#0x28
    ff20:	528000e1 	mov	w1, #0x7                   	// #7
    ff24:	72a00001 	movk	w1, #0x0, lsl #16
    ff28:	d4200500 	brk	#0x28
    ff2c:	52800002 	mov	w2, #0x0                   	// #0
    ff30:	72a00002 	movk	w2, #0x0, lsl #16
    ff34:	d4200500 	brk	#0x28
    ff38:	528000e3 	mov	w3, #0x7                   	// #7
    ff3c:	72a00003 	movk	w3, #0x0, lsl #16
    ff40:	d4200100 	brk	#0x8
    ff44:	f81f83a0 	stur	x0, [x29, #-8]
    ff48:	b81e43a1 	stur	w1, [x29, #-28]
    ff4c:	b81e03a2 	stur	w2, [x29, #-32]
    ff50:	b81c83a3 	stur	w3, [x29, #-56]
    ff54:	f85d83a0 	ldur	x0, [x29, #-40]
    ff58:	b85e43a1 	ldur	w1, [x29, #-28]
    ff5c:	f85d03a2 	ldur	x2, [x29, #-48]
    ff60:	b85e03a3 	ldur	w3, [x29, #-32]
    ff64:	b85cc3a4 	ldur	w4, [x29, #-52]
    ff68:	d28dc791 	mov	x17, #0x6e3c                	// #28220
    ff6c:	f2a031b1 	movk	x17, #0x18d, lsl #16
    ff70:	f2c00ab1 	movk	x17, #0x55, lsl #32
    ff74:	f2e00011 	movk	x17, #0x0, lsl #48
    ff78:	d63f0220 	blr	x17
    ff7c:	d4200500 	brk	#0x28
    ff80:	52800000 	mov	w0, #0x0                   	// #0
    ff84:	72a00000 	movk	w0, #0x0, lsl #16
    ff88:	d4200a20 	brk	#0x51
    ff8c:	910103ff 	add	sp, sp, #0x40
    ff90:	a8c17bfd 	ldp	x29, x30, [sp], #16
    ff94:	d65f03c0 	ret
    ff98:	d503201f 	nop
    ff9c:	d503201f 	nop
    ffa0:	a9bf7bfd 	stp	x29, x30, [sp, #-16]!
    ffa4:	910003fd 	mov	x29, sp
    ffa8:	d10103ff 	sub	sp, sp, #0x40
    ffac:	52800003 	mov	w3, #0x0                   	// #0
    ffb0:	72a00003 	movk	w3, #0x0, lsl #16
    ffb4:	6b01007f 	cmp	w3, w1
    ffb8:	5400018a 	b.ge	0xffe8  // b.tcont
    ffbc:	d4200500 	brk	#0x28
    ffc0:	d42000e0 	brk	#0x7
    ffc4:	b85e43a4 	ldur	w4, [x29, #-28]
    ffc8:	2a0403e1 	mov	w1, w4
    ffcc:	52800003 	mov	w3, #0x0                   	// #0
    ffd0:	72a00003 	movk	w3, #0x0, lsl #16
    ffd4:	6b04007f 	cmp	w3, w4
    ffd8:	5400006a 	b.ge	0xffe4  // b.tcont
    ffdc:	52800004 	mov	w4, #0x0                   	// #0
    ffe0:	72a00004 	movk	w4, #0x0, lsl #16
    ffe4:	2a0403e1 	mov	w1, w4
    ffe8:	14000005 	b	0xfffc
    ffec:	d4200500 	brk	#0x28
    fff0:	6b03003f 	cmp	w1, w3
    fff4:	5400004a 	b.ge	0xfffc  // b.tcont
    fff8:	d4200500 	brk	#0x28
    fffc:	2a0403e1 	mov	w1, w4
   10000:	d4200500 	brk	#0x28
   10004:	d4200500 	brk	#0x28
   10008:	d4200a60 	brk	#0x53
   1000c:	6b04007f 	cmp	w3, w4
   10010:	54000141 	b.ne	0x10038  // b.any
   10014:	d4200500 	brk	#0x28
   10018:	f81f83a0 	stur	x0, [x29, #-8]
   1001c:	b81f43a1 	stur	w1, [x29, #-12]
   10020:	f81e83a2 	stur	x2, [x29, #-24]
   10024:	b81e03a3 	stur	w3, [x29, #-32]
   10028:	b81e43a4 	stur	w4, [x29, #-28]
   1002c:	f85f83a0 	ldur	x0, [x29, #-8]
   10030:	b85e43a1 	ldur	w1, [x29, #-28]
   10034:	94000057 	bl	0x10190
   10038:	14000004 	b	0x10048
   1003c:	f85f83a0 	ldur	x0, [x29, #-8]
   10040:	f8408001 	ldur	x1, [x0, #8]
   10044:	11000401 	add	w1, w0, #0x1
   10048:	f8028000 	stur	x0, [x0, #40]
   1004c:	d4200500 	brk	#0x28
   10050:	528000e2 	mov	w2, #0x7                   	// #7
   10054:	72a00002 	movk	w2, #0x0, lsl #16
   10058:	d42000e0 	brk	#0x7
   1005c:	d4200500 	brk	#0x28
   10060:	d4200500 	brk	#0x28
   10064:	d4200100 	brk	#0x8
   10068:	528000e3 	mov	w3, #0x7                   	// #7
   1006c:	72a00003 	movk	w3, #0x0, lsl #16
   10070:	d4200100 	brk	#0x8
   10074:	f81f83a0 	stur	x0, [x29, #-8]
   10078:	b81e43a1 	stur	w1, [x29, #-28]
   1007c:	b81e03a2 	stur	w2, [x29, #-32]
   10080:	b81c03a3 	stur	w3, [x29, #-64]
   10084:	f85d03a0 	ldur	x0, [x29, #-48]
   10088:	b85e43a1 	ldur	w1, [x29, #-28]
   1008c:	f85c83a2 	ldur	x2, [x29, #-56]
   10090:	b85f43a3 	ldur	w3, [x29, #-12]
   10094:	b85c43a4 	ldur	w4, [x29, #-60]
   10098:	d28dc791 	mov	x17, #0x6e3c                	// #28220
   1009c:	f2a031b1 	movk	x17, #0x18d, lsl #16
   100a0:	f2c00ab1 	movk	x17, #0x55, lsl #32
   100a4:	f2e00011 	movk	x17, #0x0, lsl #48
   100a8:	d63f0220 	blr	x17
   100ac:	d4200500 	brk	#0x28
   100b0:	d4200a20 	brk	#0x51
   100b4:	910103ff 	add	sp, sp, #0x40
   100b8:	a8c17bfd 	ldp	x29, x30, [sp], #16
   100bc:	d65f03c0 	ret
   100c0:	a9bf7bfd 	stp	x29, x30, [sp, #-16]!
   100c4:	910003fd 	mov	x29, sp
   100c8:	d100c3ff 	sub	sp, sp, #0x30
   100cc:	aa1f03e2 	mov	x2, xzr
   100d0:	f81f83a0 	stur	x0, [x29, #-8]
   100d4:	f81f03a1 	stur	x1, [x29, #-16]
   100d8:	f81e03a2 	stur	x2, [x29, #-32]
   100dc:	f85f83a0 	ldur	x0, [x29, #-8]
   100e0:	f85f03a1 	ldur	x1, [x29, #-16]
   100e4:	f85e03a2 	ldur	x2, [x29, #-32]
   100e8:	94000046 	bl	0x10200
   100ec:	52800201 	mov	w1, #0x10                  	// #16
   100f0:	72a00001 	movk	w1, #0x0, lsl #16
   100f4:	6b00003f 	cmp	w1, w0
   100f8:	54000041 	b.ne	0x10100  // b.any
   100fc:	110003e2 	mov	w2, wsp
   10100:	14000001 	b	0x10104
   10104:	110007e2 	add	w2, wsp, #0x1
   10108:	9100c3ff 	add	sp, sp, #0x30
   1010c:	a8c17bfd 	ldp	x29, x30, [sp], #16
   10110:	d65f03c0 	ret
   10114:	d503201f 	nop
   10118:	d503201f 	nop
   1011c:	d503201f 	nop
   10120:	a9bf7bfd 	stp	x29, x30, [sp, #-16]!
   10124:	910003fd 	mov	x29, sp
   10128:	d10143ff 	sub	sp, sp, #0x50
   1012c:	aa1f03e2 	mov	x2, xzr
   10130:	f81f83a0 	stur	x0, [x29, #-8]
   10134:	f81f03a1 	stur	x1, [x29, #-16]
   10138:	f81d83a2 	stur	x2, [x29, #-40]
   1013c:	f85f83a0 	ldur	x0, [x29, #-8]
   10140:	f85f03a1 	ldur	x1, [x29, #-16]
   10144:	f85d83a2 	ldur	x2, [x29, #-40]
   10148:	9400002e 	bl	0x10200
   1014c:	52800001 	mov	w1, #0x0                   	// #0
   10150:	72a00001 	movk	w1, #0x0, lsl #16
   10154:	6b00003f 	cmp	w1, w0
   10158:	5400008a 	b.ge	0x10168  // b.tcont
   1015c:	110003e2 	mov	w2, wsp
   10160:	910143ff 	add	sp, sp, #0x50
   10164:	a8c17bfd 	ldp	x29, x30, [sp], #16
   10168:	d65f03c0 	ret
   1016c:	f85f83a3 	ldur	x3, [x29, #-8]
   10170:	f8408064 	ldur	x4, [x3, #8]
   10174:	51000464 	sub	w4, w3, #0x1
   10178:	f8003063 	stur	x3, [x3, #3]
   1017c:	d4200500 	brk	#0x28
   10180:	d4200500 	brk	#0x28
   10184:	528000e5 	mov	w5, #0x7                   	// #7
   10188:	72a00005 	movk	w5, #0x0, lsl #16
   1018c:	d42000e0 	brk	#0x7
   10190:	d4200500 	brk	#0x28
   10194:	d4200100 	brk	#0x8
   10198:	b81ec3a0 	stur	w0, [x29, #-20]
   1019c:	b81d03a1 	stur	w1, [x29, #-48]
   101a0:	381cf3a2 	sturb	w2, [x29, #-49]
   101a4:	f81f83a3 	stur	x3, [x29, #-8]
   101a8:	b81d43a4 	stur	w4, [x29, #-44]
   101ac:	b81b43a5 	stur	w5, [x29, #-76]
   101b0:	f85c03a0 	ldur	x0, [x29, #-64]
   101b4:	b85ec3a1 	ldur	w1, [x29, #-20]
   101b8:	f85b83a2 	ldur	x2, [x29, #-72]
   101bc:	b85d03a3 	ldur	w3, [x29, #-48]
   101c0:	b85b43a4 	ldur	w4, [x29, #-76]
   101c4:	d28dc791 	mov	x17, #0x6e3c                	// #28220
   101c8:	f2a031b1 	movk	x17, #0x18d, lsl #16
   101cc:	f2c00ab1 	movk	x17, #0x55, lsl #32
   101d0:	f2e00011 	movk	x17, #0x0, lsl #48
   101d4:	d63f0220 	blr	x17
   101d8:	d4200500 	brk	#0x28
   101dc:	d4200500 	brk	#0x28
   101e0:	aa1f03e0 	mov	x0, xzr
   101e4:	d4200a20 	brk	#0x51
   101e8:	110007e1 	add	w1, wsp, #0x1
   101ec:	910143ff 	add	sp, sp, #0x50
   101f0:	a8c17bfd 	ldp	x29, x30, [sp], #16
   101f4:	d65f03c0 	ret
   101f8:	d503201f 	nop
   101fc:	d503201f 	nop
   10200:	a9bf7bfd 	stp	x29, x30, [sp, #-16]!
   10204:	910003fd 	mov	x29, sp
   10208:	d10103ff 	sub	sp, sp, #0x40
   1020c:	f81f83a0 	stur	x0, [x29, #-8]
   10210:	f81f03a1 	stur	x1, [x29, #-16]
   10214:	f81e83a2 	stur	x2, [x29, #-24]
   10218:	d13fa3e0 	sub	x0, sp, #0xfe8
   1021c:	d2876101 	mov	x1, #0x3b08                	// #15112
   10220:	f2a000c1 	movk	x1, #0x6, lsl #16
   10224:	f2c00aa1 	movk	x1, #0x55, lsl #32
   10228:	f2e00001 	movk	x1, #0x0, lsl #48
   1022c:	d2851102 	mov	x2, #0x2888                	// #10376
   10230:	f2a000c2 	movk	x2, #0x6, lsl #16
   10234:	f2c00aa2 	movk	x2, #0x55, lsl #32
   10238:	f2e00002 	movk	x2, #0x0, lsl #48
   1023c:	d293ee91 	mov	x17, #0x9f74                	// #40820
   10240:	f2a031b1 	movk	x17, #0x18d, lsl #16
   10244:	f2c00ab1 	movk	x17, #0x55, lsl #32
   10248:	f2e00011 	movk	x17, #0x0, lsl #48
   1024c:	d63f0220 	blr	x17
   10250:	52800000 	mov	w0, #0x0                   	// #0
   10254:	72a00000 	movk	w0, #0x0, lsl #16
   10258:	b85e43a1 	ldur	w1, [x29, #-28]
   1025c:	6b01001f 	cmp	w0, w1
   10260:	5400016a 	b.ge	0x1028c  // b.tcont
   10264:	d4200500 	brk	#0x28
   10268:	d42000e0 	brk	#0x7
   1026c:	b85e03a2 	ldur	w2, [x29, #-32]
   10270:	2a0203e1 	mov	w1, w2
   10274:	52800000 	mov	w0, #0x0                   	// #0
   10278:	72a00000 	movk	w0, #0x0, lsl #16
   1027c:	6b02001f 	cmp	w0, w2
   10280:	5400006a 	b.ge	0x1028c  // b.tcont
   10284:	52800002 	mov	w2, #0x0                   	// #0
   10288:	72a00002 	movk	w2, #0x0, lsl #16
   1028c:	2a0203e1 	mov	w1, w2
   10290:	d4200500 	brk	#0x28
   10294:	d4200500 	brk	#0x28
   10298:	6b01005f 	cmp	w2, w1
   1029c:	5400016a 	b.ge	0x102c8  // b.tcont
   102a0:	d42009a0 	brk	#0x4d
   102a4:	f85c83a3 	ldur	x3, [x29, #-56]
   102a8:	f85f03a4 	ldur	x4, [x29, #-16]
   102ac:	6b03009f 	cmp	w4, w3
   102b0:	54000061 	b.ne	0x102bc  // b.any
   102b4:	910103ff 	add	sp, sp, #0x40
   102b8:	a8c17bfd 	ldp	x29, x30, [sp], #16
   102bc:	d65f03c0 	ret
   102c0:	f85f83a5 	ldur	x5, [x29, #-8]
   102c4:	110004a1 	add	w1, w5, #0x1
   102c8:	17fffff3 	b	0x10294
   102cc:	52800200 	mov	w0, #0x10                  	// #16
   102d0:	72a00000 	movk	w0, #0x0, lsl #16
   102d4:	910103ff 	add	sp, sp, #0x40
   102d8:	a8c17bfd 	ldp	x29, x30, [sp], #16
   102dc:	d65f03c0 	ret
   102e0:	a9bf7bfd 	stp	x29, x30, [sp, #-16]!
   102e4:	910003fd 	mov	x29, sp
   102e8:	d10143ff 	sub	sp, sp, #0x50
   102ec:	f81f83a0 	stur	x0, [x29, #-8]
   102f0:	b81f43a1 	stur	w1, [x29, #-12]
   102f4:	f81e83a2 	stur	x2, [x29, #-24]
   102f8:	b81e43a3 	stur	w3, [x29, #-28]
   102fc:	b81e03a4 	stur	w4, [x29, #-32]
   10300:	d13fa3e0 	sub	x0, sp, #0xfe8
   10304:	d2856d01 	mov	x1, #0x2b68                	// #11112
   10308:	f2a000c1 	movk	x1, #0x6, lsl #16
   1030c:	f2c00aa1 	movk	x1, #0x55, lsl #32
   10310:	f2e00001 	movk	x1, #0x0, lsl #48
   10314:	d285e902 	mov	x2, #0x2f48                	// #12104
   10318:	f2a000c2 	movk	x2, #0x6, lsl #16
   1031c:	f2c00aa2 	movk	x2, #0x55, lsl #32
   10320:	f2e00002 	movk	x2, #0x0, lsl #48
   10324:	d2942991 	mov	x17, #0xa14c                	// #41292
   10328:	f2a031b1 	movk	x17, #0x18d, lsl #16
   1032c:	f2c00ab1 	movk	x17, #0x55, lsl #32
   10330:	f2e00011 	movk	x17, #0x0, lsl #48
   10334:	d63f0220 	blr	x17
   10338:	52800000 	mov	w0, #0x0                   	// #0
   1033c:	72a00000 	movk	w0, #0x0, lsl #16
   10340:	b85f43a1 	ldur	w1, [x29, #-12]
   10344:	6b01001f 	cmp	w0, w1
   10348:	5400046b 	b.lt	0x103d4  // b.tstop
   1034c:	52800000 	mov	w0, #0x0                   	// #0
   10350:	72a00000 	movk	w0, #0x0, lsl #16
   10354:	b85e43a2 	ldur	w2, [x29, #-28]
   10358:	6b02001f 	cmp	w0, w2
   1035c:	540003cb 	b.lt	0x103d4  // b.tstop
   10360:	52800000 	mov	w0, #0x0                   	// #0
   10364:	72a00000 	movk	w0, #0x0, lsl #16
   10368:	b85e03a3 	ldur	w3, [x29, #-32]
   1036c:	6b03001f 	cmp	w0, w3
   10370:	5400032b 	b.lt	0x103d4  // b.tstop
   10374:	d42000e0 	brk	#0x7
   10378:	d4200500 	brk	#0x28
   1037c:	b85d43a4 	ldur	w4, [x29, #-44]
   10380:	6b00009f 	cmp	w4, w0
   10384:	5400028b 	b.lt	0x103d4  // b.tstop
   10388:	d42000e0 	brk	#0x7
   1038c:	f85d83a5 	ldur	x5, [x29, #-40]
   10390:	710000bf 	cmp	w5, #0x0
   10394:	54000601 	b.ne	0x10454  // b.any
   10398:	b81d03a0 	stur	w0, [x29, #-48]
   1039c:	b81f43a1 	stur	w1, [x29, #-12]
   103a0:	b81e43a2 	stur	w2, [x29, #-28]
   103a4:	b81e03a3 	stur	w3, [x29, #-32]
   103a8:	b81d43a4 	stur	w4, [x29, #-44]
   103ac:	f81d83a5 	stur	x5, [x29, #-40]
   103b0:	d298b091 	mov	x17, #0xc584                	// #50564
   103b4:	f2a031b1 	movk	x17, #0x18d, lsl #16
   103b8:	f2c00ab1 	movk	x17, #0x55, lsl #32
   103bc:	f2e00011 	movk	x17, #0x0, lsl #48
   103c0:	d63f0220 	blr	x17
   103c4:	f85d83a0 	ldur	x0, [x29, #-40]
   103c8:	f8408001 	ldur	x1, [x0, #8]
   103cc:	b85d43a2 	ldur	w2, [x29, #-44]
   103d0:	6b01005f 	cmp	w2, w1
   103d4:	5400018a 	b.ge	0x10404  // b.tcont
   103d8:	d295b204 	mov	x4, #0xad90                	// #44432
   103dc:	f2a000c4 	movk	x4, #0x6, lsl #16
   103e0:	f2c00aa4 	movk	x4, #0x55, lsl #32
   103e4:	f2e00004 	movk	x4, #0x0, lsl #48
   103e8:	f8400083 	ldur	x3, [x4]
   103ec:	f81d83a0 	stur	x0, [x29, #-40]
   103f0:	b81d03a1 	stur	w1, [x29, #-48]
   103f4:	b81d43a2 	stur	w2, [x29, #-44]
   103f8:	f81c03a3 	stur	x3, [x29, #-64]
   103fc:	f85c03a0 	ldur	x0, [x29, #-64]
   10400:	97ffcbd8 	bl	0x3360
   10404:	d4200880 	brk	#0x44
   10408:	d4200500 	brk	#0x28
   1040c:	f85d83a1 	ldur	x1, [x29, #-40]
   10410:	f8410022 	ldur	x2, [x1, #16]
   10414:	f81c83a0 	stur	x0, [x29, #-56]
   10418:	f81d83a1 	stur	x1, [x29, #-40]
   1041c:	f81b03a2 	stur	x2, [x29, #-80]
   10420:	f85b83a0 	ldur	x0, [x29, #-72]
   10424:	b85f43a1 	ldur	w1, [x29, #-12]
   10428:	f85b03a2 	ldur	x2, [x29, #-80]
   1042c:	b85e43a3 	ldur	w3, [x29, #-28]
   10430:	b85e03a4 	ldur	w4, [x29, #-32]
   10434:	d28dc791 	mov	x17, #0x6e3c                	// #28220
   10438:	f2a031b1 	movk	x17, #0x18d, lsl #16
   1043c:	f2c00ab1 	movk	x17, #0x55, lsl #32
   10440:	f2e00011 	movk	x17, #0x0, lsl #48
   10444:	d63f0220 	blr	x17
   10448:	910143ff 	add	sp, sp, #0x50
   1044c:	a8c17bfd 	ldp	x29, x30, [sp], #16
   10450:	d65f03c0 	ret
   10454:	d503201f 	nop
   10458:	d503201f 	nop
   1045c:	d503201f 	nop
   10460:	a9bf7bfd 	stp	x29, x30, [sp, #-16]!
   10464:	910003fd 	mov	x29, sp
   10468:	d10103ff 	sub	sp, sp, #0x40
   1046c:	d4200500 	brk	#0x28
   10470:	7100005f 	cmp	w2, #0x0
   10474:	54000240 	b.eq	0x104bc  // b.none
   10478:	f81f83a0 	stur	x0, [x29, #-8]
   1047c:	f81f03a1 	stur	x1, [x29, #-16]
   10480:	f81e83a2 	stur	x2, [x29, #-24]
   10484:	d13fa3e0 	sub	x0, sp, #0xfe8
   10488:	d2876101 	mov	x1, #0x3b08                	// #15112
   1048c:	f2a000c1 	movk	x1, #0x6, lsl #16
   10490:	f2c00aa1 	movk	x1, #0x55, lsl #32
   10494:	f2e00001 	movk	x1, #0x0, lsl #48
   10498:	d2851102 	mov	x2, #0x2888                	// #10376
   1049c:	f2a000c2 	movk	x2, #0x6, lsl #16
   104a0:	f2c00aa2 	movk	x2, #0x55, lsl #32
   104a4:	f2e00002 	movk	x2, #0x0, lsl #48
   104a8:	d293ee91 	mov	x17, #0x9f74                	// #40820
   104ac:	f2a031b1 	movk	x17, #0x18d, lsl #16
   104b0:	f2c00ab1 	movk	x17, #0x55, lsl #32
   104b4:	f2e00011 	movk	x17, #0x0, lsl #48
   104b8:	d63f0220 	blr	x17
   104bc:	14000003 	b	0x104c8
   104c0:	528000e0 	mov	w0, #0x7                   	// #7
   104c4:	72a00000 	movk	w0, #0x0, lsl #16
   104c8:	d4200100 	brk	#0x8
   104cc:	b85e03a1 	ldur	w1, [x29, #-32]
   104d0:	b85e43a2 	ldur	w2, [x29, #-28]
   104d4:	6b01005f 	cmp	w2, w1
   104d8:	540000ab 	b.lt	0x104ec  // b.tstop
   104dc:	528000e3 	mov	w3, #0x7                   	// #7
   104e0:	72a00003 	movk	w3, #0x0, lsl #16
   104e4:	d4200100 	brk	#0x8
   104e8:	2a0003e1 	mov	w1, w0
   104ec:	14000006 	b	0x10504
   104f0:	52800003 	mov	w3, #0x0                   	// #0
   104f4:	72a00003 	movk	w3, #0x0, lsl #16
   104f8:	6b01007f 	cmp	w3, w1
   104fc:	5400004a 	b.ge	0x10504  // b.tcont
   10500:	d42000e0 	brk	#0x7
   10504:	2a0003e1 	mov	w1, w0
   10508:	52800003 	mov	w3, #0x0                   	// #0
   1050c:	72a00003 	movk	w3, #0x0, lsl #16
   10510:	6b01007f 	cmp	w3, w1
   10514:	5400018b 	b.lt	0x10544  // b.tstop
   10518:	d4200500 	brk	#0x28
   1051c:	d42009a0 	brk	#0x4d
   10520:	f85c83a4 	ldur	x4, [x29, #-56]
   10524:	f85f03a5 	ldur	x5, [x29, #-16]
   10528:	6b0400bf 	cmp	w5, w4
   1052c:	54000061 	b.ne	0x10538  // b.any
   10530:	910103ff 	add	sp, sp, #0x40
   10534:	a8c17bfd 	ldp	x29, x30, [sp], #16
   10538:	d65f03c0 	ret
   1053c:	f85f83a6 	ldur	x6, [x29, #-8]
   10540:	510004c1 	sub	w1, w6, #0x1
   10544:	17fffff0 	b	0x10504
   10548:	52800200 	mov	w0, #0x10                  	// #16
   1054c:	72a00000 	movk	w0, #0x0, lsl #16
   10550:	910103ff 	add	sp, sp, #0x40
   10554:	a8c17bfd 	ldp	x29, x30, [sp], #16
   10558:	d65f03c0 	ret
   1055c:	d503201f 	nop
   10560:	a9bf7bfd 	stp	x29, x30, [sp, #-16]!
   10564:	910003fd 	mov	x29, sp
   10568:	d10103ff 	sub	sp, sp, #0x40
   1056c:	d4200500 	brk	#0x28
   10570:	d2852901 	mov	x1, #0x2948                	// #10568
   10574:	f2a000c1 	movk	x1, #0x6, lsl #16
   10578:	f2c00aa1 	movk	x1, #0x55, lsl #32
   1057c:	f2e00001 	movk	x1, #0x0, lsl #48
   10580:	f81f83a0 	stur	x0, [x29, #-8]
   10584:	f81e03a1 	stur	x1, [x29, #-32]
   10588:	f85e03a0 	ldur	x0, [x29, #-32]
   1058c:	b85f43a1 	ldur	w1, [x29, #-12]
   10590:	d28db011 	mov	x17, #0x6d80                	// #28032
   10594:	f2a031b1 	movk	x17, #0x18d, lsl #16
   10598:	f2c00ab1 	movk	x17, #0x55, lsl #32
   1059c:	f2e00011 	movk	x17, #0x0, lsl #48
   105a0:	d63f0220 	blr	x17
   105a4:	52800001 	mov	w1, #0x0                   	// #0
   105a8:	72a00001 	movk	w1, #0x0, lsl #16
   105ac:	d4200500 	brk	#0x28
   105b0:	52800002 	mov	w2, #0x0                   	// #0
   105b4:	72a00002 	movk	w2, #0x0, lsl #16
   105b8:	d4200500 	brk	#0x28
   105bc:	f81e83a0 	stur	x0, [x29, #-24]
   105c0:	b81f03a1 	stur	w1, [x29, #-16]
   105c4:	b81d43a2 	stur	w2, [x29, #-44]
   105c8:	f85e83a0 	ldur	x0, [x29, #-24]
   105cc:	b85f03a1 	ldur	w1, [x29, #-16]
   105d0:	f85d83a2 	ldur	x2, [x29, #-40]
   105d4:	b85d43a3 	ldur	w3, [x29, #-44]
   105d8:	b85d03a4 	ldur	w4, [x29, #-48]
   105dc:	d28dc791 	mov	x17, #0x6e3c                	// #28220
   105e0:	f2a031b1 	movk	x17, #0x18d, lsl #16
   105e4:	f2c00ab1 	movk	x17, #0x55, lsl #32
   105e8:	f2e00011 	movk	x17, #0x0, lsl #48
   105ec:	d63f0220 	blr	x17
   105f0:	f85e83a0 	ldur	x0, [x29, #-24]
   105f4:	97fffb23 	bl	0xf280
   105f8:	910103ff 	add	sp, sp, #0x40
   105fc:	a8c17bfd 	ldp	x29, x30, [sp], #16
   10600:	d65f03c0 	ret
   10604:	d503201f 	nop
   10608:	d503201f 	nop
   1060c:	d503201f 	nop
   10610:	a9bf7bfd 	stp	x29, x30, [sp, #-16]!
   10614:	910003fd 	mov	x29, sp
   10618:	d10043ff 	sub	sp, sp, #0x10
   1061c:	f81f83a0 	stur	x0, [x29, #-8]
   10620:	d28afd00 	mov	x0, #0x57e8                	// #22504
   10624:	f2a000c0 	movk	x0, #0x6, lsl #16
   10628:	f2c00aa0 	movk	x0, #0x55, lsl #32
   1062c:	f2e00000 	movk	x0, #0x0, lsl #48
   10630:	d287fa11 	mov	x17, #0x3fd0                	// #16336
   10634:	f2a031b1 	movk	x17, #0x18d, lsl #16
   10638:	f2c00ab1 	movk	x17, #0x55, lsl #32
   1063c:	f2e00011 	movk	x17, #0x0, lsl #48
   10640:	d63f0220 	blr	x17
   10644:	f81f03a0 	stur	x0, [x29, #-16]
   10648:	f85f03a0 	ldur	x0, [x29, #-16]
   1064c:	f85f83a1 	ldur	x1, [x29, #-8]
   10650:	97fffa9c 	bl	0xf0c0
   10654:	910043ff 	add	sp, sp, #0x10
   10658:	a8c17bfd 	ldp	x29, x30, [sp], #16
   1065c:	d65f03c0 	ret
   10660:	a9bf7bfd 	stp	x29, x30, [sp, #-16]!
   10664:	910003fd 	mov	x29, sp
   10668:	d10043ff 	sub	sp, sp, #0x10
   1066c:	f81f83a0 	stur	x0, [x29, #-8]
   10670:	d28b0d00 	mov	x0, #0x5868                	// #22632
   10674:	f2a000c0 	movk	x0, #0x6, lsl #16
   10678:	f2c00aa0 	movk	x0, #0x55, lsl #32
   1067c:	f2e00000 	movk	x0, #0x0, lsl #48
   10680:	d287fa11 	mov	x17, #0x3fd0                	// #16336
   10684:	f2a031b1 	movk	x17, #0x18d, lsl #16
   10688:	f2c00ab1 	movk	x17, #0x55, lsl #32
   1068c:	f2e00011 	movk	x17, #0x0, lsl #48
   10690:	d63f0220 	blr	x17
   10694:	f81f03a0 	stur	x0, [x29, #-16]
   10698:	f85f03a0 	ldur	x0, [x29, #-16]
   1069c:	f85f83a1 	ldur	x1, [x29, #-8]
   106a0:	97fffadc 	bl	0xf210
   106a4:	910043ff 	add	sp, sp, #0x10
   106a8:	a8c17bfd 	ldp	x29, x30, [sp], #16
   106ac:	d65f03c0 	ret
   106b0:	a9bf7bfd 	stp	x29, x30, [sp, #-16]!
   106b4:	910003fd 	mov	x29, sp
   106b8:	d10183ff 	sub	sp, sp, #0x60
   106bc:	f81f83a0 	stur	x0, [x29, #-8]
   106c0:	f81f03a1 	stur	x1, [x29, #-16]
   106c4:	d285e900 	mov	x0, #0x2f48                	// #12104
   106c8:	f2a000c0 	movk	x0, #0x6, lsl #16
   106cc:	f2c00aa0 	movk	x0, #0x55, lsl #32
   106d0:	f2e00000 	movk	x0, #0x0, lsl #48
   106d4:	d287fa11 	mov	x17, #0x3fd0                	// #16336
   106d8:	f2a031b1 	movk	x17, #0x18d, lsl #16
   106dc:	f2c00ab1 	movk	x17, #0x55, lsl #32
   106e0:	f2e00011 	movk	x17, #0x0, lsl #48
   106e4:	d63f0220 	blr	x17
   106e8:	f81e83a0 	stur	x0, [x29, #-24]
   106ec:	f85e83a0 	ldur	x0, [x29, #-24]
   106f0:	97fffaf8 	bl	0xf2d0
   106f4:	d4200500 	brk	#0x28
   106f8:	52800000 	mov	w0, #0x0                   	// #0
   106fc:	72a00000 	movk	w0, #0x0, lsl #16
   10700:	b85e43a1 	ldur	w1, [x29, #-28]
   10704:	6b00003f 	cmp	w1, w0
   10708:	5400012a 	b.ge	0x1072c  // b.tcont
   1070c:	d4200500 	brk	#0x28
   10710:	528000e0 	mov	w0, #0x7                   	// #7
   10714:	72a00000 	movk	w0, #0x0, lsl #16
   10718:	d4200100 	brk	#0x8
   1071c:	b81e03a0 	stur	w0, [x29, #-32]
   10720:	b81e43a1 	stur	w1, [x29, #-28]
   10724:	f85e83a0 	ldur	x0, [x29, #-24]
   10728:	b85e43a1 	ldur	w1, [x29, #-28]
   1072c:	94000099 	bl	0x10990
   10730:	52800000 	mov	w0, #0x0                   	// #0
   10734:	72a00000 	movk	w0, #0x0, lsl #16
   10738:	d4200500 	brk	#0x28
   1073c:	b85e03a1 	ldur	w1, [x29, #-32]
   10740:	6b00003f 	cmp	w1, w0
   10744:	5400042a 	b.ge	0x107c8  // b.tcont
   10748:	b81dc3a0 	stur	w0, [x29, #-36]
   1074c:	f85f83a2 	ldur	x2, [x29, #-8]
   10750:	11000440 	add	w0, w2, #0x1
   10754:	f85e83a3 	ldur	x3, [x29, #-24]
   10758:	7100007f 	cmp	w3, #0x0
   1075c:	54000501 	b.ne	0x107fc  // b.any
   10760:	b81e43a0 	stur	w0, [x29, #-28]
   10764:	b81e03a1 	stur	w1, [x29, #-32]
   10768:	f81f83a2 	stur	x2, [x29, #-8]
   1076c:	f81e83a3 	stur	x3, [x29, #-24]
   10770:	d298b091 	mov	x17, #0xc584                	// #50564
   10774:	f2a031b1 	movk	x17, #0x18d, lsl #16
   10778:	f2c00ab1 	movk	x17, #0x55, lsl #32
   1077c:	f2e00011 	movk	x17, #0x0, lsl #48
   10780:	d63f0220 	blr	x17
   10784:	f85e83a0 	ldur	x0, [x29, #-24]
   10788:	f8410001 	ldur	x1, [x0, #16]
   1078c:	d4200500 	brk	#0x28
   10790:	f85f03a2 	ldur	x2, [x29, #-16]
   10794:	7100005f 	cmp	w2, #0x0
   10798:	54000481 	b.ne	0x10828  // b.any
   1079c:	f81e83a0 	stur	x0, [x29, #-24]
   107a0:	f81d03a1 	stur	x1, [x29, #-48]
   107a4:	f81f03a2 	stur	x2, [x29, #-16]
   107a8:	d298b091 	mov	x17, #0xc584                	// #50564
   107ac:	f2a031b1 	movk	x17, #0x18d, lsl #16
   107b0:	f2c00ab1 	movk	x17, #0x55, lsl #32
   107b4:	f2e00011 	movk	x17, #0x0, lsl #48
   107b8:	d63f0220 	blr	x17
   107bc:	d42009a0 	brk	#0x4d
   107c0:	d4200400 	brk	#0x20
   107c4:	d4200a20 	brk	#0x51
   107c8:	17ffffdc 	b	0x10738
   107cc:	110007e0 	add	w0, wsp, #0x1
   107d0:	d4200ae0 	brk	#0x57
   107d4:	381b73a0 	sturb	w0, [x29, #-73]
   107d8:	f85e83a0 	ldur	x0, [x29, #-24]
   107dc:	f85a83a1 	ldur	x1, [x29, #-88]
   107e0:	97fff4e0 	bl	0xdb60
   107e4:	910183ff 	add	sp, sp, #0x60
   107e8:	a8c17bfd 	ldp	x29, x30, [sp], #16
   107ec:	d65f03c0 	ret
   107f0:	a9bf7bfd 	stp	x29, x30, [sp, #-16]!
   107f4:	910003fd 	mov	x29, sp
   107f8:	d10103ff 	sub	sp, sp, #0x40
   107fc:	f81f83a0 	stur	x0, [x29, #-8]
   10800:	f81f03a1 	stur	x1, [x29, #-16]
   10804:	d285e900 	mov	x0, #0x2f48                	// #12104
   10808:	f2a000c0 	movk	x0, #0x6, lsl #16
   1080c:	f2c00aa0 	movk	x0, #0x55, lsl #32
   10810:	f2e00000 	movk	x0, #0x0, lsl #48
   10814:	d287fa11 	mov	x17, #0x3fd0                	// #16336
   10818:	f2a031b1 	movk	x17, #0x18d, lsl #16
   1081c:	f2c00ab1 	movk	x17, #0x55, lsl #32
   10820:	f2e00011 	movk	x17, #0x0, lsl #48
   10824:	d63f0220 	blr	x17
   10828:	f81e83a0 	stur	x0, [x29, #-24]
   1082c:	f85e83a0 	ldur	x0, [x29, #-24]
   10830:	97fffaa8 	bl	0xf2d0
   10834:	52800000 	mov	w0, #0x0                   	// #0
   10838:	72a00000 	movk	w0, #0x0, lsl #16
   1083c:	d4200500 	brk	#0x28
   10840:	b85e03a1 	ldur	w1, [x29, #-32]
   10844:	6b00003f 	cmp	w1, w0
   10848:	5400046a 	b.ge	0x108d4  // b.tcont
   1084c:	b81dc3a0 	stur	w0, [x29, #-36]
   10850:	f85f83a2 	ldur	x2, [x29, #-8]
   10854:	11000440 	add	w0, w2, #0x1
   10858:	d4200500 	brk	#0x28
   1085c:	d42009a0 	brk	#0x4d
   10860:	f85f03a3 	ldur	x3, [x29, #-16]
   10864:	7100007f 	cmp	w3, #0x0
   10868:	54000501 	b.ne	0x10908  // b.any
   1086c:	b81e43a0 	stur	w0, [x29, #-28]
   10870:	b81e03a1 	stur	w1, [x29, #-32]
   10874:	f81f83a2 	stur	x2, [x29, #-8]
   10878:	f81f03a3 	stur	x3, [x29, #-16]
   1087c:	d298b091 	mov	x17, #0xc584                	// #50564
   10880:	f2a031b1 	movk	x17, #0x18d, lsl #16
   10884:	f2c00ab1 	movk	x17, #0x55, lsl #32
   10888:	f2e00011 	movk	x17, #0x0, lsl #48
   1088c:	d63f0220 	blr	x17
   10890:	d4200400 	brk	#0x20
   10894:	385c73a0 	ldurb	w0, [x29, #-57]
   10898:	7100001f 	cmp	w0, #0x0
   1089c:	540001a0 	b.eq	0x108d0  // b.none
   108a0:	f85e83a1 	ldur	x1, [x29, #-24]
   108a4:	7100003f 	cmp	w1, #0x0
   108a8:	54000401 	b.ne	0x10928  // b.any
   108ac:	381c73a0 	sturb	w0, [x29, #-57]
   108b0:	f81e83a1 	stur	x1, [x29, #-24]
   108b4:	d298b091 	mov	x17, #0xc584                	// #50564
   108b8:	f2a031b1 	movk	x17, #0x18d, lsl #16
   108bc:	f2c00ab1 	movk	x17, #0x55, lsl #32
   108c0:	f2e00011 	movk	x17, #0x0, lsl #48
   108c4:	d63f0220 	blr	x17
   108c8:	f85e83a0 	ldur	x0, [x29, #-24]
   108cc:	f85c83a1 	ldur	x1, [x29, #-56]
   108d0:	97fffb5c 	bl	0xf640
   108d4:	17ffffda 	b	0x1083c
   108d8:	910103ff 	add	sp, sp, #0x40
   108dc:	a8c17bfd 	ldp	x29, x30, [sp], #16
   108e0:	d65f03c0 	ret
   108e4:	d503201f 	nop
   108e8:	d503201f 	nop
   108ec:	d503201f 	nop
   108f0:	a9bf7bfd 	stp	x29, x30, [sp, #-16]!
   108f4:	910003fd 	mov	x29, sp
   108f8:	d100c3ff 	sub	sp, sp, #0x30
   108fc:	d4200500 	brk	#0x28
   10900:	b85f03a2 	ldur	w2, [x29, #-16]
   10904:	6b02003f 	cmp	w1, w2
   10908:	5400016a 	b.ge	0x10934  // b.tcont
   1090c:	528000e3 	mov	w3, #0x7                   	// #7
   10910:	72a00003 	movk	w3, #0x0, lsl #16
   10914:	d4200100 	brk	#0x8
   10918:	f81f83a0 	stur	x0, [x29, #-8]
   1091c:	b81f43a1 	stur	w1, [x29, #-12]
   10920:	b81f03a2 	stur	w2, [x29, #-16]
   10924:	b81ec3a3 	stur	w3, [x29, #-20]
   10928:	f85f83a0 	ldur	x0, [x29, #-8]
   1092c:	b85f03a1 	ldur	w1, [x29, #-16]
   10930:	94000018 	bl	0x10990
   10934:	14000012 	b	0x1097c
   10938:	d4200500 	brk	#0x28
   1093c:	b85f43a0 	ldur	w0, [x29, #-12]
   10940:	b85f03a1 	ldur	w1, [x29, #-16]
   10944:	6b00003f 	cmp	w1, w0
   10948:	540001aa 	b.ge	0x1097c  // b.tcont
   1094c:	2a0003e1 	mov	w1, w0
   10950:	d4200500 	brk	#0x28
   10954:	b85ec3a2 	ldur	w2, [x29, #-20]
   10958:	6b01005f 	cmp	w2, w1
   1095c:	540000ea 	b.ge	0x10978  // b.tcont
   10960:	b81e83a1 	stur	w1, [x29, #-24]
   10964:	f85f83a3 	ldur	x3, [x29, #-8]
   10968:	11000461 	add	w1, w3, #0x1
   1096c:	d4200500 	brk	#0x28
   10970:	aa1f03e4 	mov	x4, xzr
   10974:	d4200a20 	brk	#0x51
   10978:	17fffff6 	b	0x10950
   1097c:	d4200520 	brk	#0x29
   10980:	9100c3ff 	add	sp, sp, #0x30
   10984:	a8c17bfd 	ldp	x29, x30, [sp], #16
   10988:	d65f03c0 	ret
   1098c:	d503201f 	nop
   10990:	a9bf7bfd 	stp	x29, x30, [sp, #-16]!
   10994:	910003fd 	mov	x29, sp
   10998:	d10203ff 	sub	sp, sp, #0x80
   1099c:	52800002 	mov	w2, #0x0                   	// #0
   109a0:	72a00002 	movk	w2, #0x0, lsl #16
   109a4:	6b01005f 	cmp	w2, w1
   109a8:	540003ca 	b.ge	0x10a20  // b.tcont
   109ac:	d295b504 	mov	x4, #0xada8                	// #44456
   109b0:	f2a000c4 	movk	x4, #0x6, lsl #16
   109b4:	f2c00aa4 	movk	x4, #0x55, lsl #32
   109b8:	f2e00004 	movk	x4, #0x0, lsl #48
   109bc:	f8400083 	ldur	x3, [x4]
   109c0:	b81f03a1 	stur	w1, [x29, #-16]
   109c4:	d4200ae0 	brk	#0x57
   109c8:	f81f83a0 	stur	x0, [x29, #-8]
   109cc:	b81f43a1 	stur	w1, [x29, #-12]
   109d0:	b81ec3a2 	stur	w2, [x29, #-20]
   109d4:	f81d83a3 	stur	x3, [x29, #-40]
   109d8:	b85f03a0 	ldur	w0, [x29, #-16]
   109dc:	f85d03a1 	ldur	x1, [x29, #-48]
   109e0:	d292a211 	mov	x17, #0x9510                	// #38160
   109e4:	f2a031d1 	movk	x17, #0x18e, lsl #16
   109e8:	f2c00ab1 	movk	x17, #0x55, lsl #32
   109ec:	f2e00011 	movk	x17, #0x0, lsl #48
   109f0:	d63f0220 	blr	x17
   109f4:	f81c83a0 	stur	x0, [x29, #-56]
   109f8:	f85c83a0 	ldur	x0, [x29, #-56]
   109fc:	b85f03a1 	ldur	w1, [x29, #-16]
   10a00:	97ffc05c 	bl	0xb70
   10a04:	f81c03a0 	stur	x0, [x29, #-64]
   10a08:	f85d83a0 	ldur	x0, [x29, #-40]
   10a0c:	f85c03a1 	ldur	x1, [x29, #-64]
   10a10:	97ffc0ec 	bl	0xdc0
   10a14:	f81d83a0 	stur	x0, [x29, #-40]
   10a18:	f85d83a0 	ldur	x0, [x29, #-40]
   10a1c:	97ffca51 	bl	0x3360
   10a20:	d4200880 	brk	#0x44
   10a24:	528000e1 	mov	w1, #0x7                   	// #7
   10a28:	72a00001 	movk	w1, #0x0, lsl #16
   10a2c:	d42000e0 	brk	#0x7
   10a30:	d4200500 	brk	#0x28
   10a34:	d4200a60 	brk	#0x53
   10a38:	b85f03a2 	ldur	w2, [x29, #-16]
   10a3c:	6b01005f 	cmp	w2, w1
   10a40:	540005ea 	b.ge	0x10afc  // b.tcont
   10a44:	52800243 	mov	w3, #0x12                  	// #18
   10a48:	72a00003 	movk	w3, #0x0, lsl #16
   10a4c:	d4200120 	brk	#0x9
   10a50:	528000e3 	mov	w3, #0x7                   	// #7
   10a54:	72a00003 	movk	w3, #0x0, lsl #16
   10a58:	d42001e0 	brk	#0xf
   10a5c:	b85ac3a4 	ldur	w4, [x29, #-84]
   10a60:	6b04005f 	cmp	w2, w4
   10a64:	5400002a 	b.ge	0x10a68  // b.tcont
   10a68:	2a0203e4 	mov	w4, w2
   10a6c:	d2852905 	mov	x5, #0x2948                	// #10568
   10a70:	f2a000c5 	movk	x5, #0x6, lsl #16
   10a74:	f2c00aa5 	movk	x5, #0x55, lsl #32
   10a78:	f2e00005 	movk	x5, #0x0, lsl #48
   10a7c:	f81e03a0 	stur	x0, [x29, #-32]
   10a80:	b81ec3a1 	stur	w1, [x29, #-20]
   10a84:	b81f03a2 	stur	w2, [x29, #-16]
   10a88:	b81a83a3 	stur	w3, [x29, #-88]
   10a8c:	b81ac3a4 	stur	w4, [x29, #-84]
   10a90:	f81983a5 	stur	x5, [x29, #-104]
   10a94:	f85983a0 	ldur	x0, [x29, #-104]
   10a98:	b85ac3a1 	ldur	w1, [x29, #-84]
   10a9c:	d28db011 	mov	x17, #0x6d80                	// #28032
   10aa0:	f2a031b1 	movk	x17, #0x18d, lsl #16
   10aa4:	f2c00ab1 	movk	x17, #0x55, lsl #32
   10aa8:	f2e00011 	movk	x17, #0x0, lsl #48
   10aac:	d63f0220 	blr	x17
   10ab0:	52800001 	mov	w1, #0x0                   	// #0
   10ab4:	72a00001 	movk	w1, #0x0, lsl #16
   10ab8:	d4200500 	brk	#0x28
   10abc:	52800002 	mov	w2, #0x0                   	// #0
   10ac0:	72a00002 	movk	w2, #0x0, lsl #16
   10ac4:	d4200500 	brk	#0x28
   10ac8:	f81b03a0 	stur	x0, [x29, #-80]
   10acc:	b81a83a1 	stur	w1, [x29, #-88]
   10ad0:	b81a43a2 	stur	w2, [x29, #-92]
   10ad4:	f85b03a0 	ldur	x0, [x29, #-80]
   10ad8:	b85a83a1 	ldur	w1, [x29, #-88]
   10adc:	f85903a2 	ldur	x2, [x29, #-112]
   10ae0:	b85a43a3 	ldur	w3, [x29, #-92]
   10ae4:	b858c3a4 	ldur	w4, [x29, #-116]
   10ae8:	d28dc791 	mov	x17, #0x6e3c                	// #28220
   10aec:	f2a031b1 	movk	x17, #0x18d, lsl #16
   10af0:	f2c00ab1 	movk	x17, #0x55, lsl #32
   10af4:	f2e00011 	movk	x17, #0x0, lsl #48
   10af8:	d63f0220 	blr	x17
   10afc:	d4200520 	brk	#0x29
   10b00:	d4200520 	brk	#0x29
   10b04:	910203ff 	add	sp, sp, #0x80
   10b08:	a8c17bfd 	ldp	x29, x30, [sp], #16
   10b0c:	d65f03c0 	ret
   10b10:	a9bf7bfd 	stp	x29, x30, [sp, #-16]!
   10b14:	910003fd 	mov	x29, sp
   10b18:	d10083ff 	sub	sp, sp, #0x20
   10b1c:	d4200500 	brk	#0x28
   10b20:	b85f03a2 	ldur	w2, [x29, #-16]
   10b24:	6b01005f 	cmp	w2, w1
   10b28:	5400008b 	b.lt	0x10b38  // b.tstop
   10b2c:	aa1f03e3 	mov	x3, xzr
   10b30:	910083ff 	add	sp, sp, #0x20
   10b34:	a8c17bfd 	ldp	x29, x30, [sp], #16
   10b38:	d65f03c0 	ret
   10b3c:	d4200500 	brk	#0x28
   10b40:	d42009a0 	brk	#0x4d
   10b44:	910083ff 	add	sp, sp, #0x20
   10b48:	a8c17bfd 	ldp	x29, x30, [sp], #16
   10b4c:	d65f03c0 	ret
   10b50:	a9bf7bfd 	stp	x29, x30, [sp, #-16]!
   10b54:	910003fd 	mov	x29, sp
   10b58:	d10103ff 	sub	sp, sp, #0x40
   10b5c:	d4200500 	brk	#0x28
   10b60:	b85e43a3 	ldur	w3, [x29, #-28]
   10b64:	6b01007f 	cmp	w3, w1
   10b68:	540000eb 	b.lt	0x10b84  // b.tstop
   10b6c:	f81f83a0 	stur	x0, [x29, #-8]
   10b70:	b81f43a1 	stur	w1, [x29, #-12]
   10b74:	f81e83a2 	stur	x2, [x29, #-24]
   10b78:	b81e43a3 	stur	w3, [x29, #-28]
   10b7c:	f85f83a0 	ldur	x0, [x29, #-8]
   10b80:	b85f43a1 	ldur	w1, [x29, #-12]
   10b84:	97ffff83 	bl	0x10990
   10b88:	d4200500 	brk	#0x28
   10b8c:	d4200500 	brk	#0x28
   10b90:	f85c03a0 	ldur	x0, [x29, #-64]
   10b94:	d28dd811 	mov	x17, #0x6ec0                	// #28352
   10b98:	f2a031b1 	movk	x17, #0x18d, lsl #16
   10b9c:	f2c00ab1 	movk	x17, #0x55, lsl #32
   10ba0:	f2e00011 	movk	x17, #0x0, lsl #48
   10ba4:	d63f0220 	blr	x17
   10ba8:	f81c83a0 	stur	x0, [x29, #-56]
   10bac:	f85e83a0 	ldur	x0, [x29, #-24]
   10bb0:	f85c83a1 	ldur	x1, [x29, #-56]
   10bb4:	d2966f91 	mov	x17, #0xb37c                	// #45948
   10bb8:	f2a031b1 	movk	x17, #0x18d, lsl #16
   10bbc:	f2c00ab1 	movk	x17, #0x55, lsl #32
   10bc0:	f2e00011 	movk	x17, #0x0, lsl #48
   10bc4:	d63f0220 	blr	x17
   10bc8:	d4200a20 	brk	#0x51
   10bcc:	910103ff 	add	sp, sp, #0x40
   10bd0:	a8c17bfd 	ldp	x29, x30, [sp], #16
   10bd4:	d65f03c0 	ret
   10bd8:	d503201f 	nop
   10bdc:	d503201f 	nop
   10be0:	a9bf7bfd 	stp	x29, x30, [sp, #-16]!
   10be4:	910003fd 	mov	x29, sp
   10be8:	d10083ff 	sub	sp, sp, #0x20
   10bec:	f81f83a0 	stur	x0, [x29, #-8]
   10bf0:	f81f03a1 	stur	x1, [x29, #-16]
   10bf4:	f85f83a0 	ldur	x0, [x29, #-8]
   10bf8:	f85f03a1 	ldur	x1, [x29, #-16]
   10bfc:	97fffa91 	bl	0xf640
   10c00:	910083ff 	add	sp, sp, #0x20
   10c04:	a8c17bfd 	ldp	x29, x30, [sp], #16
   10c08:	d65f03c0 	ret
   10c0c:	d503201f 	nop
   10c10:	a9bf7bfd 	stp	x29, x30, [sp, #-16]!
   10c14:	910003fd 	mov	x29, sp
   10c18:	d10043ff 	sub	sp, sp, #0x10
   10c1c:	f81f83a0 	stur	x0, [x29, #-8]
   10c20:	f85f83a0 	ldur	x0, [x29, #-8]
   10c24:	97fffa6b 	bl	0xf5d0
   10c28:	910043ff 	add	sp, sp, #0x10
   10c2c:	a8c17bfd 	ldp	x29, x30, [sp], #16
   10c30:	d65f03c0 	ret
   10c34:	d503201f 	nop
   10c38:	d503201f 	nop
   10c3c:	d503201f 	nop
   10c40:	a9bf7bfd 	stp	x29, x30, [sp, #-16]!
   10c44:	910003fd 	mov	x29, sp
   10c48:	d10043ff 	sub	sp, sp, #0x10
   10c4c:	f81f83a0 	stur	x0, [x29, #-8]
   10c50:	f85f83a0 	ldur	x0, [x29, #-8]
   10c54:	97fffab7 	bl	0xf730
   10c58:	910043ff 	add	sp, sp, #0x10
   10c5c:	a8c17bfd 	ldp	x29, x30, [sp], #16
   10c60:	d65f03c0 	ret
   10c64:	d503201f 	nop
   10c68:	d503201f 	nop
   10c6c:	d503201f 	nop
   10c70:	a9bf7bfd 	stp	x29, x30, [sp, #-16]!
   10c74:	910003fd 	mov	x29, sp
   10c78:	d10043ff 	sub	sp, sp, #0x10
   10c7c:	f81f83a0 	stur	x0, [x29, #-8]
   10c80:	f81f03a1 	stur	x1, [x29, #-16]
   10c84:	f85f83a0 	ldur	x0, [x29, #-8]
   10c88:	f85f03a1 	ldur	x1, [x29, #-16]
   10c8c:	97fffc8d 	bl	0xfec0
   10c90:	910043ff 	add	sp, sp, #0x10
   10c94:	a8c17bfd 	ldp	x29, x30, [sp], #16
   10c98:	d65f03c0 	ret
   10c9c:	d503201f 	nop
   10ca0:	a9bf7bfd 	stp	x29, x30, [sp, #-16]!
   10ca4:	910003fd 	mov	x29, sp
   10ca8:	d10083ff 	sub	sp, sp, #0x20
   10cac:	f81f83a0 	stur	x0, [x29, #-8]
   10cb0:	b81f43a1 	stur	w1, [x29, #-12]
   10cb4:	f81e83a2 	stur	x2, [x29, #-24]
   10cb8:	f85f83a0 	ldur	x0, [x29, #-8]
   10cbc:	b85f43a1 	ldur	w1, [x29, #-12]
   10cc0:	f85e83a2 	ldur	x2, [x29, #-24]
   10cc4:	97fffcb7 	bl	0xffa0
   10cc8:	910083ff 	add	sp, sp, #0x20
   10ccc:	a8c17bfd 	ldp	x29, x30, [sp], #16
   10cd0:	d65f03c0 	ret
   10cd4:	d503201f 	nop
   10cd8:	d503201f 	nop
   10cdc:	d503201f 	nop
   10ce0:	a9bf7bfd 	stp	x29, x30, [sp, #-16]!
   10ce4:	910003fd 	mov	x29, sp
   10ce8:	d10083ff 	sub	sp, sp, #0x20
   10cec:	f81f83a0 	stur	x0, [x29, #-8]
   10cf0:	f81f03a1 	stur	x1, [x29, #-16]
   10cf4:	f85f83a0 	ldur	x0, [x29, #-8]
   10cf8:	f85f03a1 	ldur	x1, [x29, #-16]
   10cfc:	97fffcf1 	bl	0x100c0
   10d00:	910083ff 	add	sp, sp, #0x20
   10d04:	a8c17bfd 	ldp	x29, x30, [sp], #16
   10d08:	d65f03c0 	ret
   10d0c:	d503201f 	nop
   10d10:	a9bf7bfd 	stp	x29, x30, [sp, #-16]!
   10d14:	910003fd 	mov	x29, sp
   10d18:	d10083ff 	sub	sp, sp, #0x20
   10d1c:	f81f83a0 	stur	x0, [x29, #-8]
   10d20:	f81f03a1 	stur	x1, [x29, #-16]
   10d24:	f85f83a0 	ldur	x0, [x29, #-8]
   10d28:	f85f03a1 	ldur	x1, [x29, #-16]
   10d2c:	97fffcfd 	bl	0x10120
   10d30:	910083ff 	add	sp, sp, #0x20
   10d34:	a8c17bfd 	ldp	x29, x30, [sp], #16
   10d38:	d65f03c0 	ret
   10d3c:	d503201f 	nop
   10d40:	a9bf7bfd 	stp	x29, x30, [sp, #-16]!
   10d44:	910003fd 	mov	x29, sp
   10d48:	d10043ff 	sub	sp, sp, #0x10
   10d4c:	f81f83a0 	stur	x0, [x29, #-8]
   10d50:	f81f03a1 	stur	x1, [x29, #-16]
   10d54:	f85f83a0 	ldur	x0, [x29, #-8]
   10d58:	f85f03a1 	ldur	x1, [x29, #-16]
   10d5c:	97fffb11 	bl	0xf9a0
   10d60:	910043ff 	add	sp, sp, #0x10
   10d64:	a8c17bfd 	ldp	x29, x30, [sp], #16
   10d68:	d65f03c0 	ret
   10d6c:	d503201f 	nop
   10d70:	a9bf7bfd 	stp	x29, x30, [sp, #-16]!
   10d74:	910003fd 	mov	x29, sp
   10d78:	d10083ff 	sub	sp, sp, #0x20
   10d7c:	aa1f03e2 	mov	x2, xzr
   10d80:	f81f83a0 	stur	x0, [x29, #-8]
   10d84:	f81f03a1 	stur	x1, [x29, #-16]
   10d88:	f81e83a2 	stur	x2, [x29, #-24]
   10d8c:	d13fa3e0 	sub	x0, sp, #0xfe8
   10d90:	d2852901 	mov	x1, #0x2948                	// #10568
   10d94:	f2a000c1 	movk	x1, #0x6, lsl #16
   10d98:	f2c00aa1 	movk	x1, #0x55, lsl #32
   10d9c:	f2e00001 	movk	x1, #0x0, lsl #48
   10da0:	d285a102 	mov	x2, #0x2d08                	// #11528
   10da4:	f2a000c2 	movk	x2, #0x6, lsl #16
   10da8:	f2c00aa2 	movk	x2, #0x55, lsl #32
   10dac:	f2e00002 	movk	x2, #0x0, lsl #48
   10db0:	d2942991 	mov	x17, #0xa14c                	// #41292
   10db4:	f2a031b1 	movk	x17, #0x18d, lsl #16
   10db8:	f2c00ab1 	movk	x17, #0x55, lsl #32
   10dbc:	f2e00011 	movk	x17, #0x0, lsl #48
   10dc0:	d63f0220 	blr	x17
   10dc4:	f85f83a0 	ldur	x0, [x29, #-8]
   10dc8:	f85e03a1 	ldur	x1, [x29, #-32]
   10dcc:	97ffce2d 	bl	0x4680
   10dd0:	d4200520 	brk	#0x29
   10dd4:	910083ff 	add	sp, sp, #0x20
   10dd8:	a8c17bfd 	ldp	x29, x30, [sp], #16
   10ddc:	d65f03c0 	ret
   10de0:	a9bf7bfd 	stp	x29, x30, [sp, #-16]!
   10de4:	910003fd 	mov	x29, sp
   10de8:	d10083ff 	sub	sp, sp, #0x20
   10dec:	d4200500 	brk	#0x28
   10df0:	d4200500 	brk	#0x28
   10df4:	f85e03a1 	ldur	x1, [x29, #-32]
   10df8:	7100003f 	cmp	w1, #0x0
   10dfc:	54000401 	b.ne	0x10e7c  // b.any
   10e00:	f81f83a0 	stur	x0, [x29, #-8]
   10e04:	f81e03a1 	stur	x1, [x29, #-32]
   10e08:	d298b091 	mov	x17, #0xc584                	// #50564
   10e0c:	f2a031b1 	movk	x17, #0x18d, lsl #16
   10e10:	f2c00ab1 	movk	x17, #0x55, lsl #32
   10e14:	f2e00011 	movk	x17, #0x0, lsl #48
   10e18:	d63f0220 	blr	x17
   10e1c:	f85e03a0 	ldur	x0, [x29, #-32]
   10e20:	f8408001 	ldur	x1, [x0, #8]
   10e24:	b85f03a2 	ldur	w2, [x29, #-16]
   10e28:	6b02003f 	cmp	w1, w2
   10e2c:	5400004b 	b.lt	0x10e34  // b.tstop
   10e30:	110003e3 	mov	w3, wsp
   10e34:	14000001 	b	0x10e38
   10e38:	110007e3 	add	w3, wsp, #0x1
   10e3c:	910083ff 	add	sp, sp, #0x20
   10e40:	a8c17bfd 	ldp	x29, x30, [sp], #16
   10e44:	d65f03c0 	ret
   10e48:	d503201f 	nop
   10e4c:	d503201f 	nop
   10e50:	a9bf7bfd 	stp	x29, x30, [sp, #-16]!
   10e54:	910003fd 	mov	x29, sp
   10e58:	d10103ff 	sub	sp, sp, #0x40
   10e5c:	d4200500 	brk	#0x28
   10e60:	f85e83a1 	ldur	x1, [x29, #-24]
   10e64:	7100003f 	cmp	w1, #0x0
   10e68:	54000401 	b.ne	0x10ee8  // b.any
   10e6c:	f81f83a0 	stur	x0, [x29, #-8]
   10e70:	f81e83a1 	stur	x1, [x29, #-24]
   10e74:	d298b091 	mov	x17, #0xc584                	// #50564
   10e78:	f2a031b1 	movk	x17, #0x18d, lsl #16
   10e7c:	f2c00ab1 	movk	x17, #0x55, lsl #32
   10e80:	f2e00011 	movk	x17, #0x0, lsl #48
   10e84:	d63f0220 	blr	x17
   10e88:	f85e83a0 	ldur	x0, [x29, #-24]
   10e8c:	f8410001 	ldur	x1, [x0, #16]
   10e90:	f85f83a2 	ldur	x2, [x29, #-8]
   10e94:	f8410043 	ldur	x3, [x2, #16]
   10e98:	b81e03a3 	stur	w3, [x29, #-32]
   10e9c:	11000443 	add	w3, w2, #0x1
   10ea0:	f8000022 	stur	x2, [x1]
   10ea4:	52800244 	mov	w4, #0x12                  	// #18
   10ea8:	72a00004 	movk	w4, #0x0, lsl #16
   10eac:	d42001c0 	brk	#0xe
   10eb0:	d4200980 	brk	#0x4c
   10eb4:	d4200760 	brk	#0x3b
   10eb8:	910103ff 	add	sp, sp, #0x40
   10ebc:	a8c17bfd 	ldp	x29, x30, [sp], #16
   10ec0:	d65f03c0 	ret
   10ec4:	d503201f 	nop
   10ec8:	d503201f 	nop
   10ecc:	d503201f 	nop
   10ed0:	a9bf7bfd 	stp	x29, x30, [sp, #-16]!
   10ed4:	910003fd 	mov	x29, sp
   10ed8:	d10083ff 	sub	sp, sp, #0x20
   10edc:	aa1f03e2 	mov	x2, xzr
   10ee0:	f81f83a0 	stur	x0, [x29, #-8]
   10ee4:	f81f03a1 	stur	x1, [x29, #-16]
   10ee8:	f81e83a2 	stur	x2, [x29, #-24]
   10eec:	d13fa3e0 	sub	x0, sp, #0xfe8
   10ef0:	d2852901 	mov	x1, #0x2948                	// #10568
   10ef4:	f2a000c1 	movk	x1, #0x6, lsl #16
   10ef8:	f2c00aa1 	movk	x1, #0x55, lsl #32
   10efc:	f2e00001 	movk	x1, #0x0, lsl #48
   10f00:	d285a102 	mov	x2, #0x2d08                	// #11528
   10f04:	f2a000c2 	movk	x2, #0x6, lsl #16
   10f08:	f2c00aa2 	movk	x2, #0x55, lsl #32
   10f0c:	f2e00002 	movk	x2, #0x0, lsl #48
   10f10:	d2942991 	mov	x17, #0xa14c                	// #41292
   10f14:	f2a031b1 	movk	x17, #0x18d, lsl #16
   10f18:	f2c00ab1 	movk	x17, #0x55, lsl #32
   10f1c:	f2e00011 	movk	x17, #0x0, lsl #48
   10f20:	d63f0220 	blr	x17
   10f24:	f85f83a0 	ldur	x0, [x29, #-8]
   10f28:	f85e03a1 	ldur	x1, [x29, #-32]
   10f2c:	97ffcdd5 	bl	0x4680
   10f30:	d4200520 	brk	#0x29
   10f34:	910083ff 	add	sp, sp, #0x20
   10f38:	a8c17bfd 	ldp	x29, x30, [sp], #16
   10f3c:	d65f03c0 	ret
   10f40:	a9bf7bfd 	stp	x29, x30, [sp, #-16]!
   10f44:	910003fd 	mov	x29, sp
   10f48:	d10083ff 	sub	sp, sp, #0x20
   10f4c:	d4200500 	brk	#0x28
   10f50:	d4200500 	brk	#0x28
   10f54:	f85e03a1 	ldur	x1, [x29, #-32]
   10f58:	7100003f 	cmp	w1, #0x0
   10f5c:	54000401 	b.ne	0x10fdc  // b.any
   10f60:	f81f83a0 	stur	x0, [x29, #-8]
   10f64:	f81e03a1 	stur	x1, [x29, #-32]
   10f68:	d298b091 	mov	x17, #0xc584                	// #50564
   10f6c:	f2a031b1 	movk	x17, #0x18d, lsl #16
   10f70:	f2c00ab1 	movk	x17, #0x55, lsl #32
   10f74:	f2e00011 	movk	x17, #0x0, lsl #48
   10f78:	d63f0220 	blr	x17
   10f7c:	f85e03a0 	ldur	x0, [x29, #-32]
   10f80:	f8408001 	ldur	x1, [x0, #8]
   10f84:	b85f03a2 	ldur	w2, [x29, #-16]
   10f88:	6b02003f 	cmp	w1, w2
   10f8c:	5400004b 	b.lt	0x10f94  // b.tstop
   10f90:	110003e3 	mov	w3, wsp
   10f94:	14000001 	b	0x10f98
   10f98:	110007e3 	add	w3, wsp, #0x1
   10f9c:	910083ff 	add	sp, sp, #0x20
   10fa0:	a8c17bfd 	ldp	x29, x30, [sp], #16
   10fa4:	d65f03c0 	ret
   10fa8:	d503201f 	nop
   10fac:	d503201f 	nop
   10fb0:	a9bf7bfd 	stp	x29, x30, [sp, #-16]!
   10fb4:	910003fd 	mov	x29, sp
   10fb8:	d100c3ff 	sub	sp, sp, #0x30
   10fbc:	d4200500 	brk	#0x28
   10fc0:	f85e83a1 	ldur	x1, [x29, #-24]
   10fc4:	7100003f 	cmp	w1, #0x0
   10fc8:	54000401 	b.ne	0x11048  // b.any
   10fcc:	f81f83a0 	stur	x0, [x29, #-8]
   10fd0:	f81e83a1 	stur	x1, [x29, #-24]
   10fd4:	d298b091 	mov	x17, #0xc584                	// #50564
   10fd8:	f2a031b1 	movk	x17, #0x18d, lsl #16
   10fdc:	f2c00ab1 	movk	x17, #0x55, lsl #32
   10fe0:	f2e00011 	movk	x17, #0x0, lsl #48
   10fe4:	d63f0220 	blr	x17
   10fe8:	f85e83a0 	ldur	x0, [x29, #-24]
   10fec:	f8410001 	ldur	x1, [x0, #16]
   10ff0:	f85f83a2 	ldur	x2, [x29, #-8]
   10ff4:	f8410043 	ldur	x3, [x2, #16]
   10ff8:	b81e03a3 	stur	w3, [x29, #-32]
   10ffc:	11000443 	add	w3, w2, #0x1
   11000:	f8000022 	stur	x2, [x1]
   11004:	52800064 	mov	w4, #0x3                   	// #3
   11008:	72a00004 	movk	w4, #0x0, lsl #16
   1100c:	d42001c0 	brk	#0xe
   11010:	d4200980 	brk	#0x4c
   11014:	d4200760 	brk	#0x3b
   11018:	9100c3ff 	add	sp, sp, #0x30
   1101c:	a8c17bfd 	ldp	x29, x30, [sp], #16
   11020:	d65f03c0 	ret
   11024:	d503201f 	nop
   11028:	d503201f 	nop
   1102c:	d503201f 	nop
   11030:	a9bf7bfd 	stp	x29, x30, [sp, #-16]!
   11034:	910003fd 	mov	x29, sp
   11038:	d10083ff 	sub	sp, sp, #0x20
   1103c:	aa1f03e2 	mov	x2, xzr
   11040:	f81f83a0 	stur	x0, [x29, #-8]
   11044:	f81f03a1 	stur	x1, [x29, #-16]
   11048:	f81e83a2 	stur	x2, [x29, #-24]
   1104c:	d13fa3e0 	sub	x0, sp, #0xfe8
   11050:	d2852901 	mov	x1, #0x2948                	// #10568
   11054:	f2a000c1 	movk	x1, #0x6, lsl #16
   11058:	f2c00aa1 	movk	x1, #0x55, lsl #32
   1105c:	f2e00001 	movk	x1, #0x0, lsl #48
   11060:	d285a102 	mov	x2, #0x2d08                	// #11528
   11064:	f2a000c2 	movk	x2, #0x6, lsl #16
   11068:	f2c00aa2 	movk	x2, #0x55, lsl #32
   1106c:	f2e00002 	movk	x2, #0x0, lsl #48
   11070:	d2942991 	mov	x17, #0xa14c                	// #41292
   11074:	f2a031b1 	movk	x17, #0x18d, lsl #16
   11078:	f2c00ab1 	movk	x17, #0x55, lsl #32
   1107c:	f2e00011 	movk	x17, #0x0, lsl #48
   11080:	d63f0220 	blr	x17
   11084:	f85f83a0 	ldur	x0, [x29, #-8]
   11088:	f85e03a1 	ldur	x1, [x29, #-32]
   1108c:	97ffcd7d 	bl	0x4680
   11090:	d4200520 	brk	#0x29
   11094:	910083ff 	add	sp, sp, #0x20
   11098:	a8c17bfd 	ldp	x29, x30, [sp], #16
   1109c:	d65f03c0 	ret
   110a0:	a9bf7bfd 	stp	x29, x30, [sp, #-16]!
   110a4:	910003fd 	mov	x29, sp
   110a8:	d10083ff 	sub	sp, sp, #0x20
   110ac:	d4200500 	brk	#0x28
   110b0:	d4200500 	brk	#0x28
   110b4:	f85e03a1 	ldur	x1, [x29, #-32]
   110b8:	7100003f 	cmp	w1, #0x0
   110bc:	54000401 	b.ne	0x1113c  // b.any
   110c0:	f81f83a0 	stur	x0, [x29, #-8]
   110c4:	f81e03a1 	stur	x1, [x29, #-32]
   110c8:	d298b091 	mov	x17, #0xc584                	// #50564
   110cc:	f2a031b1 	movk	x17, #0x18d, lsl #16
   110d0:	f2c00ab1 	movk	x17, #0x55, lsl #32
   110d4:	f2e00011 	movk	x17, #0x0, lsl #48
   110d8:	d63f0220 	blr	x17
   110dc:	f85e03a0 	ldur	x0, [x29, #-32]
   110e0:	f8408001 	ldur	x1, [x0, #8]
   110e4:	b85f03a2 	ldur	w2, [x29, #-16]
   110e8:	6b02003f 	cmp	w1, w2
   110ec:	5400004b 	b.lt	0x110f4  // b.tstop
   110f0:	110003e3 	mov	w3, wsp
   110f4:	14000001 	b	0x110f8
   110f8:	110007e3 	add	w3, wsp, #0x1
   110fc:	910083ff 	add	sp, sp, #0x20
   11100:	a8c17bfd 	ldp	x29, x30, [sp], #16
   11104:	d65f03c0 	ret
   11108:	d503201f 	nop
   1110c:	d503201f 	nop
   11110:	a9bf7bfd 	stp	x29, x30, [sp, #-16]!
   11114:	910003fd 	mov	x29, sp
   11118:	d100c3ff 	sub	sp, sp, #0x30
   1111c:	d4200500 	brk	#0x28
   11120:	f85e83a1 	ldur	x1, [x29, #-24]
   11124:	7100003f 	cmp	w1, #0x0
   11128:	54000401 	b.ne	0x111a8  // b.any
   1112c:	f81f83a0 	stur	x0, [x29, #-8]
   11130:	f81e83a1 	stur	x1, [x29, #-24]
   11134:	d298b091 	mov	x17, #0xc584                	// #50564
   11138:	f2a031b1 	movk	x17, #0x18d, lsl #16
   1113c:	f2c00ab1 	movk	x17, #0x55, lsl #32
   11140:	f2e00011 	movk	x17, #0x0, lsl #48
   11144:	d63f0220 	blr	x17
   11148:	f85e83a0 	ldur	x0, [x29, #-24]
   1114c:	f8410001 	ldur	x1, [x0, #16]
   11150:	f85f83a2 	ldur	x2, [x29, #-8]
   11154:	f8410043 	ldur	x3, [x2, #16]
   11158:	b81e03a3 	stur	w3, [x29, #-32]
   1115c:	11000443 	add	w3, w2, #0x1
   11160:	f8000022 	stur	x2, [x1]
   11164:	52800064 	mov	w4, #0x3                   	// #3
   11168:	72a00004 	movk	w4, #0x0, lsl #16
   1116c:	d42001c0 	brk	#0xe
   11170:	d4200980 	brk	#0x4c
   11174:	d4200760 	brk	#0x3b
   11178:	9100c3ff 	add	sp, sp, #0x30
   1117c:	a8c17bfd 	ldp	x29, x30, [sp], #16
   11180:	d65f03c0 	ret
   11184:	d503201f 	nop
   11188:	d503201f 	nop
   1118c:	d503201f 	nop
   11190:	a9bf7bfd 	stp	x29, x30, [sp, #-16]!
   11194:	910003fd 	mov	x29, sp
   11198:	d10083ff 	sub	sp, sp, #0x20
   1119c:	aa1f03e2 	mov	x2, xzr
   111a0:	f81f83a0 	stur	x0, [x29, #-8]
   111a4:	f81f03a1 	stur	x1, [x29, #-16]
   111a8:	f81e83a2 	stur	x2, [x29, #-24]
   111ac:	d13fa3e0 	sub	x0, sp, #0xfe8
   111b0:	d2852901 	mov	x1, #0x2948                	// #10568
   111b4:	f2a000c1 	movk	x1, #0x6, lsl #16
   111b8:	f2c00aa1 	movk	x1, #0x55, lsl #32
   111bc:	f2e00001 	movk	x1, #0x0, lsl #48
   111c0:	d285a102 	mov	x2, #0x2d08                	// #11528
   111c4:	f2a000c2 	movk	x2, #0x6, lsl #16
   111c8:	f2c00aa2 	movk	x2, #0x55, lsl #32
   111cc:	f2e00002 	movk	x2, #0x0, lsl #48
   111d0:	d2942991 	mov	x17, #0xa14c                	// #41292
   111d4:	f2a031b1 	movk	x17, #0x18d, lsl #16
   111d8:	f2c00ab1 	movk	x17, #0x55, lsl #32
   111dc:	f2e00011 	movk	x17, #0x0, lsl #48
   111e0:	d63f0220 	blr	x17
   111e4:	f85f83a0 	ldur	x0, [x29, #-8]
   111e8:	f85e03a1 	ldur	x1, [x29, #-32]
   111ec:	97ffcd25 	bl	0x4680
   111f0:	d4200520 	brk	#0x29
   111f4:	910083ff 	add	sp, sp, #0x20
   111f8:	a8c17bfd 	ldp	x29, x30, [sp], #16
   111fc:	d65f03c0 	ret
   11200:	a9bf7bfd 	stp	x29, x30, [sp, #-16]!
   11204:	910003fd 	mov	x29, sp
   11208:	d10083ff 	sub	sp, sp, #0x20
   1120c:	d4200500 	brk	#0x28
   11210:	d4200500 	brk	#0x28
   11214:	f85e03a1 	ldur	x1, [x29, #-32]
   11218:	7100003f 	cmp	w1, #0x0
   1121c:	54000401 	b.ne	0x1129c  // b.any
   11220:	f81f83a0 	stur	x0, [x29, #-8]
   11224:	f81e03a1 	stur	x1, [x29, #-32]
   11228:	d298b091 	mov	x17, #0xc584                	// #50564
   1122c:	f2a031b1 	movk	x17, #0x18d, lsl #16
   11230:	f2c00ab1 	movk	x17, #0x55, lsl #32
   11234:	f2e00011 	movk	x17, #0x0, lsl #48
   11238:	d63f0220 	blr	x17
   1123c:	f85e03a0 	ldur	x0, [x29, #-32]
   11240:	f8408001 	ldur	x1, [x0, #8]
   11244:	b85f03a2 	ldur	w2, [x29, #-16]
   11248:	6b02003f 	cmp	w1, w2
   1124c:	5400004b 	b.lt	0x11254  // b.tstop
   11250:	110003e3 	mov	w3, wsp
   11254:	14000001 	b	0x11258
   11258:	110007e3 	add	w3, wsp, #0x1
   1125c:	910083ff 	add	sp, sp, #0x20
   11260:	a8c17bfd 	ldp	x29, x30, [sp], #16
   11264:	d65f03c0 	ret
   11268:	d503201f 	nop
   1126c:	d503201f 	nop
   11270:	a9bf7bfd 	stp	x29, x30, [sp, #-16]!
   11274:	910003fd 	mov	x29, sp
   11278:	d100c3ff 	sub	sp, sp, #0x30
   1127c:	d4200500 	brk	#0x28
   11280:	f85e83a1 	ldur	x1, [x29, #-24]
   11284:	7100003f 	cmp	w1, #0x0
   11288:	54000401 	b.ne	0x11308  // b.any
   1128c:	f81f83a0 	stur	x0, [x29, #-8]
   11290:	f81e83a1 	stur	x1, [x29, #-24]
   11294:	d298b091 	mov	x17, #0xc584                	// #50564
   11298:	f2a031b1 	movk	x17, #0x18d, lsl #16
   1129c:	f2c00ab1 	movk	x17, #0x55, lsl #32
   112a0:	f2e00011 	movk	x17, #0x0, lsl #48
   112a4:	d63f0220 	blr	x17
   112a8:	f85e83a0 	ldur	x0, [x29, #-24]
   112ac:	f8410001 	ldur	x1, [x0, #16]
   112b0:	f85f83a2 	ldur	x2, [x29, #-8]
   112b4:	f8410043 	ldur	x3, [x2, #16]
   112b8:	b81e03a3 	stur	w3, [x29, #-32]
   112bc:	11000443 	add	w3, w2, #0x1
   112c0:	f8000022 	stur	x2, [x1]
   112c4:	528000e4 	mov	w4, #0x7                   	// #7
   112c8:	72a00004 	movk	w4, #0x0, lsl #16
   112cc:	d42001c0 	brk	#0xe
   112d0:	d4200960 	brk	#0x4b
   112d4:	d4200760 	brk	#0x3b
   112d8:	9100c3ff 	add	sp, sp, #0x30
   112dc:	a8c17bfd 	ldp	x29, x30, [sp], #16
   112e0:	d65f03c0 	ret
   112e4:	d503201f 	nop
   112e8:	d503201f 	nop
   112ec:	d503201f 	nop
   112f0:	a9bf7bfd 	stp	x29, x30, [sp, #-16]!
   112f4:	910003fd 	mov	x29, sp
   112f8:	d10083ff 	sub	sp, sp, #0x20
   112fc:	aa1f03e2 	mov	x2, xzr
   11300:	f81f83a0 	stur	x0, [x29, #-8]
   11304:	f81f03a1 	stur	x1, [x29, #-16]
   11308:	f81e83a2 	stur	x2, [x29, #-24]
   1130c:	d13fa3e0 	sub	x0, sp, #0xfe8
   11310:	d2852901 	mov	x1, #0x2948                	// #10568
   11314:	f2a000c1 	movk	x1, #0x6, lsl #16
   11318:	f2c00aa1 	movk	x1, #0x55, lsl #32
   1131c:	f2e00001 	movk	x1, #0x0, lsl #48
   11320:	d285a102 	mov	x2, #0x2d08                	// #11528
   11324:	f2a000c2 	movk	x2, #0x6, lsl #16
   11328:	f2c00aa2 	movk	x2, #0x55, lsl #32
   1132c:	f2e00002 	movk	x2, #0x0, lsl #48
   11330:	d2942991 	mov	x17, #0xa14c                	// #41292
   11334:	f2a031b1 	movk	x17, #0x18d, lsl #16
   11338:	f2c00ab1 	movk	x17, #0x55, lsl #32
   1133c:	f2e00011 	movk	x17, #0x0, lsl #48
   11340:	d63f0220 	blr	x17
   11344:	f85f83a0 	ldur	x0, [x29, #-8]
   11348:	f85e03a1 	ldur	x1, [x29, #-32]
   1134c:	97ffcd0d 	bl	0x4780
   11350:	d4200520 	brk	#0x29
   11354:	910083ff 	add	sp, sp, #0x20
   11358:	a8c17bfd 	ldp	x29, x30, [sp], #16
   1135c:	d65f03c0 	ret
   11360:	a9bf7bfd 	stp	x29, x30, [sp, #-16]!
   11364:	910003fd 	mov	x29, sp
   11368:	d10083ff 	sub	sp, sp, #0x20
   1136c:	d4200500 	brk	#0x28
   11370:	d4200500 	brk	#0x28
   11374:	f85e03a1 	ldur	x1, [x29, #-32]
   11378:	7100003f 	cmp	w1, #0x0
   1137c:	54000401 	b.ne	0x113fc  // b.any
   11380:	f81f83a0 	stur	x0, [x29, #-8]
   11384:	f81e03a1 	stur	x1, [x29, #-32]
   11388:	d298b091 	mov	x17, #0xc584                	// #50564
   1138c:	f2a031b1 	movk	x17, #0x18d, lsl #16
   11390:	f2c00ab1 	movk	x17, #0x55, lsl #32
   11394:	f2e00011 	movk	x17, #0x0, lsl #48
   11398:	d63f0220 	blr	x17
   1139c:	f85e03a0 	ldur	x0, [x29, #-32]
   113a0:	f8408001 	ldur	x1, [x0, #8]
   113a4:	b85f03a2 	ldur	w2, [x29, #-16]
   113a8:	6b02003f 	cmp	w1, w2
   113ac:	5400004b 	b.lt	0x113b4  // b.tstop
   113b0:	110003e3 	mov	w3, wsp
   113b4:	14000001 	b	0x113b8
   113b8:	110007e3 	add	w3, wsp, #0x1
   113bc:	910083ff 	add	sp, sp, #0x20
   113c0:	a8c17bfd 	ldp	x29, x30, [sp], #16
   113c4:	d65f03c0 	ret
   113c8:	d503201f 	nop
   113cc:	d503201f 	nop
   113d0:	a9bf7bfd 	stp	x29, x30, [sp, #-16]!
   113d4:	910003fd 	mov	x29, sp
   113d8:	d10103ff 	sub	sp, sp, #0x40
   113dc:	d4200500 	brk	#0x28
   113e0:	f85e83a1 	ldur	x1, [x29, #-24]
   113e4:	7100003f 	cmp	w1, #0x0
   113e8:	54000401 	b.ne	0x11468  // b.any
   113ec:	f81f83a0 	stur	x0, [x29, #-8]
   113f0:	f81e83a1 	stur	x1, [x29, #-24]
   113f4:	d298b091 	mov	x17, #0xc584                	// #50564
   113f8:	f2a031b1 	movk	x17, #0x18d, lsl #16
   113fc:	f2c00ab1 	movk	x17, #0x55, lsl #32
   11400:	f2e00011 	movk	x17, #0x0, lsl #48
   11404:	d63f0220 	blr	x17
   11408:	f85e83a0 	ldur	x0, [x29, #-24]
   1140c:	f8410001 	ldur	x1, [x0, #16]
   11410:	d4200500 	brk	#0x28
   11414:	52800242 	mov	w2, #0x12                  	// #18
   11418:	72a00002 	movk	w2, #0x0, lsl #16
   1141c:	d42001c0 	brk	#0xe
   11420:	d4200980 	brk	#0x4c
   11424:	f81e83a0 	stur	x0, [x29, #-24]
   11428:	f81f03a1 	stur	x1, [x29, #-16]
   1142c:	b81d43a2 	stur	w2, [x29, #-44]
   11430:	d28ba900 	mov	x0, #0x5d48                	// #23880
   11434:	f2a000c0 	movk	x0, #0x6, lsl #16
   11438:	f2c00aa0 	movk	x0, #0x55, lsl #32
   1143c:	f2e00000 	movk	x0, #0x0, lsl #48
   11440:	d2883511 	mov	x17, #0x41a8                	// #16808
   11444:	f2a031b1 	movk	x17, #0x18d, lsl #16
   11448:	f2c00ab1 	movk	x17, #0x55, lsl #32
   1144c:	f2e00011 	movk	x17, #0x0, lsl #48
   11450:	d63f0220 	blr	x17
   11454:	f85f83a1 	ldur	x1, [x29, #-8]
   11458:	f8408022 	ldur	x2, [x1, #8]
   1145c:	b81d43a2 	stur	w2, [x29, #-44]
   11460:	11000422 	add	w2, w1, #0x1
   11464:	f800c021 	stur	x1, [x1, #12]
   11468:	d42004e0 	brk	#0x27
   1146c:	d42004e0 	brk	#0x27
   11470:	910103ff 	add	sp, sp, #0x40
   11474:	a8c17bfd 	ldp	x29, x30, [sp], #16
   11478:	d65f03c0 	ret
   1147c:	d503201f 	nop
   11480:	a9bf7bfd 	stp	x29, x30, [sp, #-16]!
   11484:	910003fd 	mov	x29, sp
   11488:	d10083ff 	sub	sp, sp, #0x20
   1148c:	aa1f03e2 	mov	x2, xzr
   11490:	f81f83a0 	stur	x0, [x29, #-8]
   11494:	f81f03a1 	stur	x1, [x29, #-16]
   11498:	f81e83a2 	stur	x2, [x29, #-24]
   1149c:	d13fa3e0 	sub	x0, sp, #0xfe8
   114a0:	d2852901 	mov	x1, #0x2948                	// #10568
   114a4:	f2a000c1 	movk	x1, #0x6, lsl #16
   114a8:	f2c00aa1 	movk	x1, #0x55, lsl #32
   114ac:	f2e00001 	movk	x1, #0x0, lsl #48
   114b0:	d285a102 	mov	x2, #0x2d08                	// #11528
   114b4:	f2a000c2 	movk	x2, #0x6, lsl #16
   114b8:	f2c00aa2 	movk	x2, #0x55, lsl #32
   114bc:	f2e00002 	movk	x2, #0x0, lsl #48
   114c0:	d2942991 	mov	x17, #0xa14c                	// #41292
   114c4:	f2a031b1 	movk	x17, #0x18d, lsl #16
   114c8:	f2c00ab1 	movk	x17, #0x55, lsl #32
   114cc:	f2e00011 	movk	x17, #0x0, lsl #48
   114d0:	d63f0220 	blr	x17
   114d4:	f85f83a0 	ldur	x0, [x29, #-8]
   114d8:	f85e03a1 	ldur	x1, [x29, #-32]
   114dc:	97ffcca9 	bl	0x4780
   114e0:	d4200520 	brk	#0x29
   114e4:	910083ff 	add	sp, sp, #0x20
   114e8:	a8c17bfd 	ldp	x29, x30, [sp], #16
   114ec:	d65f03c0 	ret
   114f0:	a9bf7bfd 	stp	x29, x30, [sp, #-16]!
   114f4:	910003fd 	mov	x29, sp
   114f8:	d10083ff 	sub	sp, sp, #0x20
   114fc:	d4200500 	brk	#0x28
   11500:	d4200500 	brk	#0x28
   11504:	f85e03a1 	ldur	x1, [x29, #-32]
   11508:	7100003f 	cmp	w1, #0x0
   1150c:	54000401 	b.ne	0x1158c  // b.any
   11510:	f81f83a0 	stur	x0, [x29, #-8]
   11514:	f81e03a1 	stur	x1, [x29, #-32]
   11518:	d298b091 	mov	x17, #0xc584                	// #50564
   1151c:	f2a031b1 	movk	x17, #0x18d, lsl #16
   11520:	f2c00ab1 	movk	x17, #0x55, lsl #32
   11524:	f2e00011 	movk	x17, #0x0, lsl #48
   11528:	d63f0220 	blr	x17
   1152c:	f85e03a0 	ldur	x0, [x29, #-32]
   11530:	f8408001 	ldur	x1, [x0, #8]
   11534:	b85f03a2 	ldur	w2, [x29, #-16]
   11538:	6b02003f 	cmp	w1, w2
   1153c:	5400004b 	b.lt	0x11544  // b.tstop
   11540:	110003e3 	mov	w3, wsp
   11544:	14000001 	b	0x11548
   11548:	110007e3 	add	w3, wsp, #0x1
   1154c:	910083ff 	add	sp, sp, #0x20
   11550:	a8c17bfd 	ldp	x29, x30, [sp], #16
   11554:	d65f03c0 	ret
   11558:	d503201f 	nop
   1155c:	d503201f 	nop
   11560:	a9bf7bfd 	stp	x29, x30, [sp, #-16]!
   11564:	910003fd 	mov	x29, sp
   11568:	d10103ff 	sub	sp, sp, #0x40
   1156c:	d4200500 	brk	#0x28
   11570:	f85e83a1 	ldur	x1, [x29, #-24]
   11574:	7100003f 	cmp	w1, #0x0
   11578:	54000401 	b.ne	0x115f8  // b.any
   1157c:	f81f83a0 	stur	x0, [x29, #-8]
   11580:	f81e83a1 	stur	x1, [x29, #-24]
   11584:	d298b091 	mov	x17, #0xc584                	// #50564
   11588:	f2a031b1 	movk	x17, #0x18d, lsl #16
   1158c:	f2c00ab1 	movk	x17, #0x55, lsl #32
   11590:	f2e00011 	movk	x17, #0x0, lsl #48
   11594:	d63f0220 	blr	x17
   11598:	f85e83a0 	ldur	x0, [x29, #-24]
   1159c:	f8410001 	ldur	x1, [x0, #16]
   115a0:	d4200500 	brk	#0x28
   115a4:	52800062 	mov	w2, #0x3                   	// #3
   115a8:	72a00002 	movk	w2, #0x0, lsl #16
   115ac:	d42001c0 	brk	#0xe
   115b0:	d4200980 	brk	#0x4c
   115b4:	f81e83a0 	stur	x0, [x29, #-24]
   115b8:	f81f03a1 	stur	x1, [x29, #-16]
   115bc:	b81dc3a2 	stur	w2, [x29, #-36]
   115c0:	d28bb900 	mov	x0, #0x5dc8                	// #24008
   115c4:	f2a000c0 	movk	x0, #0x6, lsl #16
   115c8:	f2c00aa0 	movk	x0, #0x55, lsl #32
   115cc:	f2e00000 	movk	x0, #0x0, lsl #48
   115d0:	d2883511 	mov	x17, #0x41a8                	// #16808
   115d4:	f2a031b1 	movk	x17, #0x18d, lsl #16
   115d8:	f2c00ab1 	movk	x17, #0x55, lsl #32
   115dc:	f2e00011 	movk	x17, #0x0, lsl #48
   115e0:	d63f0220 	blr	x17
   115e4:	f85f83a1 	ldur	x1, [x29, #-8]
   115e8:	f8408022 	ldur	x2, [x1, #8]
   115ec:	b81cc3a2 	stur	w2, [x29, #-52]
   115f0:	11000422 	add	w2, w1, #0x1
   115f4:	f8000021 	stur	x1, [x1]
   115f8:	d42004e0 	brk	#0x27
   115fc:	d42004e0 	brk	#0x27
   11600:	910103ff 	add	sp, sp, #0x40
   11604:	a8c17bfd 	ldp	x29, x30, [sp], #16
   11608:	d65f03c0 	ret
   1160c:	d503201f 	nop
   11610:	a9bf7bfd 	stp	x29, x30, [sp, #-16]!
   11614:	910003fd 	mov	x29, sp
   11618:	d10083ff 	sub	sp, sp, #0x20
   1161c:	aa1f03e2 	mov	x2, xzr
   11620:	f81f83a0 	stur	x0, [x29, #-8]
   11624:	f81f03a1 	stur	x1, [x29, #-16]
   11628:	f81e83a2 	stur	x2, [x29, #-24]
   1162c:	d13fa3e0 	sub	x0, sp, #0xfe8
   11630:	d2852901 	mov	x1, #0x2948                	// #10568
   11634:	f2a000c1 	movk	x1, #0x6, lsl #16
   11638:	f2c00aa1 	movk	x1, #0x55, lsl #32
   1163c:	f2e00001 	movk	x1, #0x0, lsl #48
   11640:	d285a102 	mov	x2, #0x2d08                	// #11528
   11644:	f2a000c2 	movk	x2, #0x6, lsl #16
   11648:	f2c00aa2 	movk	x2, #0x55, lsl #32
   1164c:	f2e00002 	movk	x2, #0x0, lsl #48
   11650:	d2942991 	mov	x17, #0xa14c                	// #41292
   11654:	f2a031b1 	movk	x17, #0x18d, lsl #16
   11658:	f2c00ab1 	movk	x17, #0x55, lsl #32
   1165c:	f2e00011 	movk	x17, #0x0, lsl #48
   11660:	d63f0220 	blr	x17
   11664:	f85f83a0 	ldur	x0, [x29, #-8]
   11668:	f85e03a1 	ldur	x1, [x29, #-32]
   1166c:	97ffcc45 	bl	0x4780
   11670:	d4200520 	brk	#0x29
   11674:	910083ff 	add	sp, sp, #0x20
   11678:	a8c17bfd 	ldp	x29, x30, [sp], #16
   1167c:	d65f03c0 	ret
   11680:	a9bf7bfd 	stp	x29, x30, [sp, #-16]!
   11684:	910003fd 	mov	x29, sp
   11688:	d10083ff 	sub	sp, sp, #0x20
   1168c:	d4200500 	brk	#0x28
   11690:	d4200500 	brk	#0x28
   11694:	f85e03a1 	ldur	x1, [x29, #-32]
   11698:	7100003f 	cmp	w1, #0x0
   1169c:	54000401 	b.ne	0x1171c  // b.any
   116a0:	f81f83a0 	stur	x0, [x29, #-8]
   116a4:	f81e03a1 	stur	x1, [x29, #-32]
   116a8:	d298b091 	mov	x17, #0xc584                	// #50564
   116ac:	f2a031b1 	movk	x17, #0x18d, lsl #16
   116b0:	f2c00ab1 	movk	x17, #0x55, lsl #32
   116b4:	f2e00011 	movk	x17, #0x0, lsl #48
   116b8:	d63f0220 	blr	x17
   116bc:	f85e03a0 	ldur	x0, [x29, #-32]
   116c0:	f8408001 	ldur	x1, [x0, #8]
   116c4:	b85f03a2 	ldur	w2, [x29, #-16]
   116c8:	6b02003f 	cmp	w1, w2
   116cc:	5400004b 	b.lt	0x116d4  // b.tstop
   116d0:	110003e3 	mov	w3, wsp
   116d4:	14000001 	b	0x116d8
   116d8:	110007e3 	add	w3, wsp, #0x1
   116dc:	910083ff 	add	sp, sp, #0x20
   116e0:	a8c17bfd 	ldp	x29, x30, [sp], #16
   116e4:	d65f03c0 	ret
   116e8:	d503201f 	nop
   116ec:	d503201f 	nop
   116f0:	a9bf7bfd 	stp	x29, x30, [sp, #-16]!
   116f4:	910003fd 	mov	x29, sp
   116f8:	d100c3ff 	sub	sp, sp, #0x30
   116fc:	d4200500 	brk	#0x28
   11700:	f85e83a1 	ldur	x1, [x29, #-24]
   11704:	7100003f 	cmp	w1, #0x0
   11708:	54000401 	b.ne	0x11788  // b.any
   1170c:	f81f83a0 	stur	x0, [x29, #-8]
   11710:	f81e83a1 	stur	x1, [x29, #-24]
   11714:	d298b091 	mov	x17, #0xc584                	// #50564
   11718:	f2a031b1 	movk	x17, #0x18d, lsl #16
   1171c:	f2c00ab1 	movk	x17, #0x55, lsl #32
   11720:	f2e00011 	movk	x17, #0x0, lsl #48
   11724:	d63f0220 	blr	x17
   11728:	f85e83a0 	ldur	x0, [x29, #-24]
   1172c:	f8410001 	ldur	x1, [x0, #16]
   11730:	d4200500 	brk	#0x28
   11734:	52800062 	mov	w2, #0x3                   	// #3
   11738:	72a00002 	movk	w2, #0x0, lsl #16
   1173c:	d42001c0 	brk	#0xe
   11740:	d4200980 	brk	#0x4c
   11744:	f81e83a0 	stur	x0, [x29, #-24]
   11748:	f81f03a1 	stur	x1, [x29, #-16]
   1174c:	b81d83a2 	stur	w2, [x29, #-40]
   11750:	d28bc900 	mov	x0, #0x5e48                	// #24136
   11754:	f2a000c0 	movk	x0, #0x6, lsl #16
   11758:	f2c00aa0 	movk	x0, #0x55, lsl #32
   1175c:	f2e00000 	movk	x0, #0x0, lsl #48
   11760:	d2883511 	mov	x17, #0x41a8                	// #16808
   11764:	f2a031b1 	movk	x17, #0x18d, lsl #16
   11768:	f2c00ab1 	movk	x17, #0x55, lsl #32
   1176c:	f2e00011 	movk	x17, #0x0, lsl #48
   11770:	d63f0220 	blr	x17
   11774:	f85f83a1 	ldur	x1, [x29, #-8]
   11778:	f8408022 	ldur	x2, [x1, #8]
   1177c:	b81d83a2 	stur	w2, [x29, #-40]
   11780:	11000422 	add	w2, w1, #0x1
   11784:	f800c021 	stur	x1, [x1, #12]
   11788:	d42004e0 	brk	#0x27
   1178c:	d42004e0 	brk	#0x27
   11790:	9100c3ff 	add	sp, sp, #0x30
   11794:	a8c17bfd 	ldp	x29, x30, [sp], #16
   11798:	d65f03c0 	ret
   1179c:	d503201f 	nop
   117a0:	a9bf7bfd 	stp	x29, x30, [sp, #-16]!
   117a4:	910003fd 	mov	x29, sp
   117a8:	d10083ff 	sub	sp, sp, #0x20
   117ac:	aa1f03e2 	mov	x2, xzr
   117b0:	f81f83a0 	stur	x0, [x29, #-8]
   117b4:	f81f03a1 	stur	x1, [x29, #-16]
   117b8:	f81e83a2 	stur	x2, [x29, #-24]
   117bc:	d13fa3e0 	sub	x0, sp, #0xfe8
   117c0:	d2852901 	mov	x1, #0x2948                	// #10568
   117c4:	f2a000c1 	movk	x1, #0x6, lsl #16
   117c8:	f2c00aa1 	movk	x1, #0x55, lsl #32
   117cc:	f2e00001 	movk	x1, #0x0, lsl #48
   117d0:	d285a102 	mov	x2, #0x2d08                	// #11528
   117d4:	f2a000c2 	movk	x2, #0x6, lsl #16
   117d8:	f2c00aa2 	movk	x2, #0x55, lsl #32
   117dc:	f2e00002 	movk	x2, #0x0, lsl #48
   117e0:	d2942991 	mov	x17, #0xa14c                	// #41292
   117e4:	f2a031b1 	movk	x17, #0x18d, lsl #16
   117e8:	f2c00ab1 	movk	x17, #0x55, lsl #32
   117ec:	f2e00011 	movk	x17, #0x0, lsl #48
   117f0:	d63f0220 	blr	x17
   117f4:	f85f83a0 	ldur	x0, [x29, #-8]
   117f8:	f85e03a1 	ldur	x1, [x29, #-32]
   117fc:	97ffcbe1 	bl	0x4780
   11800:	d4200520 	brk	#0x29
   11804:	910083ff 	add	sp, sp, #0x20
   11808:	a8c17bfd 	ldp	x29, x30, [sp], #16
   1180c:	d65f03c0 	ret
   11810:	a9bf7bfd 	stp	x29, x30, [sp, #-16]!
   11814:	910003fd 	mov	x29, sp
   11818:	d10083ff 	sub	sp, sp, #0x20
   1181c:	d4200500 	brk	#0x28
   11820:	d4200500 	brk	#0x28
   11824:	f85e03a1 	ldur	x1, [x29, #-32]
   11828:	7100003f 	cmp	w1, #0x0
   1182c:	54000401 	b.ne	0x118ac  // b.any
   11830:	f81f83a0 	stur	x0, [x29, #-8]
   11834:	f81e03a1 	stur	x1, [x29, #-32]
   11838:	d298b091 	mov	x17, #0xc584                	// #50564
   1183c:	f2a031b1 	movk	x17, #0x18d, lsl #16
   11840:	f2c00ab1 	movk	x17, #0x55, lsl #32
   11844:	f2e00011 	movk	x17, #0x0, lsl #48
   11848:	d63f0220 	blr	x17
   1184c:	f85e03a0 	ldur	x0, [x29, #-32]
   11850:	f8408001 	ldur	x1, [x0, #8]
   11854:	b85f03a2 	ldur	w2, [x29, #-16]
   11858:	6b02003f 	cmp	w1, w2
   1185c:	5400004b 	b.lt	0x11864  // b.tstop
   11860:	110003e3 	mov	w3, wsp
   11864:	14000001 	b	0x11868
   11868:	110007e3 	add	w3, wsp, #0x1
   1186c:	910083ff 	add	sp, sp, #0x20
   11870:	a8c17bfd 	ldp	x29, x30, [sp], #16
   11874:	d65f03c0 	ret
   11878:	d503201f 	nop
   1187c:	d503201f 	nop
   11880:	a9bf7bfd 	stp	x29, x30, [sp, #-16]!
   11884:	910003fd 	mov	x29, sp
   11888:	d100c3ff 	sub	sp, sp, #0x30
   1188c:	d4200500 	brk	#0x28
   11890:	f85e83a1 	ldur	x1, [x29, #-24]
   11894:	7100003f 	cmp	w1, #0x0
   11898:	54000401 	b.ne	0x11918  // b.any
   1189c:	f81f83a0 	stur	x0, [x29, #-8]
   118a0:	f81e83a1 	stur	x1, [x29, #-24]
   118a4:	d298b091 	mov	x17, #0xc584                	// #50564
   118a8:	f2a031b1 	movk	x17, #0x18d, lsl #16
   118ac:	f2c00ab1 	movk	x17, #0x55, lsl #32
   118b0:	f2e00011 	movk	x17, #0x0, lsl #48
   118b4:	d63f0220 	blr	x17
   118b8:	f85e83a0 	ldur	x0, [x29, #-24]
   118bc:	f8410001 	ldur	x1, [x0, #16]
   118c0:	d4200500 	brk	#0x28
   118c4:	528000e2 	mov	w2, #0x7                   	// #7
   118c8:	72a00002 	movk	w2, #0x0, lsl #16
   118cc:	d42001c0 	brk	#0xe
   118d0:	d4200960 	brk	#0x4b
   118d4:	d42007c0 	brk	#0x3e
   118d8:	f81e83a0 	stur	x0, [x29, #-24]
   118dc:	f81f03a1 	stur	x1, [x29, #-16]
   118e0:	b81dc3a2 	stur	w2, [x29, #-36]
   118e4:	d28bd900 	mov	x0, #0x5ec8                	// #24264
   118e8:	f2a000c0 	movk	x0, #0x6, lsl #16
   118ec:	f2c00aa0 	movk	x0, #0x55, lsl #32
   118f0:	f2e00000 	movk	x0, #0x0, lsl #48
   118f4:	d2883511 	mov	x17, #0x41a8                	// #16808
   118f8:	f2a031b1 	movk	x17, #0x18d, lsl #16
   118fc:	f2c00ab1 	movk	x17, #0x55, lsl #32
   11900:	f2e00011 	movk	x17, #0x0, lsl #48
   11904:	d63f0220 	blr	x17
   11908:	f85f83a1 	ldur	x1, [x29, #-8]
   1190c:	f8408022 	ldur	x2, [x1, #8]
   11910:	b81dc3a2 	stur	w2, [x29, #-36]
   11914:	11000422 	add	w2, w1, #0x1
   11918:	f800c021 	stur	x1, [x1, #12]
   1191c:	d42004e0 	brk	#0x27
   11920:	d42004e0 	brk	#0x27
   11924:	9100c3ff 	add	sp, sp, #0x30
   11928:	a8c17bfd 	ldp	x29, x30, [sp], #16
   1192c:	d65f03c0 	ret
   11930:	a9bf7bfd 	stp	x29, x30, [sp, #-16]!
   11934:	910003fd 	mov	x29, sp
   11938:	d10243ff 	sub	sp, sp, #0x90
   1193c:	97ffc4d5 	bl	0x2c90
   11940:	d2855d00 	mov	x0, #0x2ae8                	// #10984
   11944:	f2a000c0 	movk	x0, #0x6, lsl #16
   11948:	f2c00aa0 	movk	x0, #0x55, lsl #32
   1194c:	f2e00000 	movk	x0, #0x0, lsl #48
   11950:	d2874101 	mov	x1, #0x3a08                	// #14856
   11954:	f2a000c1 	movk	x1, #0x6, lsl #16
   11958:	f2c00aa1 	movk	x1, #0x55, lsl #32
   1195c:	f2e00001 	movk	x1, #0x0, lsl #48
   11960:	d29c7102 	mov	x2, #0xe388                	// #58248
   11964:	f2a000c2 	movk	x2, #0x6, lsl #16
   11968:	f2c00aa2 	movk	x2, #0x55, lsl #32
   1196c:	f2e00002 	movk	x2, #0x0, lsl #48
   11970:	f81f83a0 	stur	x0, [x29, #-8]
   11974:	f81f03a1 	stur	x1, [x29, #-16]
   11978:	f81e83a2 	stur	x2, [x29, #-24]
   1197c:	f85f83a0 	ldur	x0, [x29, #-8]
   11980:	f85f03a1 	ldur	x1, [x29, #-16]
   11984:	f85e83a2 	ldur	x2, [x29, #-24]
   11988:	97ffc4d2 	bl	0x2cd0
   1198c:	d2863901 	mov	x1, #0x31c8                	// #12744
   11990:	f2a000c1 	movk	x1, #0x6, lsl #16
   11994:	f2c00aa1 	movk	x1, #0x55, lsl #32
   11998:	f2e00001 	movk	x1, #0x0, lsl #48
   1199c:	d28bdd02 	mov	x2, #0x5ee8                	// #24296
   119a0:	f2a000c2 	movk	x2, #0x6, lsl #16
   119a4:	f2c00aa2 	movk	x2, #0x55, lsl #32
   119a8:	f2e00002 	movk	x2, #0x0, lsl #48
   119ac:	d28cf203 	mov	x3, #0x6790                	// #26512
   119b0:	f2a000e3 	movk	x3, #0x7, lsl #16
   119b4:	f2c00aa3 	movk	x3, #0x55, lsl #32
   119b8:	f2e00003 	movk	x3, #0x0, lsl #48
   119bc:	f81e03a0 	stur	x0, [x29, #-32]
   119c0:	f81f83a1 	stur	x1, [x29, #-8]
   119c4:	f81f03a2 	stur	x2, [x29, #-16]
   119c8:	f81e83a3 	stur	x3, [x29, #-24]
   119cc:	f85f83a0 	ldur	x0, [x29, #-8]
   119d0:	f85f03a1 	ldur	x1, [x29, #-16]
   119d4:	f85e83a2 	ldur	x2, [x29, #-24]
   119d8:	97ffc4be 	bl	0x2cd0
   119dc:	d2862501 	mov	x1, #0x3128                	// #12584
   119e0:	f2a000c1 	movk	x1, #0x6, lsl #16
   119e4:	f2c00aa1 	movk	x1, #0x55, lsl #32
   119e8:	f2e00001 	movk	x1, #0x0, lsl #48
   119ec:	d28be102 	mov	x2, #0x5f08                	// #24328
   119f0:	f2a000c2 	movk	x2, #0x6, lsl #16
   119f4:	f2c00aa2 	movk	x2, #0x55, lsl #32
   119f8:	f2e00002 	movk	x2, #0x0, lsl #48
   119fc:	d28d0103 	mov	x3, #0x6808                	// #26632
   11a00:	f2a000e3 	movk	x3, #0x7, lsl #16
   11a04:	f2c00aa3 	movk	x3, #0x55, lsl #32
   11a08:	f2e00003 	movk	x3, #0x0, lsl #48
   11a0c:	f81e03a0 	stur	x0, [x29, #-32]
   11a10:	f81f83a1 	stur	x1, [x29, #-8]
   11a14:	f81f03a2 	stur	x2, [x29, #-16]
   11a18:	f81e83a3 	stur	x3, [x29, #-24]
   11a1c:	f85f83a0 	ldur	x0, [x29, #-8]
   11a20:	f85f03a1 	ldur	x1, [x29, #-16]
   11a24:	f85e83a2 	ldur	x2, [x29, #-24]
   11a28:	97ffc4aa 	bl	0x2cd0
   11a2c:	f81e03a0 	stur	x0, [x29, #-32]
   11a30:	d2864100 	mov	x0, #0x3208                	// #12808
   11a34:	f2a000c0 	movk	x0, #0x6, lsl #16
   11a38:	f2c00aa0 	movk	x0, #0x55, lsl #32
   11a3c:	f2e00000 	movk	x0, #0x0, lsl #48
   11a40:	d287fa11 	mov	x17, #0x3fd0                	// #16336
   11a44:	f2a031b1 	movk	x17, #0x18d, lsl #16
   11a48:	f2c00ab1 	movk	x17, #0x55, lsl #32
   11a4c:	f2e00011 	movk	x17, #0x0, lsl #48
   11a50:	d63f0220 	blr	x17
   11a54:	d2851d01 	mov	x1, #0x28e8                	// #10472
   11a58:	f2a000c1 	movk	x1, #0x6, lsl #16
   11a5c:	f2c00aa1 	movk	x1, #0x55, lsl #32
   11a60:	f2e00001 	movk	x1, #0x0, lsl #48
   11a64:	d295c404 	mov	x4, #0xae20                	// #44576
   11a68:	f2a000c4 	movk	x4, #0x6, lsl #16
   11a6c:	f2c00aa4 	movk	x4, #0x55, lsl #32
   11a70:	f2e00004 	movk	x4, #0x0, lsl #48
   11a74:	f8400083 	ldur	x3, [x4]
   11a78:	f85e83a4 	ldur	x4, [x29, #-24]
   11a7c:	f803e080 	stur	x0, [x4, #62]
   11a80:	d295c305 	mov	x5, #0xae18                	// #44568
   11a84:	f2a000c5 	movk	x5, #0x6, lsl #16
   11a88:	f2c00aa5 	movk	x5, #0x55, lsl #32
   11a8c:	f2e00005 	movk	x5, #0x0, lsl #48
   11a90:	f80000a0 	stur	x0, [x5]
   11a94:	d28f6804 	mov	x4, #0x7b40                	// #31552
   11a98:	f2a00164 	movk	x4, #0xb, lsl #16
   11a9c:	f2c00aa4 	movk	x4, #0x55, lsl #32
   11aa0:	f2e00004 	movk	x4, #0x0, lsl #48
   11aa4:	f81d83a0 	stur	x0, [x29, #-40]
   11aa8:	f81f83a1 	stur	x1, [x29, #-8]
   11aac:	f81d03a3 	stur	x3, [x29, #-48]
   11ab0:	f81e83a4 	stur	x4, [x29, #-24]
   11ab4:	f85e83a0 	ldur	x0, [x29, #-24]
   11ab8:	f85d83a1 	ldur	x1, [x29, #-40]
   11abc:	97ffc5d9 	bl	0x3220
   11ac0:	d2864100 	mov	x0, #0x3208                	// #12808
   11ac4:	f2a000c0 	movk	x0, #0x6, lsl #16
   11ac8:	f2c00aa0 	movk	x0, #0x55, lsl #32
   11acc:	f2e00000 	movk	x0, #0x0, lsl #48
   11ad0:	d287fa11 	mov	x17, #0x3fd0                	// #16336
   11ad4:	f2a031b1 	movk	x17, #0x18d, lsl #16
   11ad8:	f2c00ab1 	movk	x17, #0x55, lsl #32
   11adc:	f2e00011 	movk	x17, #0x0, lsl #48
   11ae0:	d63f0220 	blr	x17
   11ae4:	d2851101 	mov	x1, #0x2888                	// #10376
   11ae8:	f2a000c1 	movk	x1, #0x6, lsl #16
   11aec:	f2c00aa1 	movk	x1, #0x55, lsl #32
   11af0:	f2e00001 	movk	x1, #0x0, lsl #48
   11af4:	d295c604 	mov	x4, #0xae30                	// #44592
   11af8:	f2a000c4 	movk	x4, #0x6, lsl #16
   11afc:	f2c00aa4 	movk	x4, #0x55, lsl #32
   11b00:	f2e00004 	movk	x4, #0x0, lsl #48
   11b04:	f8400083 	ldur	x3, [x4]
   11b08:	f85e83a4 	ldur	x4, [x29, #-24]
   11b0c:	f803e080 	stur	x0, [x4, #62]
   11b10:	d295c505 	mov	x5, #0xae28                	// #44584
   11b14:	f2a000c5 	movk	x5, #0x6, lsl #16
   11b18:	f2c00aa5 	movk	x5, #0x55, lsl #32
   11b1c:	f2e00005 	movk	x5, #0x0, lsl #48
   11b20:	f80000a0 	stur	x0, [x5]
   11b24:	d28f6a04 	mov	x4, #0x7b50                	// #31568
   11b28:	f2a00164 	movk	x4, #0xb, lsl #16
   11b2c:	f2c00aa4 	movk	x4, #0x55, lsl #32
   11b30:	f2e00004 	movk	x4, #0x0, lsl #48
   11b34:	f81d83a0 	stur	x0, [x29, #-40]
   11b38:	f81f83a1 	stur	x1, [x29, #-8]
   11b3c:	f81d03a3 	stur	x3, [x29, #-48]
   11b40:	f81e83a4 	stur	x4, [x29, #-24]
   11b44:	f85e83a0 	ldur	x0, [x29, #-24]
   11b48:	f85d83a1 	ldur	x1, [x29, #-40]
   11b4c:	97ffc5b5 	bl	0x3220
   11b50:	d2864500 	mov	x0, #0x3228                	// #12840
   11b54:	f2a000c0 	movk	x0, #0x6, lsl #16
   11b58:	f2c00aa0 	movk	x0, #0x55, lsl #32
   11b5c:	f2e00000 	movk	x0, #0x0, lsl #48
   11b60:	d287fa11 	mov	x17, #0x3fd0                	// #16336
   11b64:	f2a031b1 	movk	x17, #0x18d, lsl #16
   11b68:	f2c00ab1 	movk	x17, #0x55, lsl #32
   11b6c:	f2e00011 	movk	x17, #0x0, lsl #48
   11b70:	d63f0220 	blr	x17
   11b74:	d2852101 	mov	x1, #0x2908                	// #10504
   11b78:	f2a000c1 	movk	x1, #0x6, lsl #16
   11b7c:	f2c00aa1 	movk	x1, #0x55, lsl #32
   11b80:	f2e00001 	movk	x1, #0x0, lsl #48
   11b84:	d295c804 	mov	x4, #0xae40                	// #44608
   11b88:	f2a000c4 	movk	x4, #0x6, lsl #16
   11b8c:	f2c00aa4 	movk	x4, #0x55, lsl #32
   11b90:	f2e00004 	movk	x4, #0x0, lsl #48
   11b94:	f8400083 	ldur	x3, [x4]
   11b98:	f85e83a4 	ldur	x4, [x29, #-24]
   11b9c:	f8038080 	stur	x0, [x4, #56]
   11ba0:	d295c705 	mov	x5, #0xae38                	// #44600
   11ba4:	f2a000c5 	movk	x5, #0x6, lsl #16
   11ba8:	f2c00aa5 	movk	x5, #0x55, lsl #32
   11bac:	f2e00005 	movk	x5, #0x0, lsl #48
   11bb0:	f80000a0 	stur	x0, [x5]
   11bb4:	d28f6b04 	mov	x4, #0x7b58                	// #31576
   11bb8:	f2a00164 	movk	x4, #0xb, lsl #16
   11bbc:	f2c00aa4 	movk	x4, #0x55, lsl #32
   11bc0:	f2e00004 	movk	x4, #0x0, lsl #48
   11bc4:	f81c83a0 	stur	x0, [x29, #-56]
   11bc8:	f81f83a1 	stur	x1, [x29, #-8]
   11bcc:	f81d03a3 	stur	x3, [x29, #-48]
   11bd0:	f81e83a4 	stur	x4, [x29, #-24]
   11bd4:	f85e83a0 	ldur	x0, [x29, #-24]
   11bd8:	f85c83a1 	ldur	x1, [x29, #-56]
   11bdc:	97ffc591 	bl	0x3220
   11be0:	d2864100 	mov	x0, #0x3208                	// #12808
   11be4:	f2a000c0 	movk	x0, #0x6, lsl #16
   11be8:	f2c00aa0 	movk	x0, #0x55, lsl #32
   11bec:	f2e00000 	movk	x0, #0x0, lsl #48
   11bf0:	d287fa11 	mov	x17, #0x3fd0                	// #16336
   11bf4:	f2a031b1 	movk	x17, #0x18d, lsl #16
   11bf8:	f2c00ab1 	movk	x17, #0x55, lsl #32
   11bfc:	f2e00011 	movk	x17, #0x0, lsl #48
   11c00:	d63f0220 	blr	x17
   11c04:	d2852901 	mov	x1, #0x2948                	// #10568
   11c08:	f2a000c1 	movk	x1, #0x6, lsl #16
   11c0c:	f2c00aa1 	movk	x1, #0x55, lsl #32
   11c10:	f2e00001 	movk	x1, #0x0, lsl #48
   11c14:	d295ca04 	mov	x4, #0xae50                	// #44624
   11c18:	f2a000c4 	movk	x4, #0x6, lsl #16
   11c1c:	f2c00aa4 	movk	x4, #0x55, lsl #32
   11c20:	f2e00004 	movk	x4, #0x0, lsl #48
   11c24:	f8400083 	ldur	x3, [x4]
   11c28:	f85e83a4 	ldur	x4, [x29, #-24]
   11c2c:	f803e080 	stur	x0, [x4, #62]
   11c30:	d295c905 	mov	x5, #0xae48                	// #44616
   11c34:	f2a000c5 	movk	x5, #0x6, lsl #16
   11c38:	f2c00aa5 	movk	x5, #0x55, lsl #32
   11c3c:	f2e00005 	movk	x5, #0x0, lsl #48
   11c40:	f80000a0 	stur	x0, [x5]
   11c44:	d28f6d04 	mov	x4, #0x7b68                	// #31592
   11c48:	f2a00164 	movk	x4, #0xb, lsl #16
   11c4c:	f2c00aa4 	movk	x4, #0x55, lsl #32
   11c50:	f2e00004 	movk	x4, #0x0, lsl #48
   11c54:	f81d83a0 	stur	x0, [x29, #-40]
   11c58:	f81f83a1 	stur	x1, [x29, #-8]
   11c5c:	f81d03a3 	stur	x3, [x29, #-48]
   11c60:	f81e83a4 	stur	x4, [x29, #-24]
   11c64:	f85e83a0 	ldur	x0, [x29, #-24]
   11c68:	f85d83a1 	ldur	x1, [x29, #-40]
   11c6c:	97ffc56d 	bl	0x3220
   11c70:	d2854500 	mov	x0, #0x2a28                	// #10792
   11c74:	f2a000c0 	movk	x0, #0x6, lsl #16
   11c78:	f2c00aa0 	movk	x0, #0x55, lsl #32
   11c7c:	f2e00000 	movk	x0, #0x0, lsl #48
   11c80:	d2853901 	mov	x1, #0x29c8                	// #10696
   11c84:	f2a000c1 	movk	x1, #0x6, lsl #16
   11c88:	f2c00aa1 	movk	x1, #0x55, lsl #32
   11c8c:	f2e00001 	movk	x1, #0x0, lsl #48
   11c90:	d28c4d02 	mov	x2, #0x6268                	// #25192
   11c94:	f2a000c2 	movk	x2, #0x6, lsl #16
   11c98:	f2c00aa2 	movk	x2, #0x55, lsl #32
   11c9c:	f2e00002 	movk	x2, #0x0, lsl #48
   11ca0:	f81f83a0 	stur	x0, [x29, #-8]
   11ca4:	f81f03a1 	stur	x1, [x29, #-16]
   11ca8:	f81e83a2 	stur	x2, [x29, #-24]
   11cac:	f85f83a0 	ldur	x0, [x29, #-8]
   11cb0:	f85f03a1 	ldur	x1, [x29, #-16]
   11cb4:	f85e83a2 	ldur	x2, [x29, #-24]
   11cb8:	97ffc406 	bl	0x2cd0
   11cbc:	d285a901 	mov	x1, #0x2d48                	// #11592
   11cc0:	f2a000c1 	movk	x1, #0x6, lsl #16
   11cc4:	f2c00aa1 	movk	x1, #0x55, lsl #32
   11cc8:	f2e00001 	movk	x1, #0x0, lsl #48
   11ccc:	d2878102 	mov	x2, #0x3c08                	// #15368
   11cd0:	f2a000c2 	movk	x2, #0x6, lsl #16
   11cd4:	f2c00aa2 	movk	x2, #0x55, lsl #32
   11cd8:	f2e00002 	movk	x2, #0x0, lsl #48
   11cdc:	d29d3303 	mov	x3, #0xe998                	// #59800
   11ce0:	f2a000c3 	movk	x3, #0x6, lsl #16
   11ce4:	f2c00aa3 	movk	x3, #0x55, lsl #32
   11ce8:	f2e00003 	movk	x3, #0x0, lsl #48
   11cec:	f81e03a0 	stur	x0, [x29, #-32]
   11cf0:	f81f83a1 	stur	x1, [x29, #-8]
   11cf4:	f81f03a2 	stur	x2, [x29, #-16]
   11cf8:	f81e83a3 	stur	x3, [x29, #-24]
   11cfc:	f85f83a0 	ldur	x0, [x29, #-8]
   11d00:	f85f03a1 	ldur	x1, [x29, #-16]
   11d04:	f85e83a2 	ldur	x2, [x29, #-24]
   11d08:	97ffc3f2 	bl	0x2cd0
   11d0c:	d285ad01 	mov	x1, #0x2d68                	// #11624
   11d10:	f2a000c1 	movk	x1, #0x6, lsl #16
   11d14:	f2c00aa1 	movk	x1, #0x55, lsl #32
   11d18:	f2e00001 	movk	x1, #0x0, lsl #48
   11d1c:	d2879902 	mov	x2, #0x3cc8                	// #15560
   11d20:	f2a000c2 	movk	x2, #0x6, lsl #16
   11d24:	f2c00aa2 	movk	x2, #0x55, lsl #32
   11d28:	f2e00002 	movk	x2, #0x0, lsl #48
   11d2c:	d29d9403 	mov	x3, #0xeca0                	// #60576
   11d30:	f2a000c3 	movk	x3, #0x6, lsl #16
   11d34:	f2c00aa3 	movk	x3, #0x55, lsl #32
   11d38:	f2e00003 	movk	x3, #0x0, lsl #48
   11d3c:	f81e03a0 	stur	x0, [x29, #-32]
   11d40:	f81f83a1 	stur	x1, [x29, #-8]
   11d44:	f81f03a2 	stur	x2, [x29, #-16]
   11d48:	f81e83a3 	stur	x3, [x29, #-24]
   11d4c:	f85f83a0 	ldur	x0, [x29, #-8]
   11d50:	f85f03a1 	ldur	x1, [x29, #-16]
   11d54:	f85e83a2 	ldur	x2, [x29, #-24]
   11d58:	97ffc3de 	bl	0x2cd0
   11d5c:	d2864901 	mov	x1, #0x3248                	// #12872
   11d60:	f2a000c1 	movk	x1, #0x6, lsl #16
   11d64:	f2c00aa1 	movk	x1, #0x55, lsl #32
   11d68:	f2e00001 	movk	x1, #0x0, lsl #48
   11d6c:	d28be502 	mov	x2, #0x5f28                	// #24360
   11d70:	f2a000c2 	movk	x2, #0x6, lsl #16
   11d74:	f2c00aa2 	movk	x2, #0x55, lsl #32
   11d78:	f2e00002 	movk	x2, #0x0, lsl #48
   11d7c:	d28d0c03 	mov	x3, #0x6860                	// #26720
   11d80:	f2a000e3 	movk	x3, #0x7, lsl #16
   11d84:	f2c00aa3 	movk	x3, #0x55, lsl #32
   11d88:	f2e00003 	movk	x3, #0x0, lsl #48
   11d8c:	f81e03a0 	stur	x0, [x29, #-32]
   11d90:	f81f83a1 	stur	x1, [x29, #-8]
   11d94:	f81f03a2 	stur	x2, [x29, #-16]
   11d98:	f81e83a3 	stur	x3, [x29, #-24]
   11d9c:	f85f83a0 	ldur	x0, [x29, #-8]
   11da0:	f85f03a1 	ldur	x1, [x29, #-16]
   11da4:	f85e83a2 	ldur	x2, [x29, #-24]
   11da8:	97ffc3ca 	bl	0x2cd0
   11dac:	d2865101 	mov	x1, #0x3288                	// #12936
   11db0:	f2a000c1 	movk	x1, #0x6, lsl #16
   11db4:	f2c00aa1 	movk	x1, #0x55, lsl #32
   11db8:	f2e00001 	movk	x1, #0x0, lsl #48
   11dbc:	d28be902 	mov	x2, #0x5f48                	// #24392
   11dc0:	f2a000c2 	movk	x2, #0x6, lsl #16
   11dc4:	f2c00aa2 	movk	x2, #0x55, lsl #32
   11dc8:	f2e00002 	movk	x2, #0x0, lsl #48
   11dcc:	d28d1c03 	mov	x3, #0x68e0                	// #26848
   11dd0:	f2a000e3 	movk	x3, #0x7, lsl #16
   11dd4:	f2c00aa3 	movk	x3, #0x55, lsl #32
   11dd8:	f2e00003 	movk	x3, #0x0, lsl #48
   11ddc:	f81e03a0 	stur	x0, [x29, #-32]
   11de0:	f81f83a1 	stur	x1, [x29, #-8]
   11de4:	f81f03a2 	stur	x2, [x29, #-16]
   11de8:	f81e83a3 	stur	x3, [x29, #-24]
   11dec:	f85f83a0 	ldur	x0, [x29, #-8]
   11df0:	f85f03a1 	ldur	x1, [x29, #-16]
   11df4:	f85e83a2 	ldur	x2, [x29, #-24]
   11df8:	97ffc3b6 	bl	0x2cd0
   11dfc:	d2865901 	mov	x1, #0x32c8                	// #13000
   11e00:	f2a000c1 	movk	x1, #0x6, lsl #16
   11e04:	f2c00aa1 	movk	x1, #0x55, lsl #32
   11e08:	f2e00001 	movk	x1, #0x0, lsl #48
   11e0c:	d28bed02 	mov	x2, #0x5f68                	// #24424
   11e10:	f2a000c2 	movk	x2, #0x6, lsl #16
   11e14:	f2c00aa2 	movk	x2, #0x55, lsl #32
   11e18:	f2e00002 	movk	x2, #0x0, lsl #48
   11e1c:	d28d2703 	mov	x3, #0x6938                	// #26936
   11e20:	f2a000e3 	movk	x3, #0x7, lsl #16
   11e24:	f2c00aa3 	movk	x3, #0x55, lsl #32
   11e28:	f2e00003 	movk	x3, #0x0, lsl #48
   11e2c:	f81e03a0 	stur	x0, [x29, #-32]
   11e30:	f81f83a1 	stur	x1, [x29, #-8]
   11e34:	f81f03a2 	stur	x2, [x29, #-16]
   11e38:	f81e83a3 	stur	x3, [x29, #-24]
   11e3c:	f85f83a0 	ldur	x0, [x29, #-8]
   11e40:	f85f03a1 	ldur	x1, [x29, #-16]
   11e44:	f85e83a2 	ldur	x2, [x29, #-24]
   11e48:	97ffc3a2 	bl	0x2cd0
   11e4c:	d285b901 	mov	x1, #0x2dc8                	// #11720
   11e50:	f2a000c1 	movk	x1, #0x6, lsl #16
   11e54:	f2c00aa1 	movk	x1, #0x55, lsl #32
   11e58:	f2e00001 	movk	x1, #0x0, lsl #48
   11e5c:	d285c102 	mov	x2, #0x2e08                	// #11784
   11e60:	f2a000c2 	movk	x2, #0x6, lsl #16
   11e64:	f2c00aa2 	movk	x2, #0x55, lsl #32
   11e68:	f2e00002 	movk	x2, #0x0, lsl #48
   11e6c:	d2947003 	mov	x3, #0xa380                	// #41856
   11e70:	f2a000c3 	movk	x3, #0x6, lsl #16
   11e74:	f2c00aa3 	movk	x3, #0x55, lsl #32
   11e78:	f2e00003 	movk	x3, #0x0, lsl #48
   11e7c:	f81e03a0 	stur	x0, [x29, #-32]
   11e80:	f81f83a1 	stur	x1, [x29, #-8]
   11e84:	f81f03a2 	stur	x2, [x29, #-16]
   11e88:	f81e83a3 	stur	x3, [x29, #-24]
   11e8c:	f85f83a0 	ldur	x0, [x29, #-8]
   11e90:	f85f03a1 	ldur	x1, [x29, #-16]
   11e94:	f85e83a2 	ldur	x2, [x29, #-24]
   11e98:	97ffc38e 	bl	0x2cd0
   11e9c:	d2859501 	mov	x1, #0x2ca8                	// #11432
   11ea0:	f2a000c1 	movk	x1, #0x6, lsl #16
   11ea4:	f2c00aa1 	movk	x1, #0x55, lsl #32
   11ea8:	f2e00001 	movk	x1, #0x0, lsl #48
   11eac:	d28bf102 	mov	x2, #0x5f88                	// #24456
   11eb0:	f2a000c2 	movk	x2, #0x6, lsl #16
   11eb4:	f2c00aa2 	movk	x2, #0x55, lsl #32
   11eb8:	f2e00002 	movk	x2, #0x0, lsl #48
   11ebc:	d28d3303 	mov	x3, #0x6998                	// #27032
   11ec0:	f2a000e3 	movk	x3, #0x7, lsl #16
   11ec4:	f2c00aa3 	movk	x3, #0x55, lsl #32
   11ec8:	f2e00003 	movk	x3, #0x0, lsl #48
   11ecc:	f81e03a0 	stur	x0, [x29, #-32]
   11ed0:	f81f83a1 	stur	x1, [x29, #-8]
   11ed4:	f81f03a2 	stur	x2, [x29, #-16]
   11ed8:	f81e83a3 	stur	x3, [x29, #-24]
   11edc:	f85f83a0 	ldur	x0, [x29, #-8]
   11ee0:	f85f03a1 	ldur	x1, [x29, #-16]
   11ee4:	f85e83a2 	ldur	x2, [x29, #-24]
   11ee8:	97ffc37a 	bl	0x2cd0
   11eec:	d2866901 	mov	x1, #0x3348                	// #13128
   11ef0:	f2a000c1 	movk	x1, #0x6, lsl #16
   11ef4:	f2c00aa1 	movk	x1, #0x55, lsl #32
   11ef8:	f2e00001 	movk	x1, #0x0, lsl #48
   11efc:	d28bf502 	mov	x2, #0x5fa8                	// #24488
   11f00:	f2a000c2 	movk	x2, #0x6, lsl #16
   11f04:	f2c00aa2 	movk	x2, #0x55, lsl #32
   11f08:	f2e00002 	movk	x2, #0x0, lsl #48
   11f0c:	d28d4003 	mov	x3, #0x6a00                	// #27136
   11f10:	f2a000e3 	movk	x3, #0x7, lsl #16
   11f14:	f2c00aa3 	movk	x3, #0x55, lsl #32
   11f18:	f2e00003 	movk	x3, #0x0, lsl #48
   11f1c:	f81e03a0 	stur	x0, [x29, #-32]
   11f20:	f81f83a1 	stur	x1, [x29, #-8]
   11f24:	f81f03a2 	stur	x2, [x29, #-16]
   11f28:	f81e83a3 	stur	x3, [x29, #-24]
   11f2c:	f85f83a0 	ldur	x0, [x29, #-8]
   11f30:	f85f03a1 	ldur	x1, [x29, #-16]
   11f34:	f85e83a2 	ldur	x2, [x29, #-24]
   11f38:	97ffc366 	bl	0x2cd0
   11f3c:	d285c901 	mov	x1, #0x2e48                	// #11848
   11f40:	f2a000c1 	movk	x1, #0x6, lsl #16
   11f44:	f2c00aa1 	movk	x1, #0x55, lsl #32
   11f48:	f2e00001 	movk	x1, #0x0, lsl #48
   11f4c:	d287a502 	mov	x2, #0x3d28                	// #15656
   11f50:	f2a000c2 	movk	x2, #0x6, lsl #16
   11f54:	f2c00aa2 	movk	x2, #0x55, lsl #32
   11f58:	f2e00002 	movk	x2, #0x0, lsl #48
   11f5c:	d29dc103 	mov	x3, #0xee08                	// #60936
   11f60:	f2a000c3 	movk	x3, #0x6, lsl #16
   11f64:	f2c00aa3 	movk	x3, #0x55, lsl #32
   11f68:	f2e00003 	movk	x3, #0x0, lsl #48
   11f6c:	f81e03a0 	stur	x0, [x29, #-32]
   11f70:	f81f83a1 	stur	x1, [x29, #-8]
   11f74:	f81f03a2 	stur	x2, [x29, #-16]
   11f78:	f81e83a3 	stur	x3, [x29, #-24]
   11f7c:	f85f83a0 	ldur	x0, [x29, #-8]
   11f80:	f85f03a1 	ldur	x1, [x29, #-16]
   11f84:	f85e83a2 	ldur	x2, [x29, #-24]
   11f88:	97ffc352 	bl	0x2cd0
   11f8c:	d2867101 	mov	x1, #0x3388                	// #13192
   11f90:	f2a000c1 	movk	x1, #0x6, lsl #16
   11f94:	f2c00aa1 	movk	x1, #0x55, lsl #32
   11f98:	f2e00001 	movk	x1, #0x0, lsl #48
   11f9c:	d28bf902 	mov	x2, #0x5fc8                	// #24520
   11fa0:	f2a000c2 	movk	x2, #0x6, lsl #16
   11fa4:	f2c00aa2 	movk	x2, #0x55, lsl #32
   11fa8:	f2e00002 	movk	x2, #0x0, lsl #48
   11fac:	d28d5003 	mov	x3, #0x6a80                	// #27264
   11fb0:	f2a000e3 	movk	x3, #0x7, lsl #16
   11fb4:	f2c00aa3 	movk	x3, #0x55, lsl #32
   11fb8:	f2e00003 	movk	x3, #0x0, lsl #48
   11fbc:	f81e03a0 	stur	x0, [x29, #-32]
   11fc0:	f81f83a1 	stur	x1, [x29, #-8]
   11fc4:	f81f03a2 	stur	x2, [x29, #-16]
   11fc8:	f81e83a3 	stur	x3, [x29, #-24]
   11fcc:	f85f83a0 	ldur	x0, [x29, #-8]
   11fd0:	f85f03a1 	ldur	x1, [x29, #-16]
   11fd4:	f85e83a2 	ldur	x2, [x29, #-24]
   11fd8:	97ffc33e 	bl	0x2cd0
   11fdc:	d285cd01 	mov	x1, #0x2e68                	// #11880
   11fe0:	f2a000c1 	movk	x1, #0x6, lsl #16
   11fe4:	f2c00aa1 	movk	x1, #0x55, lsl #32
   11fe8:	f2e00001 	movk	x1, #0x0, lsl #48
   11fec:	d287c502 	mov	x2, #0x3e28                	// #15912
   11ff0:	f2a000c2 	movk	x2, #0x6, lsl #16
   11ff4:	f2c00aa2 	movk	x2, #0x55, lsl #32
   11ff8:	f2e00002 	movk	x2, #0x0, lsl #48
   11ffc:	d29e3403 	mov	x3, #0xf1a0                	// #61856
   12000:	f2a000c3 	movk	x3, #0x6, lsl #16
   12004:	f2c00aa3 	movk	x3, #0x55, lsl #32
   12008:	f2e00003 	movk	x3, #0x0, lsl #48
   1200c:	f81e03a0 	stur	x0, [x29, #-32]
   12010:	f81f83a1 	stur	x1, [x29, #-8]
   12014:	f81f03a2 	stur	x2, [x29, #-16]
   12018:	f81e83a3 	stur	x3, [x29, #-24]
   1201c:	f85f83a0 	ldur	x0, [x29, #-8]
   12020:	f85f03a1 	ldur	x1, [x29, #-16]
   12024:	f85e83a2 	ldur	x2, [x29, #-24]
   12028:	97ffc32a 	bl	0x2cd0
   1202c:	d285d101 	mov	x1, #0x2e88                	// #11912
   12030:	f2a000c1 	movk	x1, #0x6, lsl #16
   12034:	f2c00aa1 	movk	x1, #0x55, lsl #32
   12038:	f2e00001 	movk	x1, #0x0, lsl #48
   1203c:	d287d102 	mov	x2, #0x3e88                	// #16008
   12040:	f2a000c2 	movk	x2, #0x6, lsl #16
   12044:	f2c00aa2 	movk	x2, #0x55, lsl #32
   12048:	f2e00002 	movk	x2, #0x0, lsl #48
   1204c:	d29e6803 	mov	x3, #0xf340                	// #62272
   12050:	f2a000c3 	movk	x3, #0x6, lsl #16
   12054:	f2c00aa3 	movk	x3, #0x55, lsl #32
   12058:	f2e00003 	movk	x3, #0x0, lsl #48
   1205c:	f81e03a0 	stur	x0, [x29, #-32]
   12060:	f81f83a1 	stur	x1, [x29, #-8]
   12064:	f81f03a2 	stur	x2, [x29, #-16]
   12068:	f81e83a3 	stur	x3, [x29, #-24]
   1206c:	f85f83a0 	ldur	x0, [x29, #-8]
   12070:	f85f03a1 	ldur	x1, [x29, #-16]
   12074:	f85e83a2 	ldur	x2, [x29, #-24]
   12078:	97ffc316 	bl	0x2cd0
   1207c:	d285ed01 	mov	x1, #0x2f68                	// #12136
   12080:	f2a000c1 	movk	x1, #0x6, lsl #16
   12084:	f2c00aa1 	movk	x1, #0x55, lsl #32
   12088:	f2e00001 	movk	x1, #0x0, lsl #48
   1208c:	d285f102 	mov	x2, #0x2f88                	// #12168
   12090:	f2a000c2 	movk	x2, #0x6, lsl #16
   12094:	f2c00aa2 	movk	x2, #0x55, lsl #32
   12098:	f2e00002 	movk	x2, #0x0, lsl #48
   1209c:	f81e03a0 	stur	x0, [x29, #-32]
   120a0:	f81f83a1 	stur	x1, [x29, #-8]
   120a4:	f81f03a2 	stur	x2, [x29, #-16]
   120a8:	f85f83a0 	ldur	x0, [x29, #-8]
   120ac:	f85f03a1 	ldur	x1, [x29, #-16]
   120b0:	97ffc364 	bl	0x2e40
   120b4:	f8438001 	ldur	x1, [x0, #56]
   120b8:	52800002 	mov	w2, #0x0                   	// #0
   120bc:	72a00002 	movk	w2, #0x0, lsl #16
   120c0:	d42009a0 	brk	#0x4d
   120c4:	f81c03a0 	stur	x0, [x29, #-64]
   120c8:	f81b83a1 	stur	x1, [x29, #-72]
   120cc:	b81a43a2 	stur	w2, [x29, #-92]
   120d0:	d13ea3e0 	sub	x0, sp, #0xfa8
   120d4:	d2852901 	mov	x1, #0x2948                	// #10568
   120d8:	f2a000c1 	movk	x1, #0x6, lsl #16
   120dc:	f2c00aa1 	movk	x1, #0x55, lsl #32
   120e0:	f2e00001 	movk	x1, #0x0, lsl #48
   120e4:	d285f102 	mov	x2, #0x2f88                	// #12168
   120e8:	f2a000c2 	movk	x2, #0x6, lsl #16
   120ec:	f2c00aa2 	movk	x2, #0x55, lsl #32
   120f0:	f2e00002 	movk	x2, #0x0, lsl #48
   120f4:	d2942991 	mov	x17, #0xa14c                	// #41292
   120f8:	f2a031b1 	movk	x17, #0x18d, lsl #16
   120fc:	f2c00ab1 	movk	x17, #0x55, lsl #32
   12100:	f2e00011 	movk	x17, #0x0, lsl #48
   12104:	d63f0220 	blr	x17
   12108:	d295d000 	mov	x0, #0xae80                	// #44672
   1210c:	f2a000c0 	movk	x0, #0x6, lsl #16
   12110:	f2c00aa0 	movk	x0, #0x55, lsl #32
   12114:	f2e00000 	movk	x0, #0x0, lsl #48
   12118:	f85b03a1 	ldur	x1, [x29, #-80]
   1211c:	f8000001 	stur	x1, [x0]
   12120:	528000e0 	mov	w0, #0x7                   	// #7
   12124:	72a00000 	movk	w0, #0x0, lsl #16
   12128:	d42009a0 	brk	#0x4d
   1212c:	b81a43a0 	stur	w0, [x29, #-92]
   12130:	f81b03a1 	stur	x1, [x29, #-80]
   12134:	d13ea3e0 	sub	x0, sp, #0xfa8
   12138:	d2852901 	mov	x1, #0x2948                	// #10568
   1213c:	f2a000c1 	movk	x1, #0x6, lsl #16
   12140:	f2c00aa1 	movk	x1, #0x55, lsl #32
   12144:	f2e00001 	movk	x1, #0x0, lsl #48
   12148:	d285f102 	mov	x2, #0x2f88                	// #12168
   1214c:	f2a000c2 	movk	x2, #0x6, lsl #16
   12150:	f2c00aa2 	movk	x2, #0x55, lsl #32
   12154:	f2e00002 	movk	x2, #0x0, lsl #48
   12158:	d2942991 	mov	x17, #0xa14c                	// #41292
   1215c:	f2a031b1 	movk	x17, #0x18d, lsl #16
   12160:	f2c00ab1 	movk	x17, #0x55, lsl #32
   12164:	f2e00011 	movk	x17, #0x0, lsl #48
   12168:	d63f0220 	blr	x17
   1216c:	d295d100 	mov	x0, #0xae88                	// #44680
   12170:	f2a000c0 	movk	x0, #0x6, lsl #16
   12174:	f2c00aa0 	movk	x0, #0x55, lsl #32
   12178:	f2e00000 	movk	x0, #0x0, lsl #48
   1217c:	f85b03a1 	ldur	x1, [x29, #-80]
   12180:	f8000001 	stur	x1, [x0]
   12184:	52800060 	mov	w0, #0x3                   	// #3
   12188:	72a00000 	movk	w0, #0x0, lsl #16
   1218c:	d42009a0 	brk	#0x4d
   12190:	b81a43a0 	stur	w0, [x29, #-92]
   12194:	f81b03a1 	stur	x1, [x29, #-80]
   12198:	d13ea3e0 	sub	x0, sp, #0xfa8
   1219c:	d2852901 	mov	x1, #0x2948                	// #10568
   121a0:	f2a000c1 	movk	x1, #0x6, lsl #16
   121a4:	f2c00aa1 	movk	x1, #0x55, lsl #32
   121a8:	f2e00001 	movk	x1, #0x0, lsl #48
   121ac:	d285f102 	mov	x2, #0x2f88                	// #12168
   121b0:	f2a000c2 	movk	x2, #0x6, lsl #16
   121b4:	f2c00aa2 	movk	x2, #0x55, lsl #32
   121b8:	f2e00002 	movk	x2, #0x0, lsl #48
   121bc:	d2942991 	mov	x17, #0xa14c                	// #41292
   121c0:	f2a031b1 	movk	x17, #0x18d, lsl #16
   121c4:	f2c00ab1 	movk	x17, #0x55, lsl #32
   121c8:	f2e00011 	movk	x17, #0x0, lsl #48
   121cc:	d63f0220 	blr	x17
   121d0:	d295b200 	mov	x0, #0xad90                	// #44432
   121d4:	f2a000c0 	movk	x0, #0x6, lsl #16
   121d8:	f2c00aa0 	movk	x0, #0x55, lsl #32
   121dc:	f2e00000 	movk	x0, #0x0, lsl #48
   121e0:	f85b03a1 	ldur	x1, [x29, #-80]
   121e4:	f8000001 	stur	x1, [x0]
   121e8:	d285d500 	mov	x0, #0x2ea8                	// #11944
   121ec:	f2a000c0 	movk	x0, #0x6, lsl #16
   121f0:	f2c00aa0 	movk	x0, #0x55, lsl #32
   121f4:	f2e00000 	movk	x0, #0x0, lsl #48
   121f8:	d287d902 	mov	x2, #0x3ec8                	// #16072
   121fc:	f2a000c2 	movk	x2, #0x6, lsl #16
   12200:	f2c00aa2 	movk	x2, #0x55, lsl #32
   12204:	f2e00002 	movk	x2, #0x0, lsl #48
   12208:	d29e8803 	mov	x3, #0xf440                	// #62528
   1220c:	f2a000c3 	movk	x3, #0x6, lsl #16
   12210:	f2c00aa3 	movk	x3, #0x55, lsl #32
   12214:	f2e00003 	movk	x3, #0x0, lsl #48
   12218:	f81f83a0 	stur	x0, [x29, #-8]
   1221c:	f81b03a1 	stur	x1, [x29, #-80]
   12220:	f81f03a2 	stur	x2, [x29, #-16]
   12224:	f81e83a3 	stur	x3, [x29, #-24]
   12228:	f85f83a0 	ldur	x0, [x29, #-8]
   1222c:	f85f03a1 	ldur	x1, [x29, #-16]
   12230:	f85e83a2 	ldur	x2, [x29, #-24]
   12234:	97ffc2a7 	bl	0x2cd0
   12238:	d285d901 	mov	x1, #0x2ec8                	// #11976
   1223c:	f2a000c1 	movk	x1, #0x6, lsl #16
   12240:	f2c00aa1 	movk	x1, #0x55, lsl #32
   12244:	f2e00001 	movk	x1, #0x0, lsl #48
   12248:	d287e902 	mov	x2, #0x3f48                	// #16200
   1224c:	f2a000c2 	movk	x2, #0x6, lsl #16
   12250:	f2c00aa2 	movk	x2, #0x55, lsl #32
   12254:	f2e00002 	movk	x2, #0x0, lsl #48
   12258:	d29ece03 	mov	x3, #0xf670                	// #63088
   1225c:	f2a000c3 	movk	x3, #0x6, lsl #16
   12260:	f2c00aa3 	movk	x3, #0x55, lsl #32
   12264:	f2e00003 	movk	x3, #0x0, lsl #48
   12268:	f81e03a0 	stur	x0, [x29, #-32]
   1226c:	f81f83a1 	stur	x1, [x29, #-8]
   12270:	f81f03a2 	stur	x2, [x29, #-16]
   12274:	f81e83a3 	stur	x3, [x29, #-24]
   12278:	f85f83a0 	ldur	x0, [x29, #-8]
   1227c:	f85f03a1 	ldur	x1, [x29, #-16]
   12280:	f85e83a2 	ldur	x2, [x29, #-24]
   12284:	97ffc293 	bl	0x2cd0
   12288:	d2854101 	mov	x1, #0x2a08                	// #10760
   1228c:	f2a000c1 	movk	x1, #0x6, lsl #16
   12290:	f2c00aa1 	movk	x1, #0x55, lsl #32
   12294:	f2e00001 	movk	x1, #0x0, lsl #48
   12298:	d2852d02 	mov	x2, #0x2968                	// #10600
   1229c:	f2a000c2 	movk	x2, #0x6, lsl #16
   122a0:	f2c00aa2 	movk	x2, #0x55, lsl #32
   122a4:	f2e00002 	movk	x2, #0x0, lsl #48
   122a8:	d28c0d03 	mov	x3, #0x6068                	// #24680
   122ac:	f2a000c3 	movk	x3, #0x6, lsl #16
   122b0:	f2c00aa3 	movk	x3, #0x55, lsl #32
   122b4:	f2e00003 	movk	x3, #0x0, lsl #48
   122b8:	f81e03a0 	stur	x0, [x29, #-32]
   122bc:	f81f83a1 	stur	x1, [x29, #-8]
   122c0:	f81f03a2 	stur	x2, [x29, #-16]
   122c4:	f81e83a3 	stur	x3, [x29, #-24]
   122c8:	f85f83a0 	ldur	x0, [x29, #-8]
   122cc:	f85f03a1 	ldur	x1, [x29, #-16]
   122d0:	f85e83a2 	ldur	x2, [x29, #-24]
   122d4:	97ffc27f 	bl	0x2cd0
   122d8:	d2853501 	mov	x1, #0x29a8                	// #10664
   122dc:	f2a000c1 	movk	x1, #0x6, lsl #16
   122e0:	f2c00aa1 	movk	x1, #0x55, lsl #32
   122e4:	f2e00001 	movk	x1, #0x0, lsl #48
   122e8:	d2853502 	mov	x2, #0x29a8                	// #10664
   122ec:	f2a000c2 	movk	x2, #0x6, lsl #16
   122f0:	f2c00aa2 	movk	x2, #0x55, lsl #32
   122f4:	f2e00002 	movk	x2, #0x0, lsl #48
   122f8:	d28f6f03 	mov	x3, #0x7b78                	// #31608
   122fc:	f2a00163 	movk	x3, #0xb, lsl #16
   12300:	f2c00aa3 	movk	x3, #0x55, lsl #32
   12304:	f2e00003 	movk	x3, #0x0, lsl #48
   12308:	f81e03a0 	stur	x0, [x29, #-32]
   1230c:	f81f83a1 	stur	x1, [x29, #-8]
   12310:	f81f03a2 	stur	x2, [x29, #-16]
   12314:	f81e83a3 	stur	x3, [x29, #-24]
   12318:	f85f83a0 	ldur	x0, [x29, #-8]
   1231c:	f85f03a1 	ldur	x1, [x29, #-16]
   12320:	f85e83a2 	ldur	x2, [x29, #-24]
   12324:	97ffc26b 	bl	0x2cd0
   12328:	d285b501 	mov	x1, #0x2da8                	// #11688
   1232c:	f2a000c1 	movk	x1, #0x6, lsl #16
   12330:	f2c00aa1 	movk	x1, #0x55, lsl #32
   12334:	f2e00001 	movk	x1, #0x0, lsl #48
   12338:	d285e502 	mov	x2, #0x2f28                	// #12072
   1233c:	f2a000c2 	movk	x2, #0x6, lsl #16
   12340:	f2c00aa2 	movk	x2, #0x55, lsl #32
   12344:	f2e00002 	movk	x2, #0x0, lsl #48
   12348:	d2969003 	mov	x3, #0xb480                	// #46208
   1234c:	f2a000c3 	movk	x3, #0x6, lsl #16
   12350:	f2c00aa3 	movk	x3, #0x55, lsl #32
   12354:	f2e00003 	movk	x3, #0x0, lsl #48
   12358:	f81e03a0 	stur	x0, [x29, #-32]
   1235c:	f81f83a1 	stur	x1, [x29, #-8]
   12360:	f81f03a2 	stur	x2, [x29, #-16]
   12364:	f81e83a3 	stur	x3, [x29, #-24]
   12368:	f85f83a0 	ldur	x0, [x29, #-8]
   1236c:	f85f03a1 	ldur	x1, [x29, #-16]
   12370:	f85e83a2 	ldur	x2, [x29, #-24]
   12374:	97ffc257 	bl	0x2cd0
   12378:	d2869501 	mov	x1, #0x34a8                	// #13480
   1237c:	f2a000c1 	movk	x1, #0x6, lsl #16
   12380:	f2c00aa1 	movk	x1, #0x55, lsl #32
   12384:	f2e00001 	movk	x1, #0x0, lsl #48
   12388:	d28bfd02 	mov	x2, #0x5fe8                	// #24552
   1238c:	f2a000c2 	movk	x2, #0x6, lsl #16
   12390:	f2c00aa2 	movk	x2, #0x55, lsl #32
   12394:	f2e00002 	movk	x2, #0x0, lsl #48
   12398:	d28d5f03 	mov	x3, #0x6af8                	// #27384
   1239c:	f2a000e3 	movk	x3, #0x7, lsl #16
   123a0:	f2c00aa3 	movk	x3, #0x55, lsl #32
   123a4:	f2e00003 	movk	x3, #0x0, lsl #48
   123a8:	f81e03a0 	stur	x0, [x29, #-32]
   123ac:	f81f83a1 	stur	x1, [x29, #-8]
   123b0:	f81f03a2 	stur	x2, [x29, #-16]
   123b4:	f81e83a3 	stur	x3, [x29, #-24]
   123b8:	f85f83a0 	ldur	x0, [x29, #-8]
   123bc:	f85f03a1 	ldur	x1, [x29, #-16]
   123c0:	f85e83a2 	ldur	x2, [x29, #-24]
   123c4:	97ffc243 	bl	0x2cd0
   123c8:	d285dd01 	mov	x1, #0x2ee8                	// #12008
   123cc:	f2a000c1 	movk	x1, #0x6, lsl #16
   123d0:	f2c00aa1 	movk	x1, #0x55, lsl #32
   123d4:	f2e00001 	movk	x1, #0x0, lsl #48
   123d8:	d287f502 	mov	x2, #0x3fa8                	// #16296
   123dc:	f2a000c2 	movk	x2, #0x6, lsl #16
   123e0:	f2c00aa2 	movk	x2, #0x55, lsl #32
   123e4:	f2e00002 	movk	x2, #0x0, lsl #48
   123e8:	d29f0003 	mov	x3, #0xf800                	// #63488
   123ec:	f2a000c3 	movk	x3, #0x6, lsl #16
   123f0:	f2c00aa3 	movk	x3, #0x55, lsl #32
   123f4:	f2e00003 	movk	x3, #0x0, lsl #48
   123f8:	f81e03a0 	stur	x0, [x29, #-32]
   123fc:	f81f83a1 	stur	x1, [x29, #-8]
   12400:	f81f03a2 	stur	x2, [x29, #-16]
   12404:	f81e83a3 	stur	x3, [x29, #-24]
   12408:	f85f83a0 	ldur	x0, [x29, #-8]
   1240c:	f85f03a1 	ldur	x1, [x29, #-16]
   12410:	f85e83a2 	ldur	x2, [x29, #-24]
   12414:	97ffc22f 	bl	0x2cd0
   12418:	d285e101 	mov	x1, #0x2f08                	// #12040
   1241c:	f2a000c1 	movk	x1, #0x6, lsl #16
   12420:	f2c00aa1 	movk	x1, #0x55, lsl #32
   12424:	f2e00001 	movk	x1, #0x0, lsl #48
   12428:	d2880502 	mov	x2, #0x4028                	// #16424
   1242c:	f2a000c2 	movk	x2, #0x6, lsl #16
   12430:	f2c00aa2 	movk	x2, #0x55, lsl #32
   12434:	f2e00002 	movk	x2, #0x0, lsl #48
   12438:	d29f4403 	mov	x3, #0xfa20                	// #64032
   1243c:	f2a000c3 	movk	x3, #0x6, lsl #16
   12440:	f2c00aa3 	movk	x3, #0x55, lsl #32
   12444:	f2e00003 	movk	x3, #0x0, lsl #48
   12448:	f81e03a0 	stur	x0, [x29, #-32]
   1244c:	f81f83a1 	stur	x1, [x29, #-8]
   12450:	f81f03a2 	stur	x2, [x29, #-16]
   12454:	f81e83a3 	stur	x3, [x29, #-24]
   12458:	f85f83a0 	ldur	x0, [x29, #-8]
   1245c:	f85f03a1 	ldur	x1, [x29, #-16]
   12460:	f85e83a2 	ldur	x2, [x29, #-24]
   12464:	97ffc21b 	bl	0x2cd0
   12468:	d2869901 	mov	x1, #0x34c8                	// #13512
   1246c:	f2a000c1 	movk	x1, #0x6, lsl #16
   12470:	f2c00aa1 	movk	x1, #0x55, lsl #32
   12474:	f2e00001 	movk	x1, #0x0, lsl #48
   12478:	d28c0102 	mov	x2, #0x6008                	// #24584
   1247c:	f2a000c2 	movk	x2, #0x6, lsl #16
   12480:	f2c00aa2 	movk	x2, #0x55, lsl #32
   12484:	f2e00002 	movk	x2, #0x0, lsl #48
   12488:	d28d7203 	mov	x3, #0x6b90                	// #27536
   1248c:	f2a000e3 	movk	x3, #0x7, lsl #16
   12490:	f2c00aa3 	movk	x3, #0x55, lsl #32
   12494:	f2e00003 	movk	x3, #0x0, lsl #48
   12498:	f81e03a0 	stur	x0, [x29, #-32]
   1249c:	f81f83a1 	stur	x1, [x29, #-8]
   124a0:	f81f03a2 	stur	x2, [x29, #-16]
   124a4:	f81e83a3 	stur	x3, [x29, #-24]
   124a8:	f85f83a0 	ldur	x0, [x29, #-8]
   124ac:	f85f03a1 	ldur	x1, [x29, #-16]
   124b0:	f85e83a2 	ldur	x2, [x29, #-24]
   124b4:	97ffc207 	bl	0x2cd0
   124b8:	d2856101 	mov	x1, #0x2b08                	// #11016
   124bc:	f2a000c1 	movk	x1, #0x6, lsl #16
   124c0:	f2c00aa1 	movk	x1, #0x55, lsl #32
   124c4:	f2e00001 	movk	x1, #0x0, lsl #48
   124c8:	d2856d02 	mov	x2, #0x2b68                	// #11112
   124cc:	f2a000c2 	movk	x2, #0x6, lsl #16
   124d0:	f2c00aa2 	movk	x2, #0x55, lsl #32
   124d4:	f2e00002 	movk	x2, #0x0, lsl #48
   124d8:	d28d8503 	mov	x3, #0x6c28                	// #27688
   124dc:	f2a000c3 	movk	x3, #0x6, lsl #16
   124e0:	f2c00aa3 	movk	x3, #0x55, lsl #32
   124e4:	f2e00003 	movk	x3, #0x0, lsl #48
   124e8:	f81e03a0 	stur	x0, [x29, #-32]
   124ec:	f81f83a1 	stur	x1, [x29, #-8]
   124f0:	f81f03a2 	stur	x2, [x29, #-16]
   124f4:	f81e83a3 	stur	x3, [x29, #-24]
   124f8:	f85f83a0 	ldur	x0, [x29, #-8]
   124fc:	f85f03a1 	ldur	x1, [x29, #-16]
   12500:	f85e83a2 	ldur	x2, [x29, #-24]
   12504:	97ffc1f3 	bl	0x2cd0
   12508:	f81e03a0 	stur	x0, [x29, #-32]
   1250c:	d2856500 	mov	x0, #0x2b28                	// #11048
   12510:	f2a000c0 	movk	x0, #0x6, lsl #16
   12514:	f2c00aa0 	movk	x0, #0x55, lsl #32
   12518:	f2e00000 	movk	x0, #0x0, lsl #48
   1251c:	d287fa11 	mov	x17, #0x3fd0                	// #16336
   12520:	f2a031b1 	movk	x17, #0x18d, lsl #16
   12524:	f2c00ab1 	movk	x17, #0x55, lsl #32
   12528:	f2e00011 	movk	x17, #0x0, lsl #48
   1252c:	d63f0220 	blr	x17
   12530:	d2957701 	mov	x1, #0xabb8                	// #43960
   12534:	f2a000c1 	movk	x1, #0x6, lsl #16
   12538:	f2c00aa1 	movk	x1, #0x55, lsl #32
   1253c:	f2e00001 	movk	x1, #0x0, lsl #48
   12540:	f8000020 	stur	x0, [x1]
   12544:	d2856d01 	mov	x1, #0x2b68                	// #11112
   12548:	f2a000c1 	movk	x1, #0x6, lsl #16
   1254c:	f2c00aa1 	movk	x1, #0x55, lsl #32
   12550:	f2e00001 	movk	x1, #0x0, lsl #48
   12554:	d295d404 	mov	x4, #0xaea0                	// #44704
   12558:	f2a000c4 	movk	x4, #0x6, lsl #16
   1255c:	f2c00aa4 	movk	x4, #0x55, lsl #32
   12560:	f2e00004 	movk	x4, #0x0, lsl #48
   12564:	f8400083 	ldur	x3, [x4]
   12568:	f85e83a4 	ldur	x4, [x29, #-24]
   1256c:	f8038080 	stur	x0, [x4, #56]
   12570:	d28f7104 	mov	x4, #0x7b88                	// #31624
   12574:	f2a00164 	movk	x4, #0xb, lsl #16
   12578:	f2c00aa4 	movk	x4, #0x55, lsl #32
   1257c:	f2e00004 	movk	x4, #0x0, lsl #48
   12580:	f81983a0 	stur	x0, [x29, #-104]
   12584:	f81f83a1 	stur	x1, [x29, #-8]
   12588:	f81d03a3 	stur	x3, [x29, #-48]
   1258c:	f81e83a4 	stur	x4, [x29, #-24]
   12590:	f85e83a0 	ldur	x0, [x29, #-24]
   12594:	f85983a1 	ldur	x1, [x29, #-104]
   12598:	97ffc322 	bl	0x3220
   1259c:	d2859100 	mov	x0, #0x2c88                	// #11400
   125a0:	f2a000c0 	movk	x0, #0x6, lsl #16
   125a4:	f2c00aa0 	movk	x0, #0x55, lsl #32
   125a8:	f2e00000 	movk	x0, #0x0, lsl #48
   125ac:	d2858501 	mov	x1, #0x2c28                	// #11304
   125b0:	f2a000c1 	movk	x1, #0x6, lsl #16
   125b4:	f2c00aa1 	movk	x1, #0x55, lsl #32
   125b8:	f2e00001 	movk	x1, #0x0, lsl #48
   125bc:	d2911d02 	mov	x2, #0x88e8                	// #35048
   125c0:	f2a000c2 	movk	x2, #0x6, lsl #16
   125c4:	f2c00aa2 	movk	x2, #0x55, lsl #32
   125c8:	f2e00002 	movk	x2, #0x0, lsl #48
   125cc:	f81f83a0 	stur	x0, [x29, #-8]
   125d0:	f81f03a1 	stur	x1, [x29, #-16]
   125d4:	f81e83a2 	stur	x2, [x29, #-24]
   125d8:	f85f83a0 	ldur	x0, [x29, #-8]
   125dc:	f85f03a1 	ldur	x1, [x29, #-16]
   125e0:	f85e83a2 	ldur	x2, [x29, #-24]
   125e4:	97ffc1bb 	bl	0x2cd0
   125e8:	d2861501 	mov	x1, #0x30a8                	// #12456
   125ec:	f2a000c1 	movk	x1, #0x6, lsl #16
   125f0:	f2c00aa1 	movk	x1, #0x55, lsl #32
   125f4:	f2e00001 	movk	x1, #0x0, lsl #48
   125f8:	d28a8502 	mov	x2, #0x5428                	// #21544
   125fc:	f2a000c2 	movk	x2, #0x6, lsl #16
   12600:	f2c00aa2 	movk	x2, #0x55, lsl #32
   12604:	f2e00002 	movk	x2, #0x0, lsl #48
   12608:	d288cc03 	mov	x3, #0x4660                	// #18016
   1260c:	f2a000e3 	movk	x3, #0x7, lsl #16
   12610:	f2c00aa3 	movk	x3, #0x55, lsl #32
   12614:	f2e00003 	movk	x3, #0x0, lsl #48
   12618:	f81e03a0 	stur	x0, [x29, #-32]
   1261c:	f81f83a1 	stur	x1, [x29, #-8]
   12620:	f81f03a2 	stur	x2, [x29, #-16]
   12624:	f81e83a3 	stur	x3, [x29, #-24]
   12628:	f85f83a0 	ldur	x0, [x29, #-8]
   1262c:	f85f03a1 	ldur	x1, [x29, #-16]
   12630:	f85e83a2 	ldur	x2, [x29, #-24]
   12634:	97ffc1a7 	bl	0x2cd0
   12638:	d2861901 	mov	x1, #0x30c8                	// #12488
   1263c:	f2a000c1 	movk	x1, #0x6, lsl #16
   12640:	f2c00aa1 	movk	x1, #0x55, lsl #32
   12644:	f2e00001 	movk	x1, #0x0, lsl #48
   12648:	d28a9502 	mov	x2, #0x54a8                	// #21672
   1264c:	f2a000c2 	movk	x2, #0x6, lsl #16
   12650:	f2c00aa2 	movk	x2, #0x55, lsl #32
   12654:	f2e00002 	movk	x2, #0x0, lsl #48
   12658:	d2890803 	mov	x3, #0x4840                	// #18496
   1265c:	f2a000e3 	movk	x3, #0x7, lsl #16
   12660:	f2c00aa3 	movk	x3, #0x55, lsl #32
   12664:	f2e00003 	movk	x3, #0x0, lsl #48
   12668:	f81e03a0 	stur	x0, [x29, #-32]
   1266c:	f81f83a1 	stur	x1, [x29, #-8]
   12670:	f81f03a2 	stur	x2, [x29, #-16]
   12674:	f81e83a3 	stur	x3, [x29, #-24]
   12678:	f85f83a0 	ldur	x0, [x29, #-8]
   1267c:	f85f03a1 	ldur	x1, [x29, #-16]
   12680:	f85e83a2 	ldur	x2, [x29, #-24]
   12684:	97ffc193 	bl	0x2cd0
   12688:	f81e03a0 	stur	x0, [x29, #-32]
   1268c:	d2869d00 	mov	x0, #0x34e8                	// #13544
   12690:	f2a000c0 	movk	x0, #0x6, lsl #16
   12694:	f2c00aa0 	movk	x0, #0x55, lsl #32
   12698:	f2e00000 	movk	x0, #0x0, lsl #48
   1269c:	d287fa11 	mov	x17, #0x3fd0                	// #16336
   126a0:	f2a031b1 	movk	x17, #0x18d, lsl #16
   126a4:	f2c00ab1 	movk	x17, #0x55, lsl #32
   126a8:	f2e00011 	movk	x17, #0x0, lsl #48
   126ac:	d63f0220 	blr	x17
   126b0:	d295d501 	mov	x1, #0xaea8                	// #44712
   126b4:	f2a000c1 	movk	x1, #0x6, lsl #16
   126b8:	f2c00aa1 	movk	x1, #0x55, lsl #32
   126bc:	f2e00001 	movk	x1, #0x0, lsl #48
   126c0:	f8000020 	stur	x0, [x1]
   126c4:	d285a101 	mov	x1, #0x2d08                	// #11528
   126c8:	f2a000c1 	movk	x1, #0x6, lsl #16
   126cc:	f2c00aa1 	movk	x1, #0x55, lsl #32
   126d0:	f2e00001 	movk	x1, #0x0, lsl #48
   126d4:	d295d604 	mov	x4, #0xaeb0                	// #44720
   126d8:	f2a000c4 	movk	x4, #0x6, lsl #16
   126dc:	f2c00aa4 	movk	x4, #0x55, lsl #32
   126e0:	f2e00004 	movk	x4, #0x0, lsl #48
   126e4:	f8400083 	ldur	x3, [x4]
   126e8:	f85e83a4 	ldur	x4, [x29, #-24]
   126ec:	f81ea080 	stur	x0, [x4, #-22]
   126f0:	d2939504 	mov	x4, #0x9ca8                	// #40104
   126f4:	f2a000c4 	movk	x4, #0x6, lsl #16
   126f8:	f2c00aa4 	movk	x4, #0x55, lsl #32
   126fc:	f2e00004 	movk	x4, #0x0, lsl #48
   12700:	f81903a0 	stur	x0, [x29, #-112]
   12704:	f81f83a1 	stur	x1, [x29, #-8]
   12708:	f81d03a3 	stur	x3, [x29, #-48]
   1270c:	f81e83a4 	stur	x4, [x29, #-24]
   12710:	f85e83a0 	ldur	x0, [x29, #-24]
   12714:	f85903a1 	ldur	x1, [x29, #-112]
   12718:	97ffc2c2 	bl	0x3220
   1271c:	d2861d00 	mov	x0, #0x30e8                	// #12520
   12720:	f2a000c0 	movk	x0, #0x6, lsl #16
   12724:	f2c00aa0 	movk	x0, #0x55, lsl #32
   12728:	f2e00000 	movk	x0, #0x0, lsl #48
   1272c:	d28afd01 	mov	x1, #0x57e8                	// #22504
   12730:	f2a000c1 	movk	x1, #0x6, lsl #16
   12734:	f2c00aa1 	movk	x1, #0x55, lsl #32
   12738:	f2e00001 	movk	x1, #0x0, lsl #48
   1273c:	d28a4e02 	mov	x2, #0x5270                	// #21104
   12740:	f2a000e2 	movk	x2, #0x7, lsl #16
   12744:	f2c00aa2 	movk	x2, #0x55, lsl #32
   12748:	f2e00002 	movk	x2, #0x0, lsl #48
   1274c:	f81f83a0 	stur	x0, [x29, #-8]
   12750:	f81f03a1 	stur	x1, [x29, #-16]
   12754:	f81e83a2 	stur	x2, [x29, #-24]
   12758:	f85f83a0 	ldur	x0, [x29, #-8]
   1275c:	f85f03a1 	ldur	x1, [x29, #-16]
   12760:	f85e83a2 	ldur	x2, [x29, #-24]
   12764:	97ffc15b 	bl	0x2cd0
   12768:	d2862101 	mov	x1, #0x3108                	// #12552
   1276c:	f2a000c1 	movk	x1, #0x6, lsl #16
   12770:	f2c00aa1 	movk	x1, #0x55, lsl #32
   12774:	f2e00001 	movk	x1, #0x0, lsl #48
   12778:	d28b0d02 	mov	x2, #0x5868                	// #22632
   1277c:	f2a000c2 	movk	x2, #0x6, lsl #16
   12780:	f2c00aa2 	movk	x2, #0x55, lsl #32
   12784:	f2e00002 	movk	x2, #0x0, lsl #48
   12788:	d28a8a03 	mov	x3, #0x5450                	// #21584
   1278c:	f2a000e3 	movk	x3, #0x7, lsl #16
   12790:	f2c00aa3 	movk	x3, #0x55, lsl #32
   12794:	f2e00003 	movk	x3, #0x0, lsl #48
   12798:	f81e03a0 	stur	x0, [x29, #-32]
   1279c:	f81f83a1 	stur	x1, [x29, #-8]
   127a0:	f81f03a2 	stur	x2, [x29, #-16]
   127a4:	f81e83a3 	stur	x3, [x29, #-24]
   127a8:	f85f83a0 	ldur	x0, [x29, #-8]
   127ac:	f85f03a1 	ldur	x1, [x29, #-16]
   127b0:	f85e83a2 	ldur	x2, [x29, #-24]
   127b4:	97ffc147 	bl	0x2cd0
   127b8:	d285f501 	mov	x1, #0x2fa8                	// #12200
   127bc:	f2a000c1 	movk	x1, #0x6, lsl #16
   127c0:	f2c00aa1 	movk	x1, #0x55, lsl #32
   127c4:	f2e00001 	movk	x1, #0x0, lsl #48
   127c8:	d288a102 	mov	x2, #0x4508                	// #17672
   127cc:	f2a000c2 	movk	x2, #0x6, lsl #16
   127d0:	f2c00aa2 	movk	x2, #0x55, lsl #32
   127d4:	f2e00002 	movk	x2, #0x0, lsl #48
   127d8:	d2829c03 	mov	x3, #0x14e0                	// #5344
   127dc:	f2a000e3 	movk	x3, #0x7, lsl #16
   127e0:	f2c00aa3 	movk	x3, #0x55, lsl #32
   127e4:	f2e00003 	movk	x3, #0x0, lsl #48
   127e8:	f81e03a0 	stur	x0, [x29, #-32]
   127ec:	f81f83a1 	stur	x1, [x29, #-8]
   127f0:	f81f03a2 	stur	x2, [x29, #-16]
   127f4:	f81e83a3 	stur	x3, [x29, #-24]
   127f8:	f85f83a0 	ldur	x0, [x29, #-8]
   127fc:	f85f03a1 	ldur	x1, [x29, #-16]
   12800:	f85e83a2 	ldur	x2, [x29, #-24]
   12804:	97ffc133 	bl	0x2cd0
   12808:	d285fd01 	mov	x1, #0x2fe8                	// #12264
   1280c:	f2a000c1 	movk	x1, #0x6, lsl #16
   12810:	f2c00aa1 	movk	x1, #0x55, lsl #32
   12814:	f2e00001 	movk	x1, #0x0, lsl #48
   12818:	d2892502 	mov	x2, #0x4928                	// #18728
   1281c:	f2a000c2 	movk	x2, #0x6, lsl #16
   12820:	f2c00aa2 	movk	x2, #0x55, lsl #32
   12824:	f2e00002 	movk	x2, #0x0, lsl #48
   12828:	d2845003 	mov	x3, #0x2280                	// #8832
   1282c:	f2a000e3 	movk	x3, #0x7, lsl #16
   12830:	f2c00aa3 	movk	x3, #0x55, lsl #32
   12834:	f2e00003 	movk	x3, #0x0, lsl #48
   12838:	f81e03a0 	stur	x0, [x29, #-32]
   1283c:	f81f83a1 	stur	x1, [x29, #-8]
   12840:	f81f03a2 	stur	x2, [x29, #-16]
   12844:	f81e83a3 	stur	x3, [x29, #-24]
   12848:	f85f83a0 	ldur	x0, [x29, #-8]
   1284c:	f85f03a1 	ldur	x1, [x29, #-16]
   12850:	f85e83a2 	ldur	x2, [x29, #-24]
   12854:	97ffc11f 	bl	0x2cd0
   12858:	d2860501 	mov	x1, #0x3028                	// #12328
   1285c:	f2a000c1 	movk	x1, #0x6, lsl #16
   12860:	f2c00aa1 	movk	x1, #0x55, lsl #32
   12864:	f2e00001 	movk	x1, #0x0, lsl #48
   12868:	d289b102 	mov	x2, #0x4d88                	// #19848
   1286c:	f2a000c2 	movk	x2, #0x6, lsl #16
   12870:	f2c00aa2 	movk	x2, #0x55, lsl #32
   12874:	f2e00002 	movk	x2, #0x0, lsl #48
   12878:	d2861203 	mov	x3, #0x3090                	// #12432
   1287c:	f2a000e3 	movk	x3, #0x7, lsl #16
   12880:	f2c00aa3 	movk	x3, #0x55, lsl #32
   12884:	f2e00003 	movk	x3, #0x0, lsl #48
   12888:	f81e03a0 	stur	x0, [x29, #-32]
   1288c:	f81f83a1 	stur	x1, [x29, #-8]
   12890:	f81f03a2 	stur	x2, [x29, #-16]
   12894:	f81e83a3 	stur	x3, [x29, #-24]
   12898:	f85f83a0 	ldur	x0, [x29, #-8]
   1289c:	f85f03a1 	ldur	x1, [x29, #-16]
   128a0:	f85e83a2 	ldur	x2, [x29, #-24]
   128a4:	97ffc10b 	bl	0x2cd0
   128a8:	d2860d01 	mov	x1, #0x3068                	// #12392
   128ac:	f2a000c1 	movk	x1, #0x6, lsl #16
   128b0:	f2c00aa1 	movk	x1, #0x55, lsl #32
   128b4:	f2e00001 	movk	x1, #0x0, lsl #48
   128b8:	d28a4102 	mov	x2, #0x5208                	// #21000
   128bc:	f2a000c2 	movk	x2, #0x6, lsl #16
   128c0:	f2c00aa2 	movk	x2, #0x55, lsl #32
   128c4:	f2e00002 	movk	x2, #0x0, lsl #48
   128c8:	d287e203 	mov	x3, #0x3f10                	// #16144
   128cc:	f2a000e3 	movk	x3, #0x7, lsl #16
   128d0:	f2c00aa3 	movk	x3, #0x55, lsl #32
   128d4:	f2e00003 	movk	x3, #0x0, lsl #48
   128d8:	f81e03a0 	stur	x0, [x29, #-32]
   128dc:	f81f83a1 	stur	x1, [x29, #-8]
   128e0:	f81f03a2 	stur	x2, [x29, #-16]
   128e4:	f81e83a3 	stur	x3, [x29, #-24]
   128e8:	f85f83a0 	ldur	x0, [x29, #-8]
   128ec:	f85f03a1 	ldur	x1, [x29, #-16]
   128f0:	f85e83a2 	ldur	x2, [x29, #-24]
   128f4:	97ffc0f7 	bl	0x2cd0
   128f8:	d285f901 	mov	x1, #0x2fc8                	// #12232
   128fc:	f2a000c1 	movk	x1, #0x6, lsl #16
   12900:	f2c00aa1 	movk	x1, #0x55, lsl #32
   12904:	f2e00001 	movk	x1, #0x0, lsl #48
   12908:	d288a902 	mov	x2, #0x4548                	// #17736
   1290c:	f2a000c2 	movk	x2, #0x6, lsl #16
   12910:	f2c00aa2 	movk	x2, #0x55, lsl #32
   12914:	f2e00002 	movk	x2, #0x0, lsl #48
   12918:	d282c303 	mov	x3, #0x1618                	// #5656
   1291c:	f2a000e3 	movk	x3, #0x7, lsl #16
   12920:	f2c00aa3 	movk	x3, #0x55, lsl #32
   12924:	f2e00003 	movk	x3, #0x0, lsl #48
   12928:	f81e03a0 	stur	x0, [x29, #-32]
   1292c:	f81f83a1 	stur	x1, [x29, #-8]
   12930:	f81f03a2 	stur	x2, [x29, #-16]
   12934:	f81e83a3 	stur	x3, [x29, #-24]
   12938:	f85f83a0 	ldur	x0, [x29, #-8]
   1293c:	f85f03a1 	ldur	x1, [x29, #-16]
   12940:	f85e83a2 	ldur	x2, [x29, #-24]
   12944:	97ffc0e3 	bl	0x2cd0
   12948:	d2860101 	mov	x1, #0x3008                	// #12296
   1294c:	f2a000c1 	movk	x1, #0x6, lsl #16
   12950:	f2c00aa1 	movk	x1, #0x55, lsl #32
   12954:	f2e00001 	movk	x1, #0x0, lsl #48
   12958:	d2892d02 	mov	x2, #0x4968                	// #18792
   1295c:	f2a000c2 	movk	x2, #0x6, lsl #16
   12960:	f2c00aa2 	movk	x2, #0x55, lsl #32
   12964:	f2e00002 	movk	x2, #0x0, lsl #48
   12968:	d2847503 	mov	x3, #0x23a8                	// #9128
   1296c:	f2a000e3 	movk	x3, #0x7, lsl #16
   12970:	f2c00aa3 	movk	x3, #0x55, lsl #32
   12974:	f2e00003 	movk	x3, #0x0, lsl #48
   12978:	f81e03a0 	stur	x0, [x29, #-32]
   1297c:	f81f83a1 	stur	x1, [x29, #-8]
   12980:	f81f03a2 	stur	x2, [x29, #-16]
   12984:	f81e83a3 	stur	x3, [x29, #-24]
   12988:	f85f83a0 	ldur	x0, [x29, #-8]
   1298c:	f85f03a1 	ldur	x1, [x29, #-16]
   12990:	f85e83a2 	ldur	x2, [x29, #-24]
   12994:	97ffc0cf 	bl	0x2cd0
   12998:	d2860901 	mov	x1, #0x3048                	// #12360
   1299c:	f2a000c1 	movk	x1, #0x6, lsl #16
   129a0:	f2c00aa1 	movk	x1, #0x55, lsl #32
   129a4:	f2e00001 	movk	x1, #0x0, lsl #48
   129a8:	d289b902 	mov	x2, #0x4dc8                	// #19912
   129ac:	f2a000c2 	movk	x2, #0x6, lsl #16
   129b0:	f2c00aa2 	movk	x2, #0x55, lsl #32
   129b4:	f2e00002 	movk	x2, #0x0, lsl #48
   129b8:	d2863803 	mov	x3, #0x31c0                	// #12736
   129bc:	f2a000e3 	movk	x3, #0x7, lsl #16
   129c0:	f2c00aa3 	movk	x3, #0x55, lsl #32
   129c4:	f2e00003 	movk	x3, #0x0, lsl #48
   129c8:	f81e03a0 	stur	x0, [x29, #-32]
   129cc:	f81f83a1 	stur	x1, [x29, #-8]
   129d0:	f81f03a2 	stur	x2, [x29, #-16]
   129d4:	f81e83a3 	stur	x3, [x29, #-24]
   129d8:	f85f83a0 	ldur	x0, [x29, #-8]
   129dc:	f85f03a1 	ldur	x1, [x29, #-16]
   129e0:	f85e83a2 	ldur	x2, [x29, #-24]
   129e4:	97ffc0bb 	bl	0x2cd0
   129e8:	d2861101 	mov	x1, #0x3088                	// #12424
   129ec:	f2a000c1 	movk	x1, #0x6, lsl #16
   129f0:	f2c00aa1 	movk	x1, #0x55, lsl #32
   129f4:	f2e00001 	movk	x1, #0x0, lsl #48
   129f8:	d28a4902 	mov	x2, #0x5248                	// #21064
   129fc:	f2a000c2 	movk	x2, #0x6, lsl #16
   12a00:	f2c00aa2 	movk	x2, #0x55, lsl #32
   12a04:	f2e00002 	movk	x2, #0x0, lsl #48
   12a08:	d2880803 	mov	x3, #0x4040                	// #16448
   12a0c:	f2a000e3 	movk	x3, #0x7, lsl #16
   12a10:	f2c00aa3 	movk	x3, #0x55, lsl #32
   12a14:	f2e00003 	movk	x3, #0x0, lsl #48
   12a18:	f81e03a0 	stur	x0, [x29, #-32]
   12a1c:	f81f83a1 	stur	x1, [x29, #-8]
   12a20:	f81f03a2 	stur	x2, [x29, #-16]
   12a24:	f81e83a3 	stur	x3, [x29, #-24]
   12a28:	f85f83a0 	ldur	x0, [x29, #-8]
   12a2c:	f85f03a1 	ldur	x1, [x29, #-16]
   12a30:	f85e83a2 	ldur	x2, [x29, #-24]
   12a34:	97ffc0a7 	bl	0x2cd0
   12a38:	d286a901 	mov	x1, #0x3548                	// #13640
   12a3c:	f2a000c1 	movk	x1, #0x6, lsl #16
   12a40:	f2c00aa1 	movk	x1, #0x55, lsl #32
   12a44:	f2e00001 	movk	x1, #0x0, lsl #48
   12a48:	d28c0502 	mov	x2, #0x6028                	// #24616
   12a4c:	f2a000c2 	movk	x2, #0x6, lsl #16
   12a50:	f2c00aa2 	movk	x2, #0x55, lsl #32
   12a54:	f2e00002 	movk	x2, #0x0, lsl #48
   12a58:	d28d8103 	mov	x3, #0x6c08                	// #27656
   12a5c:	f2a000e3 	movk	x3, #0x7, lsl #16
   12a60:	f2c00aa3 	movk	x3, #0x55, lsl #32
   12a64:	f2e00003 	movk	x3, #0x0, lsl #48
   12a68:	f81e03a0 	stur	x0, [x29, #-32]
   12a6c:	f81f83a1 	stur	x1, [x29, #-8]
   12a70:	f81f03a2 	stur	x2, [x29, #-16]
   12a74:	f81e83a3 	stur	x3, [x29, #-24]
   12a78:	f85f83a0 	ldur	x0, [x29, #-8]
   12a7c:	f85f03a1 	ldur	x1, [x29, #-16]
   12a80:	f85e83a2 	ldur	x2, [x29, #-24]
   12a84:	97ffc093 	bl	0x2cd0
   12a88:	f81e03a0 	stur	x0, [x29, #-32]
   12a8c:	d28e5611 	mov	x17, #0x72b0                	// #29360
   12a90:	f2a031d1 	movk	x17, #0x18e, lsl #16
   12a94:	f2c00ab1 	movk	x17, #0x55, lsl #32
   12a98:	f2e00011 	movk	x17, #0x0, lsl #48
   12a9c:	d63f0220 	blr	x17
   12aa0:	d295c002 	mov	x2, #0xae00                	// #44544
   12aa4:	f2a000c2 	movk	x2, #0x6, lsl #16
   12aa8:	f2c00aa2 	movk	x2, #0x55, lsl #32
   12aac:	f2e00002 	movk	x2, #0x0, lsl #48
   12ab0:	f8400041 	ldur	x1, [x2]
   12ab4:	f85d83a2 	ldur	x2, [x29, #-40]
   12ab8:	f810d041 	stur	x1, [x2, #-243]
   12abc:	f81883a0 	stur	x0, [x29, #-120]
   12ac0:	f81803a1 	stur	x1, [x29, #-128]
   12ac4:	f81d83a2 	stur	x2, [x29, #-40]
   12ac8:	d2956111 	mov	x17, #0xab08                	// #43784
   12acc:	f2a031d1 	movk	x17, #0x18e, lsl #16
   12ad0:	f2c00ab1 	movk	x17, #0x55, lsl #32
   12ad4:	f2e00011 	movk	x17, #0x0, lsl #48
   12ad8:	d63f0220 	blr	x17
   12adc:	d295cc02 	mov	x2, #0xae60                	// #44640
   12ae0:	f2a000c2 	movk	x2, #0x6, lsl #16
   12ae4:	f2c00aa2 	movk	x2, #0x55, lsl #32
   12ae8:	f2e00002 	movk	x2, #0x0, lsl #48
   12aec:	f8400041 	ldur	x1, [x2]
   12af0:	f85d83a2 	ldur	x2, [x29, #-40]
   12af4:	f8055041 	stur	x1, [x2, #85]
   12af8:	52800003 	mov	w3, #0x0                   	// #0
   12afc:	72a00003 	movk	w3, #0x0, lsl #16
   12b00:	d295c005 	mov	x5, #0xae00                	// #44544
   12b04:	f2a000c5 	movk	x5, #0x6, lsl #16
   12b08:	f2c00aa5 	movk	x5, #0x55, lsl #32
   12b0c:	f2e00005 	movk	x5, #0x0, lsl #48
   12b10:	f84000a4 	ldur	x4, [x5]
   12b14:	f85d03a5 	ldur	x5, [x29, #-48]
   12b18:	f80010a4 	stur	x4, [x5, #1]
   12b1c:	3817f3a0 	sturb	w0, [x29, #-129]
   12b20:	f81703a1 	stur	x1, [x29, #-144]
   12b24:	f81d83a2 	stur	x2, [x29, #-40]
   12b28:	b81a43a3 	stur	w3, [x29, #-92]
   12b2c:	f81803a4 	stur	x4, [x29, #-128]
   12b30:	f81d03a5 	stur	x5, [x29, #-48]
   12b34:	97ffb587 	bl	0x150
   12b38:	910243ff 	add	sp, sp, #0x90
   12b3c:	a8c17bfd 	ldp	x29, x30, [sp], #16
   12b40:	d65f03c0 	ret
   12b44:	d503201f 	nop
   12b48:	d503201f 	nop
   12b4c:	d503201f 	nop
	...
